
/home/abdurrahim/pico_projects/build/blink/blink.elf:     file format elf32-littlearm

Sections:
Idx Name          Size      VMA       LMA       File off  Algn
  0 .boot2        00000100  10000000  10000000  00001000  2**0
                  CONTENTS, ALLOC, LOAD, READONLY, CODE
  1 .text         00005ec8  10000100  10000100  00001100  2**3
                  CONTENTS, ALLOC, LOAD, READONLY, CODE
  2 .rodata       000002f4  10005fc8  10005fc8  00006fc8  2**3
                  CONTENTS, ALLOC, LOAD, READONLY, DATA
  3 .binary_info  00000020  100062bc  100062bc  000072bc  2**2
                  CONTENTS, ALLOC, LOAD, READONLY, DATA
  4 .ram_vector_table 000000c0  20000000  20000000  0000a000  2**2
                  ALLOC
  5 .data         000016a0  200000c0  100062dc  000080c0  2**4
                  CONTENTS, ALLOC, LOAD, CODE
  6 .uninitialized_data 00000000  20001760  20001760  00009760  2**0
                  CONTENTS
  7 .scratch_x    00000000  20040000  20040000  00009760  2**0
                  CONTENTS
  8 .scratch_y    00000000  20041000  20041000  00009760  2**0
                  CONTENTS
  9 .bss          00000dc4  20001760  20001760  0000a000  2**3
                  ALLOC
 10 .heap         00000800  20002524  20002524  00009760  2**2
                  CONTENTS, READONLY
 11 .stack_dummy  00000800  20041000  20041000  00009f60  2**5
                  CONTENTS, READONLY
 12 .ARM.attributes 00000028  00000000  00000000  0000a760  2**0
                  CONTENTS, READONLY
 13 .comment      00000031  00000000  00000000  0000a788  2**0
                  CONTENTS, READONLY
 14 .debug_line   000024be  00000000  00000000  0000a7b9  2**0
                  CONTENTS, READONLY, DEBUGGING
 15 .debug_info   0000ea59  00000000  00000000  0000cc77  2**0
                  CONTENTS, READONLY, DEBUGGING
 16 .debug_abbrev 00002fdc  00000000  00000000  0001b6d0  2**0
                  CONTENTS, READONLY, DEBUGGING
 17 .debug_aranges 000002b8  00000000  00000000  0001e6b0  2**3
                  CONTENTS, READONLY, DEBUGGING
 18 .debug_str    000010c9  00000000  00000000  0001e968  2**0
                  CONTENTS, READONLY, DEBUGGING
 19 .debug_loc    000026e2  00000000  00000000  0001fa31  2**0
                  CONTENTS, READONLY, DEBUGGING
 20 .debug_ranges 000001c0  00000000  00000000  00022113  2**0
                  CONTENTS, READONLY, DEBUGGING
 21 .debug_frame  00000608  00000000  00000000  000222d4  2**2
                  CONTENTS, READONLY, DEBUGGING

/home/abdurrahim/pico_projects/build/blink/blink.elf:     file format elf32-littlearm


Disassembly of section .boot2:

10000000 <__flash_binary_start>:
10000000:	4b32b500 	.word	0x4b32b500
10000004:	60582021 	.word	0x60582021
10000008:	21026898 	.word	0x21026898
1000000c:	60984388 	.word	0x60984388
10000010:	611860d8 	.word	0x611860d8
10000014:	4b2e6158 	.word	0x4b2e6158
10000018:	60992100 	.word	0x60992100
1000001c:	61592102 	.word	0x61592102
10000020:	22f02101 	.word	0x22f02101
10000024:	492b5099 	.word	0x492b5099
10000028:	21016019 	.word	0x21016019
1000002c:	20356099 	.word	0x20356099
10000030:	f844f000 	.word	0xf844f000
10000034:	42902202 	.word	0x42902202
10000038:	2106d014 	.word	0x2106d014
1000003c:	f0006619 	.word	0xf0006619
10000040:	6e19f834 	.word	0x6e19f834
10000044:	66192101 	.word	0x66192101
10000048:	66182000 	.word	0x66182000
1000004c:	f000661a 	.word	0xf000661a
10000050:	6e19f82c 	.word	0x6e19f82c
10000054:	6e196e19 	.word	0x6e196e19
10000058:	f0002005 	.word	0xf0002005
1000005c:	2101f82f 	.word	0x2101f82f
10000060:	d1f94208 	.word	0xd1f94208
10000064:	60992100 	.word	0x60992100
10000068:	6019491b 	.word	0x6019491b
1000006c:	60592100 	.word	0x60592100
10000070:	481b491a 	.word	0x481b491a
10000074:	21016001 	.word	0x21016001
10000078:	21eb6099 	.word	0x21eb6099
1000007c:	21a06619 	.word	0x21a06619
10000080:	f0006619 	.word	0xf0006619
10000084:	2100f812 	.word	0x2100f812
10000088:	49166099 	.word	0x49166099
1000008c:	60014814 	.word	0x60014814
10000090:	60992101 	.word	0x60992101
10000094:	2800bc01 	.word	0x2800bc01
10000098:	4700d000 	.word	0x4700d000
1000009c:	49134812 	.word	0x49134812
100000a0:	c8036008 	.word	0xc8036008
100000a4:	8808f380 	.word	0x8808f380
100000a8:	b5034708 	.word	0xb5034708
100000ac:	20046a99 	.word	0x20046a99
100000b0:	d0fb4201 	.word	0xd0fb4201
100000b4:	42012001 	.word	0x42012001
100000b8:	bd03d1f8 	.word	0xbd03d1f8
100000bc:	6618b502 	.word	0x6618b502
100000c0:	f7ff6618 	.word	0xf7ff6618
100000c4:	6e18fff2 	.word	0x6e18fff2
100000c8:	bd026e18 	.word	0xbd026e18
100000cc:	40020000 	.word	0x40020000
100000d0:	18000000 	.word	0x18000000
100000d4:	00070000 	.word	0x00070000
100000d8:	005f0300 	.word	0x005f0300
100000dc:	00002221 	.word	0x00002221
100000e0:	180000f4 	.word	0x180000f4
100000e4:	a0002022 	.word	0xa0002022
100000e8:	10000100 	.word	0x10000100
100000ec:	e000ed08 	.word	0xe000ed08
	...
100000fc:	7a4eb274 	.word	0x7a4eb274

Disassembly of section .text:

10000100 <__VECTOR_TABLE>:
10000100:	20042000 	.word	0x20042000
10000104:	100001f7 	.word	0x100001f7
10000108:	100001c3 	.word	0x100001c3
1000010c:	100001c5 	.word	0x100001c5
10000110:	100001c1 	.word	0x100001c1
10000114:	100001c1 	.word	0x100001c1
10000118:	100001c1 	.word	0x100001c1
1000011c:	100001c1 	.word	0x100001c1
10000120:	100001c1 	.word	0x100001c1
10000124:	100001c1 	.word	0x100001c1
10000128:	100001c1 	.word	0x100001c1
1000012c:	100001c7 	.word	0x100001c7
10000130:	100001c1 	.word	0x100001c1
10000134:	100001c1 	.word	0x100001c1
10000138:	100001c9 	.word	0x100001c9
1000013c:	100001cb 	.word	0x100001cb
10000140:	100001cd 	.word	0x100001cd
10000144:	100001cd 	.word	0x100001cd
10000148:	100001cd 	.word	0x100001cd
1000014c:	100001cd 	.word	0x100001cd
10000150:	100001cd 	.word	0x100001cd
10000154:	100001cd 	.word	0x100001cd
10000158:	100001cd 	.word	0x100001cd
1000015c:	100001cd 	.word	0x100001cd
10000160:	100001cd 	.word	0x100001cd
10000164:	100001cd 	.word	0x100001cd
10000168:	100001cd 	.word	0x100001cd
1000016c:	100001cd 	.word	0x100001cd
10000170:	100001cd 	.word	0x100001cd
10000174:	100001cd 	.word	0x100001cd
10000178:	100001cd 	.word	0x100001cd
1000017c:	100001cd 	.word	0x100001cd
10000180:	100001cd 	.word	0x100001cd
10000184:	100001cd 	.word	0x100001cd
10000188:	100001cd 	.word	0x100001cd
1000018c:	100001cd 	.word	0x100001cd
10000190:	100001cd 	.word	0x100001cd
10000194:	100001cd 	.word	0x100001cd
10000198:	100001cd 	.word	0x100001cd
1000019c:	100001cd 	.word	0x100001cd
100001a0:	100001cd 	.word	0x100001cd
100001a4:	100001cd 	.word	0x100001cd
100001a8:	100001cd 	.word	0x100001cd
100001ac:	100001cd 	.word	0x100001cd
100001b0:	100001cd 	.word	0x100001cd
100001b4:	100001cd 	.word	0x100001cd
100001b8:	100001cd 	.word	0x100001cd
100001bc:	100001cd 	.word	0x100001cd

100001c0 <isr_invalid>:
100001c0:	be00      	bkpt	0x0000

100001c2 <isr_nmi>:
100001c2:	be00      	bkpt	0x0000

100001c4 <isr_hardfault>:
100001c4:	be00      	bkpt	0x0000

100001c6 <isr_svcall>:
100001c6:	be00      	bkpt	0x0000

100001c8 <isr_pendsv>:
100001c8:	be00      	bkpt	0x0000

100001ca <isr_systick>:
100001ca:	be00      	bkpt	0x0000

100001cc <__unhandled_user_irq>:
100001cc:	f3ef 8005 	mrs	r0, IPSR
100001d0:	3810      	subs	r0, #16

100001d2 <unhandled_user_irq_num_in_r0>:
100001d2:	be00      	bkpt	0x0000

100001d4 <binary_info_header>:
100001d4:	7188ebf2 	.word	0x7188ebf2
100001d8:	100062bc 	.word	0x100062bc
100001dc:	100062dc 	.word	0x100062dc
100001e0:	10000234 	.word	0x10000234
100001e4:	e71aa390 	.word	0xe71aa390

100001e8 <_entry_point>:
100001e8:	2000      	movs	r0, #0
100001ea:	491f      	ldr	r1, [pc, #124]	; (10000268 <hold_non_core0_in_bootrom+0xa>)
100001ec:	6008      	str	r0, [r1, #0]
100001ee:	c806      	ldmia	r0!, {r1, r2}
100001f0:	f381 8808 	msr	MSP, r1
100001f4:	4710      	bx	r2

100001f6 <_reset_handler>:
100001f6:	481d      	ldr	r0, [pc, #116]	; (1000026c <hold_non_core0_in_bootrom+0xe>)
100001f8:	6800      	ldr	r0, [r0, #0]
100001fa:	2800      	cmp	r0, #0
100001fc:	d12f      	bne.n	1000025e <hold_non_core0_in_bootrom>
100001fe:	a40d      	add	r4, pc, #52	; (adr r4, 10000234 <data_cpy_table>)
10000200:	cc0e      	ldmia	r4!, {r1, r2, r3}
10000202:	2900      	cmp	r1, #0
10000204:	d002      	beq.n	1000020c <_reset_handler+0x16>
10000206:	f000 f812 	bl	1000022e <data_cpy>
1000020a:	e7f9      	b.n	10000200 <_reset_handler+0xa>
1000020c:	4918      	ldr	r1, [pc, #96]	; (10000270 <hold_non_core0_in_bootrom+0x12>)
1000020e:	4a19      	ldr	r2, [pc, #100]	; (10000274 <hold_non_core0_in_bootrom+0x16>)
10000210:	2000      	movs	r0, #0
10000212:	e000      	b.n	10000216 <bss_fill_test>

10000214 <bss_fill_loop>:
10000214:	c101      	stmia	r1!, {r0}

10000216 <bss_fill_test>:
10000216:	4291      	cmp	r1, r2
10000218:	d1fc      	bne.n	10000214 <bss_fill_loop>

1000021a <platform_entry>:
1000021a:	4917      	ldr	r1, [pc, #92]	; (10000278 <hold_non_core0_in_bootrom+0x1a>)
1000021c:	4788      	blx	r1
1000021e:	4917      	ldr	r1, [pc, #92]	; (1000027c <hold_non_core0_in_bootrom+0x1e>)
10000220:	4788      	blx	r1
10000222:	4917      	ldr	r1, [pc, #92]	; (10000280 <hold_non_core0_in_bootrom+0x22>)
10000224:	4788      	blx	r1
10000226:	be00      	bkpt	0x0000
10000228:	e7fd      	b.n	10000226 <platform_entry+0xc>

1000022a <data_cpy_loop>:
1000022a:	c901      	ldmia	r1!, {r0}
1000022c:	c201      	stmia	r2!, {r0}

1000022e <data_cpy>:
1000022e:	429a      	cmp	r2, r3
10000230:	d3fb      	bcc.n	1000022a <data_cpy_loop>
10000232:	4770      	bx	lr

10000234 <data_cpy_table>:
10000234:	100062dc 	.word	0x100062dc
10000238:	200000c0 	.word	0x200000c0
1000023c:	20001760 	.word	0x20001760
10000240:	1000797c 	.word	0x1000797c
10000244:	20040000 	.word	0x20040000
10000248:	20040000 	.word	0x20040000
1000024c:	1000797c 	.word	0x1000797c
10000250:	20041000 	.word	0x20041000
10000254:	20041000 	.word	0x20041000
10000258:	00000000 	.word	0x00000000
1000025c:	4770      	bx	lr

1000025e <hold_non_core0_in_bootrom>:
1000025e:	4809      	ldr	r0, [pc, #36]	; (10000284 <hold_non_core0_in_bootrom+0x26>)
10000260:	f002 f8ae 	bl	100023c0 <rom_func_lookup>
10000264:	4700      	bx	r0
10000266:	0000      	.short	0x0000
10000268:	e000ed08 	.word	0xe000ed08
1000026c:	d0000000 	.word	0xd0000000
10000270:	20001760 	.word	0x20001760
10000274:	20002524 	.word	0x20002524
10000278:	100021d5 	.word	0x100021d5
1000027c:	10000371 	.word	0x10000371
10000280:	10002301 	.word	0x10002301
10000284:	00005657 	.word	0x00005657

10000288 <__bi_50>:
10000288:	50520006 5360b3ab 100060a0              ..RP..`S.`..

10000294 <__bi_38>:
10000294:	50520006 02031c86 100060b0              ..RP.....`..

100002a0 <__bi_30>:
100002a0:	50520006 9da22254 100060b8              ..RPT"...`..

100002ac <__bi_22>:
100002ac:	50520005 68f465de 1000797c              ..RP.e.h|y..

100002b8 <_init>:
100002b8:	b5f8      	push	{r3, r4, r5, r6, r7, lr}
100002ba:	46c0      	nop			; (mov r8, r8)

100002bc <deregister_tm_clones>:
100002bc:	4b05      	ldr	r3, [pc, #20]	; (100002d4 <deregister_tm_clones+0x18>)
100002be:	4806      	ldr	r0, [pc, #24]	; (100002d8 <deregister_tm_clones+0x1c>)
100002c0:	3303      	adds	r3, #3
100002c2:	b510      	push	{r4, lr}
100002c4:	1a1b      	subs	r3, r3, r0
100002c6:	2b06      	cmp	r3, #6
100002c8:	d903      	bls.n	100002d2 <deregister_tm_clones+0x16>
100002ca:	4b04      	ldr	r3, [pc, #16]	; (100002dc <deregister_tm_clones+0x20>)
100002cc:	2b00      	cmp	r3, #0
100002ce:	d000      	beq.n	100002d2 <deregister_tm_clones+0x16>
100002d0:	4798      	blx	r3
100002d2:	bd10      	pop	{r4, pc}
100002d4:	20001760 	.word	0x20001760
100002d8:	20001760 	.word	0x20001760
100002dc:	00000000 	.word	0x00000000

100002e0 <register_tm_clones>:
100002e0:	4806      	ldr	r0, [pc, #24]	; (100002fc <register_tm_clones+0x1c>)
100002e2:	4907      	ldr	r1, [pc, #28]	; (10000300 <register_tm_clones+0x20>)
100002e4:	b510      	push	{r4, lr}
100002e6:	1a09      	subs	r1, r1, r0
100002e8:	1089      	asrs	r1, r1, #2
100002ea:	0fcb      	lsrs	r3, r1, #31
100002ec:	1859      	adds	r1, r3, r1
100002ee:	1049      	asrs	r1, r1, #1
100002f0:	d003      	beq.n	100002fa <register_tm_clones+0x1a>
100002f2:	4b04      	ldr	r3, [pc, #16]	; (10000304 <register_tm_clones+0x24>)
100002f4:	2b00      	cmp	r3, #0
100002f6:	d000      	beq.n	100002fa <register_tm_clones+0x1a>
100002f8:	4798      	blx	r3
100002fa:	bd10      	pop	{r4, pc}
100002fc:	20001760 	.word	0x20001760
10000300:	20001760 	.word	0x20001760
10000304:	00000000 	.word	0x00000000

10000308 <__do_global_dtors_aux>:
10000308:	b510      	push	{r4, lr}
1000030a:	4c07      	ldr	r4, [pc, #28]	; (10000328 <__do_global_dtors_aux+0x20>)
1000030c:	7823      	ldrb	r3, [r4, #0]
1000030e:	2b00      	cmp	r3, #0
10000310:	d109      	bne.n	10000326 <__do_global_dtors_aux+0x1e>
10000312:	f7ff ffd3 	bl	100002bc <deregister_tm_clones>
10000316:	4b05      	ldr	r3, [pc, #20]	; (1000032c <__do_global_dtors_aux+0x24>)
10000318:	2b00      	cmp	r3, #0
1000031a:	d002      	beq.n	10000322 <__do_global_dtors_aux+0x1a>
1000031c:	4804      	ldr	r0, [pc, #16]	; (10000330 <__do_global_dtors_aux+0x28>)
1000031e:	e000      	b.n	10000322 <__do_global_dtors_aux+0x1a>
10000320:	bf00      	nop
10000322:	2301      	movs	r3, #1
10000324:	7023      	strb	r3, [r4, #0]
10000326:	bd10      	pop	{r4, pc}
10000328:	20001868 	.word	0x20001868
1000032c:	00000000 	.word	0x00000000
10000330:	10005fc8 	.word	0x10005fc8

10000334 <frame_dummy>:
10000334:	4b09      	ldr	r3, [pc, #36]	; (1000035c <frame_dummy+0x28>)
10000336:	b510      	push	{r4, lr}
10000338:	2b00      	cmp	r3, #0
1000033a:	d003      	beq.n	10000344 <frame_dummy+0x10>
1000033c:	4908      	ldr	r1, [pc, #32]	; (10000360 <frame_dummy+0x2c>)
1000033e:	4809      	ldr	r0, [pc, #36]	; (10000364 <frame_dummy+0x30>)
10000340:	e000      	b.n	10000344 <frame_dummy+0x10>
10000342:	bf00      	nop
10000344:	4808      	ldr	r0, [pc, #32]	; (10000368 <frame_dummy+0x34>)
10000346:	6803      	ldr	r3, [r0, #0]
10000348:	2b00      	cmp	r3, #0
1000034a:	d102      	bne.n	10000352 <frame_dummy+0x1e>
1000034c:	f7ff ffc8 	bl	100002e0 <register_tm_clones>
10000350:	bd10      	pop	{r4, pc}
10000352:	4b06      	ldr	r3, [pc, #24]	; (1000036c <frame_dummy+0x38>)
10000354:	2b00      	cmp	r3, #0
10000356:	d0f9      	beq.n	1000034c <frame_dummy+0x18>
10000358:	4798      	blx	r3
1000035a:	e7f7      	b.n	1000034c <frame_dummy+0x18>
1000035c:	00000000 	.word	0x00000000
10000360:	2000186c 	.word	0x2000186c
10000364:	10005fc8 	.word	0x10005fc8
10000368:	20001760 	.word	0x20001760
1000036c:	00000000 	.word	0x00000000

10000370 <main>:
10000370:	b5f8      	push	{r3, r4, r5, r6, r7, lr}
10000372:	25d0      	movs	r5, #208	; 0xd0
10000374:	2480      	movs	r4, #128	; 0x80
10000376:	f002 faff 	bl	10002978 <stdio_init_all>
1000037a:	2019      	movs	r0, #25
1000037c:	f000 f81a 	bl	100003b4 <gpio_init>
10000380:	062d      	lsls	r5, r5, #24
10000382:	04a4      	lsls	r4, r4, #18
10000384:	4f08      	ldr	r7, [pc, #32]	; (100003a8 <main+0x38>)
10000386:	4e09      	ldr	r6, [pc, #36]	; (100003ac <main+0x3c>)
10000388:	626c      	str	r4, [r5, #36]	; 0x24
1000038a:	4809      	ldr	r0, [pc, #36]	; (100003b0 <main+0x40>)
1000038c:	f000 ff5c 	bl	10001248 <sleep_ms>
10000390:	616c      	str	r4, [r5, #20]
10000392:	0038      	movs	r0, r7
10000394:	f002 fa0e 	bl	100027b4 <__wrap_puts>
10000398:	4805      	ldr	r0, [pc, #20]	; (100003b0 <main+0x40>)
1000039a:	f000 ff55 	bl	10001248 <sleep_ms>
1000039e:	61ac      	str	r4, [r5, #24]
100003a0:	0030      	movs	r0, r6
100003a2:	f002 fa07 	bl	100027b4 <__wrap_puts>
100003a6:	e7f0      	b.n	1000038a <main+0x1a>
100003a8:	10005fc8 	.word	0x10005fc8
100003ac:	10005fd0 	.word	0x10005fd0
100003b0:	000005dc 	.word	0x000005dc

100003b4 <gpio_init>:
100003b4:	2301      	movs	r3, #1
100003b6:	22d0      	movs	r2, #208	; 0xd0
100003b8:	4083      	lsls	r3, r0
100003ba:	0612      	lsls	r2, r2, #24
100003bc:	6293      	str	r3, [r2, #40]	; 0x28
100003be:	6193      	str	r3, [r2, #24]
100003c0:	4a09      	ldr	r2, [pc, #36]	; (100003e8 <gpio_init+0x34>)
100003c2:	0083      	lsls	r3, r0, #2
100003c4:	4694      	mov	ip, r2
100003c6:	2240      	movs	r2, #64	; 0x40
100003c8:	4463      	add	r3, ip
100003ca:	6819      	ldr	r1, [r3, #0]
100003cc:	00c0      	lsls	r0, r0, #3
100003ce:	404a      	eors	r2, r1
100003d0:	21c0      	movs	r1, #192	; 0xc0
100003d2:	4011      	ands	r1, r2
100003d4:	2280      	movs	r2, #128	; 0x80
100003d6:	0152      	lsls	r2, r2, #5
100003d8:	4313      	orrs	r3, r2
100003da:	6019      	str	r1, [r3, #0]
100003dc:	4b03      	ldr	r3, [pc, #12]	; (100003ec <gpio_init+0x38>)
100003de:	469c      	mov	ip, r3
100003e0:	2305      	movs	r3, #5
100003e2:	4460      	add	r0, ip
100003e4:	6043      	str	r3, [r0, #4]
100003e6:	4770      	bx	lr
100003e8:	4001c004 	.word	0x4001c004
100003ec:	40014000 	.word	0x40014000

100003f0 <running_on_fpga>:
100003f0:	4b02      	ldr	r3, [pc, #8]	; (100003fc <running_on_fpga+0xc>)
100003f2:	6818      	ldr	r0, [r3, #0]
100003f4:	0780      	lsls	r0, r0, #30
100003f6:	0fc0      	lsrs	r0, r0, #31
100003f8:	4770      	bx	lr
100003fa:	46c0      	nop			; (mov r8, r8)
100003fc:	4006c000 	.word	0x4006c000

10000400 <hw_claim_or_assert>:
10000400:	b5f8      	push	{r3, r4, r5, r6, r7, lr}
10000402:	f3ef 8710 	mrs	r7, PRIMASK
10000406:	b672      	cpsid	i
10000408:	4e0d      	ldr	r6, [pc, #52]	; (10000440 <hw_claim_or_assert+0x40>)
1000040a:	6833      	ldr	r3, [r6, #0]
1000040c:	2b00      	cmp	r3, #0
1000040e:	d0fc      	beq.n	1000040a <hw_claim_or_assert+0xa>
10000410:	f3bf 8f5f 	dmb	sy
10000414:	2507      	movs	r5, #7
10000416:	08cb      	lsrs	r3, r1, #3
10000418:	18c0      	adds	r0, r0, r3
1000041a:	2301      	movs	r3, #1
1000041c:	400d      	ands	r5, r1
1000041e:	40ab      	lsls	r3, r5
10000420:	001d      	movs	r5, r3
10000422:	7804      	ldrb	r4, [r0, #0]
10000424:	4025      	ands	r5, r4
10000426:	d107      	bne.n	10000438 <hw_claim_or_assert+0x38>
10000428:	4323      	orrs	r3, r4
1000042a:	7003      	strb	r3, [r0, #0]
1000042c:	f3bf 8f5f 	dmb	sy
10000430:	6035      	str	r5, [r6, #0]
10000432:	f387 8810 	msr	PRIMASK, r7
10000436:	bdf8      	pop	{r3, r4, r5, r6, r7, pc}
10000438:	0010      	movs	r0, r2
1000043a:	f001 ff65 	bl	10002308 <panic>
1000043e:	46c0      	nop			; (mov r8, r8)
10000440:	d000012c 	.word	0xd000012c

10000444 <hw_claim_unused_from_range>:
10000444:	b5f8      	push	{r3, r4, r5, r6, r7, lr}
10000446:	46ce      	mov	lr, r9
10000448:	4647      	mov	r7, r8
1000044a:	468c      	mov	ip, r1
1000044c:	b580      	push	{r7, lr}
1000044e:	f3ef 8810 	mrs	r8, PRIMASK
10000452:	b672      	cpsid	i
10000454:	4d1d      	ldr	r5, [pc, #116]	; (100004cc <hw_claim_unused_from_range+0x88>)
10000456:	682c      	ldr	r4, [r5, #0]
10000458:	2c00      	cmp	r4, #0
1000045a:	d0fc      	beq.n	10000456 <hw_claim_unused_from_range+0x12>
1000045c:	f3bf 8f5f 	dmb	sy
10000460:	429a      	cmp	r2, r3
10000462:	d819      	bhi.n	10000498 <hw_claim_unused_from_range+0x54>
10000464:	2107      	movs	r1, #7
10000466:	2501      	movs	r5, #1
10000468:	4011      	ands	r1, r2
1000046a:	408d      	lsls	r5, r1
1000046c:	08d4      	lsrs	r4, r2, #3
1000046e:	1904      	adds	r4, r0, r4
10000470:	7826      	ldrb	r6, [r4, #0]
10000472:	4235      	tst	r5, r6
10000474:	d01f      	beq.n	100004b6 <hw_claim_unused_from_range+0x72>
10000476:	2107      	movs	r1, #7
10000478:	4689      	mov	r9, r1
1000047a:	3906      	subs	r1, #6
1000047c:	e009      	b.n	10000492 <hw_claim_unused_from_range+0x4e>
1000047e:	464d      	mov	r5, r9
10000480:	000f      	movs	r7, r1
10000482:	4015      	ands	r5, r2
10000484:	40af      	lsls	r7, r5
10000486:	08d4      	lsrs	r4, r2, #3
10000488:	1904      	adds	r4, r0, r4
1000048a:	7826      	ldrb	r6, [r4, #0]
1000048c:	003d      	movs	r5, r7
1000048e:	4237      	tst	r7, r6
10000490:	d011      	beq.n	100004b6 <hw_claim_unused_from_range+0x72>
10000492:	3201      	adds	r2, #1
10000494:	4293      	cmp	r3, r2
10000496:	d2f2      	bcs.n	1000047e <hw_claim_unused_from_range+0x3a>
10000498:	2001      	movs	r0, #1
1000049a:	4240      	negs	r0, r0
1000049c:	f3bf 8f5f 	dmb	sy
100004a0:	2200      	movs	r2, #0
100004a2:	4b0a      	ldr	r3, [pc, #40]	; (100004cc <hw_claim_unused_from_range+0x88>)
100004a4:	601a      	str	r2, [r3, #0]
100004a6:	f388 8810 	msr	PRIMASK, r8
100004aa:	2800      	cmp	r0, #0
100004ac:	db07      	blt.n	100004be <hw_claim_unused_from_range+0x7a>
100004ae:	bc0c      	pop	{r2, r3}
100004b0:	4690      	mov	r8, r2
100004b2:	4699      	mov	r9, r3
100004b4:	bdf8      	pop	{r3, r4, r5, r6, r7, pc}
100004b6:	4335      	orrs	r5, r6
100004b8:	7025      	strb	r5, [r4, #0]
100004ba:	0010      	movs	r0, r2
100004bc:	e7ee      	b.n	1000049c <hw_claim_unused_from_range+0x58>
100004be:	4663      	mov	r3, ip
100004c0:	2b00      	cmp	r3, #0
100004c2:	d0f4      	beq.n	100004ae <hw_claim_unused_from_range+0x6a>
100004c4:	9808      	ldr	r0, [sp, #32]
100004c6:	f001 ff1f 	bl	10002308 <panic>
100004ca:	46c0      	nop			; (mov r8, r8)
100004cc:	d000012c 	.word	0xd000012c

100004d0 <spin_locks_reset>:
100004d0:	2100      	movs	r1, #0
100004d2:	4b04      	ldr	r3, [pc, #16]	; (100004e4 <spin_locks_reset+0x14>)
100004d4:	4a04      	ldr	r2, [pc, #16]	; (100004e8 <spin_locks_reset+0x18>)
100004d6:	f3bf 8f5f 	dmb	sy
100004da:	c302      	stmia	r3!, {r1}
100004dc:	4293      	cmp	r3, r2
100004de:	d1fa      	bne.n	100004d6 <spin_locks_reset+0x6>
100004e0:	4770      	bx	lr
100004e2:	46c0      	nop			; (mov r8, r8)
100004e4:	d0000100 	.word	0xd0000100
100004e8:	d0000180 	.word	0xd0000180

100004ec <next_striped_spin_lock_num>:
100004ec:	4a04      	ldr	r2, [pc, #16]	; (10000500 <next_striped_spin_lock_num+0x14>)
100004ee:	7810      	ldrb	r0, [r2, #0]
100004f0:	1c43      	adds	r3, r0, #1
100004f2:	b2db      	uxtb	r3, r3
100004f4:	2b17      	cmp	r3, #23
100004f6:	d900      	bls.n	100004fa <next_striped_spin_lock_num+0xe>
100004f8:	2310      	movs	r3, #16
100004fa:	7013      	strb	r3, [r2, #0]
100004fc:	4770      	bx	lr
100004fe:	46c0      	nop			; (mov r8, r8)
10000500:	20000e28 	.word	0x20000e28

10000504 <spin_lock_claim_unused>:
10000504:	b500      	push	{lr}
10000506:	4b05      	ldr	r3, [pc, #20]	; (1000051c <spin_lock_claim_unused+0x18>)
10000508:	b083      	sub	sp, #12
1000050a:	0001      	movs	r1, r0
1000050c:	9300      	str	r3, [sp, #0]
1000050e:	2218      	movs	r2, #24
10000510:	231f      	movs	r3, #31
10000512:	4803      	ldr	r0, [pc, #12]	; (10000520 <spin_lock_claim_unused+0x1c>)
10000514:	f7ff ff96 	bl	10000444 <hw_claim_unused_from_range>
10000518:	b003      	add	sp, #12
1000051a:	bd00      	pop	{pc}
1000051c:	10005fdc 	.word	0x10005fdc
10000520:	20001d54 	.word	0x20001d54

10000524 <irq_set_enabled>:
10000524:	2301      	movs	r3, #1
10000526:	4083      	lsls	r3, r0
10000528:	2900      	cmp	r1, #0
1000052a:	d102      	bne.n	10000532 <irq_set_enabled+0xe>
1000052c:	4a03      	ldr	r2, [pc, #12]	; (1000053c <irq_set_enabled+0x18>)
1000052e:	6013      	str	r3, [r2, #0]
10000530:	4770      	bx	lr
10000532:	4a03      	ldr	r2, [pc, #12]	; (10000540 <irq_set_enabled+0x1c>)
10000534:	6013      	str	r3, [r2, #0]
10000536:	4a03      	ldr	r2, [pc, #12]	; (10000544 <irq_set_enabled+0x20>)
10000538:	6013      	str	r3, [r2, #0]
1000053a:	e7f9      	b.n	10000530 <irq_set_enabled+0xc>
1000053c:	e000e180 	.word	0xe000e180
10000540:	e000e280 	.word	0xe000e280
10000544:	e000e100 	.word	0xe000e100

10000548 <irq_set_pending>:
10000548:	2301      	movs	r3, #1
1000054a:	4083      	lsls	r3, r0
1000054c:	4a01      	ldr	r2, [pc, #4]	; (10000554 <irq_set_pending+0xc>)
1000054e:	6013      	str	r3, [r2, #0]
10000550:	4770      	bx	lr
10000552:	46c0      	nop			; (mov r8, r8)
10000554:	e000e200 	.word	0xe000e200

10000558 <irq_has_shared_handler>:
10000558:	4b08      	ldr	r3, [pc, #32]	; (1000057c <irq_has_shared_handler+0x24>)
1000055a:	3010      	adds	r0, #16
1000055c:	689b      	ldr	r3, [r3, #8]
1000055e:	0080      	lsls	r0, r0, #2
10000560:	58c3      	ldr	r3, [r0, r3]
10000562:	2b00      	cmp	r3, #0
10000564:	d007      	beq.n	10000576 <irq_has_shared_handler+0x1e>
10000566:	4a06      	ldr	r2, [pc, #24]	; (10000580 <irq_has_shared_handler+0x28>)
10000568:	2000      	movs	r0, #0
1000056a:	1a9b      	subs	r3, r3, r2
1000056c:	222f      	movs	r2, #47	; 0x2f
1000056e:	429a      	cmp	r2, r3
10000570:	4140      	adcs	r0, r0
10000572:	b2c0      	uxtb	r0, r0
10000574:	4770      	bx	lr
10000576:	2000      	movs	r0, #0
10000578:	e7fc      	b.n	10000574 <irq_has_shared_handler+0x1c>
1000057a:	46c0      	nop			; (mov r8, r8)
1000057c:	e000ed00 	.word	0xe000ed00
10000580:	20000e2c 	.word	0x20000e2c

10000584 <irq_get_vtable_handler>:
10000584:	4b02      	ldr	r3, [pc, #8]	; (10000590 <irq_get_vtable_handler+0xc>)
10000586:	3010      	adds	r0, #16
10000588:	689b      	ldr	r3, [r3, #8]
1000058a:	0080      	lsls	r0, r0, #2
1000058c:	58c0      	ldr	r0, [r0, r3]
1000058e:	4770      	bx	lr
10000590:	e000ed00 	.word	0xe000ed00

10000594 <irq_set_exclusive_handler>:
10000594:	b570      	push	{r4, r5, r6, lr}
10000596:	000d      	movs	r5, r1
10000598:	f3ef 8610 	mrs	r6, PRIMASK
1000059c:	b672      	cpsid	i
1000059e:	4a0f      	ldr	r2, [pc, #60]	; (100005dc <irq_set_exclusive_handler+0x48>)
100005a0:	6813      	ldr	r3, [r2, #0]
100005a2:	2b00      	cmp	r3, #0
100005a4:	d0fc      	beq.n	100005a0 <irq_set_exclusive_handler+0xc>
100005a6:	f3bf 8f5f 	dmb	sy
100005aa:	4b0d      	ldr	r3, [pc, #52]	; (100005e0 <irq_set_exclusive_handler+0x4c>)
100005ac:	3010      	adds	r0, #16
100005ae:	689b      	ldr	r3, [r3, #8]
100005b0:	0084      	lsls	r4, r0, #2
100005b2:	591b      	ldr	r3, [r3, r4]
100005b4:	4a0b      	ldr	r2, [pc, #44]	; (100005e4 <irq_set_exclusive_handler+0x50>)
100005b6:	4293      	cmp	r3, r2
100005b8:	d003      	beq.n	100005c2 <irq_set_exclusive_handler+0x2e>
100005ba:	429d      	cmp	r5, r3
100005bc:	d001      	beq.n	100005c2 <irq_set_exclusive_handler+0x2e>
100005be:	f001 febb 	bl	10002338 <hard_assertion_failure>
100005c2:	4b07      	ldr	r3, [pc, #28]	; (100005e0 <irq_set_exclusive_handler+0x4c>)
100005c4:	689b      	ldr	r3, [r3, #8]
100005c6:	511d      	str	r5, [r3, r4]
100005c8:	f3bf 8f5f 	dmb	sy
100005cc:	f3bf 8f5f 	dmb	sy
100005d0:	2200      	movs	r2, #0
100005d2:	4b02      	ldr	r3, [pc, #8]	; (100005dc <irq_set_exclusive_handler+0x48>)
100005d4:	601a      	str	r2, [r3, #0]
100005d6:	f386 8810 	msr	PRIMASK, r6
100005da:	bd70      	pop	{r4, r5, r6, pc}
100005dc:	d0000124 	.word	0xd0000124
100005e0:	e000ed00 	.word	0xe000ed00
100005e4:	100001cd 	.word	0x100001cd

100005e8 <irq_add_shared_handler>:
100005e8:	b5f0      	push	{r4, r5, r6, r7, lr}
100005ea:	4657      	mov	r7, sl
100005ec:	4645      	mov	r5, r8
100005ee:	46de      	mov	lr, fp
100005f0:	464e      	mov	r6, r9
100005f2:	b5e0      	push	{r5, r6, r7, lr}
100005f4:	4680      	mov	r8, r0
100005f6:	b083      	sub	sp, #12
100005f8:	468a      	mov	sl, r1
100005fa:	0017      	movs	r7, r2
100005fc:	f3ef 8910 	mrs	r9, PRIMASK
10000600:	b672      	cpsid	i
10000602:	4a60      	ldr	r2, [pc, #384]	; (10000784 <irq_add_shared_handler+0x19c>)
10000604:	6813      	ldr	r3, [r2, #0]
10000606:	2b00      	cmp	r3, #0
10000608:	d0fc      	beq.n	10000604 <irq_add_shared_handler+0x1c>
1000060a:	f3bf 8f5f 	dmb	sy
1000060e:	4b5e      	ldr	r3, [pc, #376]	; (10000788 <irq_add_shared_handler+0x1a0>)
10000610:	469b      	mov	fp, r3
10000612:	781b      	ldrb	r3, [r3, #0]
10000614:	b25b      	sxtb	r3, r3
10000616:	9301      	str	r3, [sp, #4]
10000618:	2b00      	cmp	r3, #0
1000061a:	da00      	bge.n	1000061e <irq_add_shared_handler+0x36>
1000061c:	e0aa      	b.n	10000774 <irq_add_shared_handler+0x18c>
1000061e:	469c      	mov	ip, r3
10000620:	465a      	mov	r2, fp
10000622:	005c      	lsls	r4, r3, #1
10000624:	4d59      	ldr	r5, [pc, #356]	; (1000078c <irq_add_shared_handler+0x1a4>)
10000626:	4464      	add	r4, ip
10000628:	00a4      	lsls	r4, r4, #2
1000062a:	192e      	adds	r6, r5, r4
1000062c:	79b3      	ldrb	r3, [r6, #6]
1000062e:	7013      	strb	r3, [r2, #0]
10000630:	4b57      	ldr	r3, [pc, #348]	; (10000790 <irq_add_shared_handler+0x1a8>)
10000632:	689a      	ldr	r2, [r3, #8]
10000634:	4643      	mov	r3, r8
10000636:	3310      	adds	r3, #16
10000638:	009b      	lsls	r3, r3, #2
1000063a:	58d1      	ldr	r1, [r2, r3]
1000063c:	4698      	mov	r8, r3
1000063e:	1b4b      	subs	r3, r1, r5
10000640:	2b2f      	cmp	r3, #47	; 0x2f
10000642:	d92d      	bls.n	100006a0 <irq_add_shared_handler+0xb8>
10000644:	4b53      	ldr	r3, [pc, #332]	; (10000794 <irq_add_shared_handler+0x1ac>)
10000646:	4299      	cmp	r1, r3
10000648:	d001      	beq.n	1000064e <irq_add_shared_handler+0x66>
1000064a:	f001 fe75 	bl	10002338 <hard_assertion_failure>
1000064e:	4b52      	ldr	r3, [pc, #328]	; (10000798 <irq_add_shared_handler+0x1b0>)
10000650:	3402      	adds	r4, #2
10000652:	8033      	strh	r3, [r6, #0]
10000654:	4b51      	ldr	r3, [pc, #324]	; (1000079c <irq_add_shared_handler+0x1b4>)
10000656:	192d      	adds	r5, r5, r4
10000658:	3b04      	subs	r3, #4
1000065a:	1b5d      	subs	r5, r3, r5
1000065c:	052d      	lsls	r5, r5, #20
1000065e:	4b50      	ldr	r3, [pc, #320]	; (100007a0 <irq_add_shared_handler+0x1b8>)
10000660:	0d6d      	lsrs	r5, r5, #21
10000662:	431d      	orrs	r5, r3
10000664:	4b4f      	ldr	r3, [pc, #316]	; (100007a4 <irq_add_shared_handler+0x1bc>)
10000666:	2101      	movs	r1, #1
10000668:	80b3      	strh	r3, [r6, #4]
1000066a:	23ff      	movs	r3, #255	; 0xff
1000066c:	71b3      	strb	r3, [r6, #6]
1000066e:	4653      	mov	r3, sl
10000670:	8075      	strh	r5, [r6, #2]
10000672:	71f7      	strb	r7, [r6, #7]
10000674:	60b3      	str	r3, [r6, #8]
10000676:	4331      	orrs	r1, r6
10000678:	4642      	mov	r2, r8
1000067a:	4b45      	ldr	r3, [pc, #276]	; (10000790 <irq_add_shared_handler+0x1a8>)
1000067c:	689b      	ldr	r3, [r3, #8]
1000067e:	5099      	str	r1, [r3, r2]
10000680:	f3bf 8f5f 	dmb	sy
10000684:	f3bf 8f5f 	dmb	sy
10000688:	2200      	movs	r2, #0
1000068a:	4b3e      	ldr	r3, [pc, #248]	; (10000784 <irq_add_shared_handler+0x19c>)
1000068c:	601a      	str	r2, [r3, #0]
1000068e:	f389 8810 	msr	PRIMASK, r9
10000692:	b003      	add	sp, #12
10000694:	bc3c      	pop	{r2, r3, r4, r5}
10000696:	4690      	mov	r8, r2
10000698:	4699      	mov	r9, r3
1000069a:	46a2      	mov	sl, r4
1000069c:	46ab      	mov	fp, r5
1000069e:	bdf0      	pop	{r4, r5, r6, r7, pc}
100006a0:	2301      	movs	r3, #1
100006a2:	000a      	movs	r2, r1
100006a4:	439a      	bics	r2, r3
100006a6:	79d3      	ldrb	r3, [r2, #7]
100006a8:	4694      	mov	ip, r2
100006aa:	42bb      	cmp	r3, r7
100006ac:	d93d      	bls.n	1000072a <irq_add_shared_handler+0x142>
100006ae:	2006      	movs	r0, #6
100006b0:	5610      	ldrsb	r0, [r2, r0]
100006b2:	2800      	cmp	r0, #0
100006b4:	da05      	bge.n	100006c2 <irq_add_shared_handler+0xda>
100006b6:	e020      	b.n	100006fa <irq_add_shared_handler+0x112>
100006b8:	2006      	movs	r0, #6
100006ba:	5618      	ldrsb	r0, [r3, r0]
100006bc:	001a      	movs	r2, r3
100006be:	2800      	cmp	r0, #0
100006c0:	db1b      	blt.n	100006fa <irq_add_shared_handler+0x112>
100006c2:	0043      	lsls	r3, r0, #1
100006c4:	181b      	adds	r3, r3, r0
100006c6:	009b      	lsls	r3, r3, #2
100006c8:	18eb      	adds	r3, r5, r3
100006ca:	79d8      	ldrb	r0, [r3, #7]
100006cc:	42b8      	cmp	r0, r7
100006ce:	d8f3      	bhi.n	100006b8 <irq_add_shared_handler+0xd0>
100006d0:	2a00      	cmp	r2, #0
100006d2:	d02a      	beq.n	1000072a <irq_add_shared_handler+0x142>
100006d4:	2006      	movs	r0, #6
100006d6:	5610      	ldrsb	r0, [r2, r0]
100006d8:	1d13      	adds	r3, r2, #4
100006da:	469c      	mov	ip, r3
100006dc:	2800      	cmp	r0, #0
100006de:	db0e      	blt.n	100006fe <irq_add_shared_handler+0x116>
100006e0:	3404      	adds	r4, #4
100006e2:	192d      	adds	r5, r5, r4
100006e4:	24e0      	movs	r4, #224	; 0xe0
100006e6:	8893      	ldrh	r3, [r2, #4]
100006e8:	0224      	lsls	r4, r4, #8
100006ea:	055b      	lsls	r3, r3, #21
100006ec:	151b      	asrs	r3, r3, #20
100006ee:	4463      	add	r3, ip
100006f0:	1b5b      	subs	r3, r3, r5
100006f2:	051b      	lsls	r3, r3, #20
100006f4:	0d5b      	lsrs	r3, r3, #21
100006f6:	4323      	orrs	r3, r4
100006f8:	e002      	b.n	10000700 <irq_add_shared_handler+0x118>
100006fa:	1d13      	adds	r3, r2, #4
100006fc:	469c      	mov	ip, r3
100006fe:	4b2a      	ldr	r3, [pc, #168]	; (100007a8 <irq_add_shared_handler+0x1c0>)
10000700:	4665      	mov	r5, ip
10000702:	1f34      	subs	r4, r6, #4
10000704:	1b64      	subs	r4, r4, r5
10000706:	0524      	lsls	r4, r4, #20
10000708:	4d25      	ldr	r5, [pc, #148]	; (100007a0 <irq_add_shared_handler+0x1b8>)
1000070a:	0d64      	lsrs	r4, r4, #21
1000070c:	432c      	orrs	r4, r5
1000070e:	8094      	strh	r4, [r2, #4]
10000710:	466c      	mov	r4, sp
10000712:	7924      	ldrb	r4, [r4, #4]
10000714:	7194      	strb	r4, [r2, #6]
10000716:	80b3      	strh	r3, [r6, #4]
10000718:	4653      	mov	r3, sl
1000071a:	4a24      	ldr	r2, [pc, #144]	; (100007ac <irq_add_shared_handler+0x1c4>)
1000071c:	71b0      	strb	r0, [r6, #6]
1000071e:	8032      	strh	r2, [r6, #0]
10000720:	3a81      	subs	r2, #129	; 0x81
10000722:	8072      	strh	r2, [r6, #2]
10000724:	71f7      	strb	r7, [r6, #7]
10000726:	60b3      	str	r3, [r6, #8]
10000728:	e7a6      	b.n	10000678 <irq_add_shared_handler+0x90>
1000072a:	4a21      	ldr	r2, [pc, #132]	; (100007b0 <irq_add_shared_handler+0x1c8>)
1000072c:	4663      	mov	r3, ip
1000072e:	1b5b      	subs	r3, r3, r5
10000730:	415b      	adcs	r3, r3
10000732:	435a      	muls	r2, r3
10000734:	0d12      	lsrs	r2, r2, #20
10000736:	4b18      	ldr	r3, [pc, #96]	; (10000798 <irq_add_shared_handler+0x1b0>)
10000738:	1ca1      	adds	r1, r4, #2
1000073a:	8033      	strh	r3, [r6, #0]
1000073c:	4b17      	ldr	r3, [pc, #92]	; (1000079c <irq_add_shared_handler+0x1b4>)
1000073e:	1869      	adds	r1, r5, r1
10000740:	3b04      	subs	r3, #4
10000742:	1a5b      	subs	r3, r3, r1
10000744:	051b      	lsls	r3, r3, #20
10000746:	4916      	ldr	r1, [pc, #88]	; (100007a0 <irq_add_shared_handler+0x1b8>)
10000748:	0d5b      	lsrs	r3, r3, #21
1000074a:	430b      	orrs	r3, r1
1000074c:	8073      	strh	r3, [r6, #2]
1000074e:	4663      	mov	r3, ip
10000750:	3404      	adds	r4, #4
10000752:	3b04      	subs	r3, #4
10000754:	192d      	adds	r5, r5, r4
10000756:	1b5d      	subs	r5, r3, r5
10000758:	052d      	lsls	r5, r5, #20
1000075a:	4653      	mov	r3, sl
1000075c:	0d6d      	lsrs	r5, r5, #21
1000075e:	4329      	orrs	r1, r5
10000760:	80b1      	strh	r1, [r6, #4]
10000762:	71b2      	strb	r2, [r6, #6]
10000764:	2101      	movs	r1, #1
10000766:	4662      	mov	r2, ip
10000768:	60b3      	str	r3, [r6, #8]
1000076a:	4b12      	ldr	r3, [pc, #72]	; (100007b4 <irq_add_shared_handler+0x1cc>)
1000076c:	71f7      	strb	r7, [r6, #7]
1000076e:	4331      	orrs	r1, r6
10000770:	6013      	str	r3, [r2, #0]
10000772:	e781      	b.n	10000678 <irq_add_shared_handler+0x90>
10000774:	f001 fde0 	bl	10002338 <hard_assertion_failure>
10000778:	465b      	mov	r3, fp
1000077a:	781b      	ldrb	r3, [r3, #0]
1000077c:	b25b      	sxtb	r3, r3
1000077e:	9301      	str	r3, [sp, #4]
10000780:	e74d      	b.n	1000061e <irq_add_shared_handler+0x36>
10000782:	46c0      	nop			; (mov r8, r8)
10000784:	d0000124 	.word	0xd0000124
10000788:	20002259 	.word	0x20002259
1000078c:	20000e2c 	.word	0x20000e2c
10000790:	e000ed00 	.word	0xe000ed00
10000794:	100001cd 	.word	0x100001cd
10000798:	ffffa100 	.word	0xffffa100
1000079c:	20000e5c 	.word	0x20000e5c
100007a0:	ffffe000 	.word	0xffffe000
100007a4:	ffffbd01 	.word	0xffffbd01
100007a8:	0000bd01 	.word	0x0000bd01
100007ac:	00004801 	.word	0x00004801
100007b0:	0000aaaa 	.word	0x0000aaaa
100007b4:	47804801 	.word	0x47804801

100007b8 <irq_remove_handler>:
100007b8:	b5f0      	push	{r4, r5, r6, r7, lr}
100007ba:	46de      	mov	lr, fp
100007bc:	4657      	mov	r7, sl
100007be:	464e      	mov	r6, r9
100007c0:	4645      	mov	r5, r8
100007c2:	b5e0      	push	{r5, r6, r7, lr}
100007c4:	000c      	movs	r4, r1
100007c6:	b083      	sub	sp, #12
100007c8:	f3ef 8a10 	mrs	sl, PRIMASK
100007cc:	b672      	cpsid	i
100007ce:	4a58      	ldr	r2, [pc, #352]	; (10000930 <irq_remove_handler+0x178>)
100007d0:	6813      	ldr	r3, [r2, #0]
100007d2:	2b00      	cmp	r3, #0
100007d4:	d0fc      	beq.n	100007d0 <irq_remove_handler+0x18>
100007d6:	f3bf 8f5f 	dmb	sy
100007da:	0002      	movs	r2, r0
100007dc:	4b55      	ldr	r3, [pc, #340]	; (10000934 <irq_remove_handler+0x17c>)
100007de:	3210      	adds	r2, #16
100007e0:	689b      	ldr	r3, [r3, #8]
100007e2:	0091      	lsls	r1, r2, #2
100007e4:	585e      	ldr	r6, [r3, r1]
100007e6:	4b54      	ldr	r3, [pc, #336]	; (10000938 <irq_remove_handler+0x180>)
100007e8:	4688      	mov	r8, r1
100007ea:	4699      	mov	r9, r3
100007ec:	429e      	cmp	r6, r3
100007ee:	d05c      	beq.n	100008aa <irq_remove_handler+0xf2>
100007f0:	42a6      	cmp	r6, r4
100007f2:	d100      	bne.n	100007f6 <irq_remove_handler+0x3e>
100007f4:	e072      	b.n	100008dc <irq_remove_handler+0x124>
100007f6:	4d51      	ldr	r5, [pc, #324]	; (1000093c <irq_remove_handler+0x184>)
100007f8:	1b73      	subs	r3, r6, r5
100007fa:	2b2f      	cmp	r3, #47	; 0x2f
100007fc:	d855      	bhi.n	100008aa <irq_remove_handler+0xf2>
100007fe:	2701      	movs	r7, #1
10000800:	4087      	lsls	r7, r0
10000802:	4b4f      	ldr	r3, [pc, #316]	; (10000940 <irq_remove_handler+0x188>)
10000804:	681b      	ldr	r3, [r3, #0]
10000806:	403b      	ands	r3, r7
10000808:	9301      	str	r3, [sp, #4]
1000080a:	4b4e      	ldr	r3, [pc, #312]	; (10000944 <irq_remove_handler+0x18c>)
1000080c:	601f      	str	r7, [r3, #0]
1000080e:	f3bf 8f5f 	dmb	sy
10000812:	f3ef 8305 	mrs	r3, IPSR
10000816:	469b      	mov	fp, r3
10000818:	2b00      	cmp	r3, #0
1000081a:	d003      	beq.n	10000824 <irq_remove_handler+0x6c>
1000081c:	429a      	cmp	r2, r3
1000081e:	d001      	beq.n	10000824 <irq_remove_handler+0x6c>
10000820:	f001 fd8a 	bl	10002338 <hard_assertion_failure>
10000824:	2301      	movs	r3, #1
10000826:	0032      	movs	r2, r6
10000828:	439a      	bics	r2, r3
1000082a:	6893      	ldr	r3, [r2, #8]
1000082c:	429c      	cmp	r4, r3
1000082e:	d100      	bne.n	10000832 <irq_remove_handler+0x7a>
10000830:	e06b      	b.n	1000090a <irq_remove_handler+0x152>
10000832:	2106      	movs	r1, #6
10000834:	5651      	ldrsb	r1, [r2, r1]
10000836:	2900      	cmp	r1, #0
10000838:	da05      	bge.n	10000846 <irq_remove_handler+0x8e>
1000083a:	e031      	b.n	100008a0 <irq_remove_handler+0xe8>
1000083c:	2106      	movs	r1, #6
1000083e:	5659      	ldrsb	r1, [r3, r1]
10000840:	001a      	movs	r2, r3
10000842:	2900      	cmp	r1, #0
10000844:	db2c      	blt.n	100008a0 <irq_remove_handler+0xe8>
10000846:	004b      	lsls	r3, r1, #1
10000848:	185b      	adds	r3, r3, r1
1000084a:	009b      	lsls	r3, r3, #2
1000084c:	18eb      	adds	r3, r5, r3
1000084e:	6899      	ldr	r1, [r3, #8]
10000850:	428c      	cmp	r4, r1
10000852:	d1f3      	bne.n	1000083c <irq_remove_handler+0x84>
10000854:	2106      	movs	r1, #6
10000856:	5659      	ldrsb	r1, [r3, r1]
10000858:	2900      	cmp	r1, #0
1000085a:	db41      	blt.n	100008e0 <irq_remove_handler+0x128>
1000085c:	004a      	lsls	r2, r1, #1
1000085e:	1850      	adds	r0, r2, r1
10000860:	0080      	lsls	r0, r0, #2
10000862:	182c      	adds	r4, r5, r0
10000864:	4681      	mov	r9, r0
10000866:	68a0      	ldr	r0, [r4, #8]
10000868:	6098      	str	r0, [r3, #8]
1000086a:	79e0      	ldrb	r0, [r4, #7]
1000086c:	71d8      	strb	r0, [r3, #7]
1000086e:	2006      	movs	r0, #6
10000870:	5620      	ldrsb	r0, [r4, r0]
10000872:	7198      	strb	r0, [r3, #6]
10000874:	79a0      	ldrb	r0, [r4, #6]
10000876:	287f      	cmp	r0, #127	; 0x7f
10000878:	d845      	bhi.n	10000906 <irq_remove_handler+0x14e>
1000087a:	88a4      	ldrh	r4, [r4, #4]
1000087c:	1ae8      	subs	r0, r5, r3
1000087e:	0564      	lsls	r4, r4, #21
10000880:	1524      	asrs	r4, r4, #20
10000882:	444c      	add	r4, r9
10000884:	1900      	adds	r0, r0, r4
10000886:	24e0      	movs	r4, #224	; 0xe0
10000888:	0500      	lsls	r0, r0, #20
1000088a:	0d40      	lsrs	r0, r0, #21
1000088c:	0224      	lsls	r4, r4, #8
1000088e:	4320      	orrs	r0, r4
10000890:	8098      	strh	r0, [r3, #4]
10000892:	1852      	adds	r2, r2, r1
10000894:	4b2c      	ldr	r3, [pc, #176]	; (10000948 <irq_remove_handler+0x190>)
10000896:	0092      	lsls	r2, r2, #2
10000898:	18ad      	adds	r5, r5, r2
1000089a:	781a      	ldrb	r2, [r3, #0]
1000089c:	7019      	strb	r1, [r3, #0]
1000089e:	71aa      	strb	r2, [r5, #6]
100008a0:	9b01      	ldr	r3, [sp, #4]
100008a2:	2b00      	cmp	r3, #0
100008a4:	d115      	bne.n	100008d2 <irq_remove_handler+0x11a>
100008a6:	4b27      	ldr	r3, [pc, #156]	; (10000944 <irq_remove_handler+0x18c>)
100008a8:	601f      	str	r7, [r3, #0]
100008aa:	4642      	mov	r2, r8
100008ac:	4b21      	ldr	r3, [pc, #132]	; (10000934 <irq_remove_handler+0x17c>)
100008ae:	689b      	ldr	r3, [r3, #8]
100008b0:	509e      	str	r6, [r3, r2]
100008b2:	f3bf 8f5f 	dmb	sy
100008b6:	f3bf 8f5f 	dmb	sy
100008ba:	2200      	movs	r2, #0
100008bc:	4b1c      	ldr	r3, [pc, #112]	; (10000930 <irq_remove_handler+0x178>)
100008be:	601a      	str	r2, [r3, #0]
100008c0:	f38a 8810 	msr	PRIMASK, sl
100008c4:	b003      	add	sp, #12
100008c6:	bc3c      	pop	{r2, r3, r4, r5}
100008c8:	4690      	mov	r8, r2
100008ca:	4699      	mov	r9, r3
100008cc:	46a2      	mov	sl, r4
100008ce:	46ab      	mov	fp, r5
100008d0:	bdf0      	pop	{r4, r5, r6, r7, pc}
100008d2:	4b1e      	ldr	r3, [pc, #120]	; (1000094c <irq_remove_handler+0x194>)
100008d4:	601f      	str	r7, [r3, #0]
100008d6:	4b1a      	ldr	r3, [pc, #104]	; (10000940 <irq_remove_handler+0x188>)
100008d8:	601f      	str	r7, [r3, #0]
100008da:	e7e6      	b.n	100008aa <irq_remove_handler+0xf2>
100008dc:	001e      	movs	r6, r3
100008de:	e7e4      	b.n	100008aa <irq_remove_handler+0xf2>
100008e0:	4659      	mov	r1, fp
100008e2:	2900      	cmp	r1, #0
100008e4:	d114      	bne.n	10000910 <irq_remove_handler+0x158>
100008e6:	2a00      	cmp	r2, #0
100008e8:	d01f      	beq.n	1000092a <irq_remove_handler+0x172>
100008ea:	31ff      	adds	r1, #255	; 0xff
100008ec:	7191      	strb	r1, [r2, #6]
100008ee:	4918      	ldr	r1, [pc, #96]	; (10000950 <irq_remove_handler+0x198>)
100008f0:	8091      	strh	r1, [r2, #4]
100008f2:	4915      	ldr	r1, [pc, #84]	; (10000948 <irq_remove_handler+0x190>)
100008f4:	780a      	ldrb	r2, [r1, #0]
100008f6:	719a      	strb	r2, [r3, #6]
100008f8:	4a16      	ldr	r2, [pc, #88]	; (10000954 <irq_remove_handler+0x19c>)
100008fa:	1b5b      	subs	r3, r3, r5
100008fc:	415b      	adcs	r3, r3
100008fe:	435a      	muls	r2, r3
10000900:	0d12      	lsrs	r2, r2, #20
10000902:	700a      	strb	r2, [r1, #0]
10000904:	e7cc      	b.n	100008a0 <irq_remove_handler+0xe8>
10000906:	4814      	ldr	r0, [pc, #80]	; (10000958 <irq_remove_handler+0x1a0>)
10000908:	e7c2      	b.n	10000890 <irq_remove_handler+0xd8>
1000090a:	0013      	movs	r3, r2
1000090c:	2200      	movs	r2, #0
1000090e:	e7a1      	b.n	10000854 <irq_remove_handler+0x9c>
10000910:	4a12      	ldr	r2, [pc, #72]	; (1000095c <irq_remove_handler+0x1a4>)
10000912:	4913      	ldr	r1, [pc, #76]	; (10000960 <irq_remove_handler+0x1a8>)
10000914:	1ad2      	subs	r2, r2, r3
10000916:	3a08      	subs	r2, #8
10000918:	0250      	lsls	r0, r2, #9
1000091a:	0d40      	lsrs	r0, r0, #21
1000091c:	4301      	orrs	r1, r0
1000091e:	8099      	strh	r1, [r3, #4]
10000920:	4910      	ldr	r1, [pc, #64]	; (10000964 <irq_remove_handler+0x1ac>)
10000922:	0852      	lsrs	r2, r2, #1
10000924:	430a      	orrs	r2, r1
10000926:	80da      	strh	r2, [r3, #6]
10000928:	e7ba      	b.n	100008a0 <irq_remove_handler+0xe8>
1000092a:	464e      	mov	r6, r9
1000092c:	e7e1      	b.n	100008f2 <irq_remove_handler+0x13a>
1000092e:	46c0      	nop			; (mov r8, r8)
10000930:	d0000124 	.word	0xd0000124
10000934:	e000ed00 	.word	0xe000ed00
10000938:	100001cd 	.word	0x100001cd
1000093c:	20000e2c 	.word	0x20000e2c
10000940:	e000e100 	.word	0xe000e100
10000944:	e000e180 	.word	0xe000e180
10000948:	20002259 	.word	0x20002259
1000094c:	e000e280 	.word	0xe000e280
10000950:	ffffbd01 	.word	0xffffbd01
10000954:	0000aaaa 	.word	0x0000aaaa
10000958:	0000bd01 	.word	0x0000bd01
1000095c:	20000e66 	.word	0x20000e66
10000960:	fffff000 	.word	0xfffff000
10000964:	fffff800 	.word	0xfffff800

10000968 <irq_add_tail_to_free_list>:
10000968:	b5f0      	push	{r4, r5, r6, r7, lr}
1000096a:	f3ef 8105 	mrs	r1, IPSR
1000096e:	2401      	movs	r4, #1
10000970:	4304      	orrs	r4, r0
10000972:	f3ef 8610 	mrs	r6, PRIMASK
10000976:	b672      	cpsid	i
10000978:	4a21      	ldr	r2, [pc, #132]	; (10000a00 <irq_add_tail_to_free_list+0x98>)
1000097a:	6813      	ldr	r3, [r2, #0]
1000097c:	2b00      	cmp	r3, #0
1000097e:	d0fc      	beq.n	1000097a <irq_add_tail_to_free_list+0x12>
10000980:	f3bf 8f5f 	dmb	sy
10000984:	4a1f      	ldr	r2, [pc, #124]	; (10000a04 <irq_add_tail_to_free_list+0x9c>)
10000986:	4b20      	ldr	r3, [pc, #128]	; (10000a08 <irq_add_tail_to_free_list+0xa0>)
10000988:	0005      	movs	r5, r0
1000098a:	1aad      	subs	r5, r5, r2
1000098c:	416d      	adcs	r5, r5
1000098e:	436b      	muls	r3, r5
10000990:	0d1b      	lsrs	r3, r3, #20
10000992:	4d1e      	ldr	r5, [pc, #120]	; (10000a0c <irq_add_tail_to_free_list+0xa4>)
10000994:	0089      	lsls	r1, r1, #2
10000996:	68af      	ldr	r7, [r5, #8]
10000998:	b25b      	sxtb	r3, r3
1000099a:	587f      	ldr	r7, [r7, r1]
1000099c:	42bc      	cmp	r4, r7
1000099e:	d026      	beq.n	100009ee <irq_add_tail_to_free_list+0x86>
100009a0:	2106      	movs	r1, #6
100009a2:	5651      	ldrsb	r1, [r2, r1]
100009a4:	4299      	cmp	r1, r3
100009a6:	d026      	beq.n	100009f6 <irq_add_tail_to_free_list+0x8e>
100009a8:	2112      	movs	r1, #18
100009aa:	5651      	ldrsb	r1, [r2, r1]
100009ac:	4299      	cmp	r1, r3
100009ae:	d024      	beq.n	100009fa <irq_add_tail_to_free_list+0x92>
100009b0:	211e      	movs	r1, #30
100009b2:	5651      	ldrsb	r1, [r2, r1]
100009b4:	4299      	cmp	r1, r3
100009b6:	d010      	beq.n	100009da <irq_add_tail_to_free_list+0x72>
100009b8:	212a      	movs	r1, #42	; 0x2a
100009ba:	5651      	ldrsb	r1, [r2, r1]
100009bc:	2403      	movs	r4, #3
100009be:	4299      	cmp	r1, r3
100009c0:	d00c      	beq.n	100009dc <irq_add_tail_to_free_list+0x74>
100009c2:	4a13      	ldr	r2, [pc, #76]	; (10000a10 <irq_add_tail_to_free_list+0xa8>)
100009c4:	7811      	ldrb	r1, [r2, #0]
100009c6:	7013      	strb	r3, [r2, #0]
100009c8:	7181      	strb	r1, [r0, #6]
100009ca:	f3bf 8f5f 	dmb	sy
100009ce:	2200      	movs	r2, #0
100009d0:	4b0b      	ldr	r3, [pc, #44]	; (10000a00 <irq_add_tail_to_free_list+0x98>)
100009d2:	601a      	str	r2, [r3, #0]
100009d4:	f386 8810 	msr	PRIMASK, r6
100009d8:	bdf0      	pop	{r4, r5, r6, r7, pc}
100009da:	2402      	movs	r4, #2
100009dc:	0061      	lsls	r1, r4, #1
100009de:	1909      	adds	r1, r1, r4
100009e0:	0089      	lsls	r1, r1, #2
100009e2:	1852      	adds	r2, r2, r1
100009e4:	21ff      	movs	r1, #255	; 0xff
100009e6:	7191      	strb	r1, [r2, #6]
100009e8:	490a      	ldr	r1, [pc, #40]	; (10000a14 <irq_add_tail_to_free_list+0xac>)
100009ea:	8091      	strh	r1, [r2, #4]
100009ec:	e7e9      	b.n	100009c2 <irq_add_tail_to_free_list+0x5a>
100009ee:	68aa      	ldr	r2, [r5, #8]
100009f0:	4c09      	ldr	r4, [pc, #36]	; (10000a18 <irq_add_tail_to_free_list+0xb0>)
100009f2:	5054      	str	r4, [r2, r1]
100009f4:	e7e5      	b.n	100009c2 <irq_add_tail_to_free_list+0x5a>
100009f6:	2400      	movs	r4, #0
100009f8:	e7f0      	b.n	100009dc <irq_add_tail_to_free_list+0x74>
100009fa:	2401      	movs	r4, #1
100009fc:	e7ee      	b.n	100009dc <irq_add_tail_to_free_list+0x74>
100009fe:	46c0      	nop			; (mov r8, r8)
10000a00:	d0000124 	.word	0xd0000124
10000a04:	20000e2c 	.word	0x20000e2c
10000a08:	0000aaaa 	.word	0x0000aaaa
10000a0c:	e000ed00 	.word	0xe000ed00
10000a10:	20002259 	.word	0x20002259
10000a14:	ffffbd01 	.word	0xffffbd01
10000a18:	100001cd 	.word	0x100001cd

10000a1c <irq_init_priorities>:
10000a1c:	4b08      	ldr	r3, [pc, #32]	; (10000a40 <irq_init_priorities+0x24>)
10000a1e:	4a09      	ldr	r2, [pc, #36]	; (10000a44 <irq_init_priorities+0x28>)
10000a20:	6013      	str	r3, [r2, #0]
10000a22:	4a09      	ldr	r2, [pc, #36]	; (10000a48 <irq_init_priorities+0x2c>)
10000a24:	6013      	str	r3, [r2, #0]
10000a26:	4a09      	ldr	r2, [pc, #36]	; (10000a4c <irq_init_priorities+0x30>)
10000a28:	6013      	str	r3, [r2, #0]
10000a2a:	4a09      	ldr	r2, [pc, #36]	; (10000a50 <irq_init_priorities+0x34>)
10000a2c:	6013      	str	r3, [r2, #0]
10000a2e:	4a09      	ldr	r2, [pc, #36]	; (10000a54 <irq_init_priorities+0x38>)
10000a30:	6013      	str	r3, [r2, #0]
10000a32:	4a09      	ldr	r2, [pc, #36]	; (10000a58 <irq_init_priorities+0x3c>)
10000a34:	6013      	str	r3, [r2, #0]
10000a36:	4a09      	ldr	r2, [pc, #36]	; (10000a5c <irq_init_priorities+0x40>)
10000a38:	6013      	str	r3, [r2, #0]
10000a3a:	4a09      	ldr	r2, [pc, #36]	; (10000a60 <irq_init_priorities+0x44>)
10000a3c:	6013      	str	r3, [r2, #0]
10000a3e:	4770      	bx	lr
10000a40:	80808080 	.word	0x80808080
10000a44:	e000e400 	.word	0xe000e400
10000a48:	e000e404 	.word	0xe000e404
10000a4c:	e000e408 	.word	0xe000e408
10000a50:	e000e40c 	.word	0xe000e40c
10000a54:	e000e410 	.word	0xe000e410
10000a58:	e000e414 	.word	0xe000e414
10000a5c:	e000e418 	.word	0xe000e418
10000a60:	e000e41c 	.word	0xe000e41c

10000a64 <user_irq_claim_unused>:
10000a64:	b500      	push	{lr}
10000a66:	4b07      	ldr	r3, [pc, #28]	; (10000a84 <user_irq_claim_unused+0x20>)
10000a68:	b083      	sub	sp, #12
10000a6a:	0001      	movs	r1, r0
10000a6c:	9300      	str	r3, [sp, #0]
10000a6e:	2200      	movs	r2, #0
10000a70:	2305      	movs	r3, #5
10000a72:	4805      	ldr	r0, [pc, #20]	; (10000a88 <user_irq_claim_unused+0x24>)
10000a74:	f7ff fce6 	bl	10000444 <hw_claim_unused_from_range>
10000a78:	2800      	cmp	r0, #0
10000a7a:	db01      	blt.n	10000a80 <user_irq_claim_unused+0x1c>
10000a7c:	231f      	movs	r3, #31
10000a7e:	1a18      	subs	r0, r3, r0
10000a80:	b003      	add	sp, #12
10000a82:	bd00      	pop	{pc}
10000a84:	10005ff8 	.word	0x10005ff8
10000a88:	2000225e 	.word	0x2000225e

10000a8c <lock_init>:
10000a8c:	4b02      	ldr	r3, [pc, #8]	; (10000a98 <lock_init+0xc>)
10000a8e:	469c      	mov	ip, r3
10000a90:	4461      	add	r1, ip
10000a92:	0089      	lsls	r1, r1, #2
10000a94:	6001      	str	r1, [r0, #0]
10000a96:	4770      	bx	lr
10000a98:	34000040 	.word	0x34000040

10000a9c <mutex_init>:
10000a9c:	b510      	push	{r4, lr}
10000a9e:	0004      	movs	r4, r0
10000aa0:	f7ff fd24 	bl	100004ec <next_striped_spin_lock_num>
10000aa4:	0001      	movs	r1, r0
10000aa6:	0020      	movs	r0, r4
10000aa8:	f7ff fff0 	bl	10000a8c <lock_init>
10000aac:	23ff      	movs	r3, #255	; 0xff
10000aae:	7123      	strb	r3, [r4, #4]
10000ab0:	f3bf 8f5f 	dmb	sy
10000ab4:	bd10      	pop	{r4, pc}
10000ab6:	46c0      	nop			; (mov r8, r8)

10000ab8 <recursive_mutex_init>:
10000ab8:	b510      	push	{r4, lr}
10000aba:	0004      	movs	r4, r0
10000abc:	f7ff fd16 	bl	100004ec <next_striped_spin_lock_num>
10000ac0:	0001      	movs	r1, r0
10000ac2:	0020      	movs	r0, r4
10000ac4:	f7ff ffe2 	bl	10000a8c <lock_init>
10000ac8:	23ff      	movs	r3, #255	; 0xff
10000aca:	7123      	strb	r3, [r4, #4]
10000acc:	2300      	movs	r3, #0
10000ace:	7163      	strb	r3, [r4, #5]
10000ad0:	f3bf 8f5f 	dmb	sy
10000ad4:	bd10      	pop	{r4, pc}
10000ad6:	46c0      	nop			; (mov r8, r8)

10000ad8 <critical_section_init>:
10000ad8:	b510      	push	{r4, lr}
10000ada:	0004      	movs	r4, r0
10000adc:	2001      	movs	r0, #1
10000ade:	f7ff fd11 	bl	10000504 <spin_lock_claim_unused>
10000ae2:	4b04      	ldr	r3, [pc, #16]	; (10000af4 <critical_section_init+0x1c>)
10000ae4:	469c      	mov	ip, r3
10000ae6:	4460      	add	r0, ip
10000ae8:	0080      	lsls	r0, r0, #2
10000aea:	6020      	str	r0, [r4, #0]
10000aec:	f3bf 8f5f 	dmb	sy
10000af0:	bd10      	pop	{r4, pc}
10000af2:	46c0      	nop			; (mov r8, r8)
10000af4:	34000040 	.word	0x34000040

10000af8 <critical_section_init_with_lock_num>:
10000af8:	4b03      	ldr	r3, [pc, #12]	; (10000b08 <critical_section_init_with_lock_num+0x10>)
10000afa:	469c      	mov	ip, r3
10000afc:	4461      	add	r1, ip
10000afe:	0089      	lsls	r1, r1, #2
10000b00:	6001      	str	r1, [r0, #0]
10000b02:	f3bf 8f5f 	dmb	sy
10000b06:	4770      	bx	lr
10000b08:	34000040 	.word	0x34000040

10000b0c <timer_pool_entry_comparator>:
10000b0c:	6883      	ldr	r3, [r0, #8]
10000b0e:	480b      	ldr	r0, [pc, #44]	; (10000b3c <timer_pool_entry_comparator+0x30>)
10000b10:	b510      	push	{r4, lr}
10000b12:	4684      	mov	ip, r0
10000b14:	4461      	add	r1, ip
10000b16:	4462      	add	r2, ip
10000b18:	0109      	lsls	r1, r1, #4
10000b1a:	0112      	lsls	r2, r2, #4
10000b1c:	189a      	adds	r2, r3, r2
10000b1e:	1859      	adds	r1, r3, r1
10000b20:	6854      	ldr	r4, [r2, #4]
10000b22:	684b      	ldr	r3, [r1, #4]
10000b24:	2001      	movs	r0, #1
10000b26:	429c      	cmp	r4, r3
10000b28:	d801      	bhi.n	10000b2e <timer_pool_entry_comparator+0x22>
10000b2a:	d002      	beq.n	10000b32 <timer_pool_entry_comparator+0x26>
10000b2c:	2000      	movs	r0, #0
10000b2e:	b2c0      	uxtb	r0, r0
10000b30:	bd10      	pop	{r4, pc}
10000b32:	6812      	ldr	r2, [r2, #0]
10000b34:	680b      	ldr	r3, [r1, #0]
10000b36:	429a      	cmp	r2, r3
10000b38:	d8f9      	bhi.n	10000b2e <timer_pool_entry_comparator+0x22>
10000b3a:	e7f7      	b.n	10000b2c <timer_pool_entry_comparator+0x20>
10000b3c:	0fffffff 	.word	0x0fffffff

10000b40 <sleep_until_callback>:
10000b40:	4b0a      	ldr	r3, [pc, #40]	; (10000b6c <sleep_until_callback+0x2c>)
10000b42:	6819      	ldr	r1, [r3, #0]
10000b44:	f3ef 8010 	mrs	r0, PRIMASK
10000b48:	b672      	cpsid	i
10000b4a:	680a      	ldr	r2, [r1, #0]
10000b4c:	2a00      	cmp	r2, #0
10000b4e:	d0fc      	beq.n	10000b4a <sleep_until_callback+0xa>
10000b50:	f3bf 8f5f 	dmb	sy
10000b54:	681b      	ldr	r3, [r3, #0]
10000b56:	f3bf 8f5f 	dmb	sy
10000b5a:	2200      	movs	r2, #0
10000b5c:	601a      	str	r2, [r3, #0]
10000b5e:	f380 8810 	msr	PRIMASK, r0
10000b62:	bf40      	sev
10000b64:	2000      	movs	r0, #0
10000b66:	2100      	movs	r1, #0
10000b68:	4770      	bx	lr
10000b6a:	46c0      	nop			; (mov r8, r8)
10000b6c:	20002228 	.word	0x20002228

10000b70 <add_alarm_under_lock>:
10000b70:	b5f8      	push	{r3, r4, r5, r6, r7, lr}
10000b72:	464e      	mov	r6, r9
10000b74:	4645      	mov	r5, r8
10000b76:	46de      	mov	lr, fp
10000b78:	4657      	mov	r7, sl
10000b7a:	b5e0      	push	{r5, r6, r7, lr}
10000b7c:	001f      	movs	r7, r3
10000b7e:	ab0c      	add	r3, sp, #48	; 0x30
10000b80:	781d      	ldrb	r5, [r3, #0]
10000b82:	ab0d      	add	r3, sp, #52	; 0x34
10000b84:	781b      	ldrb	r3, [r3, #0]
10000b86:	4681      	mov	r9, r0
10000b88:	469b      	mov	fp, r3
10000b8a:	6803      	ldr	r3, [r0, #0]
10000b8c:	0016      	movs	r6, r2
10000b8e:	4698      	mov	r8, r3
10000b90:	2d00      	cmp	r5, #0
10000b92:	d108      	bne.n	10000ba6 <add_alarm_under_lock+0x36>
10000b94:	7b98      	ldrb	r0, [r3, #14]
10000b96:	2800      	cmp	r0, #0
10000b98:	d141      	bne.n	10000c1e <add_alarm_under_lock+0xae>
10000b9a:	bc3c      	pop	{r2, r3, r4, r5}
10000b9c:	4690      	mov	r8, r2
10000b9e:	4699      	mov	r9, r3
10000ba0:	46a2      	mov	sl, r4
10000ba2:	46ab      	mov	fp, r5
10000ba4:	bdf8      	pop	{r3, r4, r5, r6, r7, pc}
10000ba6:	0028      	movs	r0, r5
10000ba8:	006c      	lsls	r4, r5, #1
10000baa:	1964      	adds	r4, r4, r5
10000bac:	3c03      	subs	r4, #3
10000bae:	4b38      	ldr	r3, [pc, #224]	; (10000c90 <add_alarm_under_lock+0x120>)
10000bb0:	2200      	movs	r2, #0
10000bb2:	469c      	mov	ip, r3
10000bb4:	464b      	mov	r3, r9
10000bb6:	689b      	ldr	r3, [r3, #8]
10000bb8:	4460      	add	r0, ip
10000bba:	469c      	mov	ip, r3
10000bbc:	0100      	lsls	r0, r0, #4
10000bbe:	9b0a      	ldr	r3, [sp, #40]	; 0x28
10000bc0:	4460      	add	r0, ip
10000bc2:	6083      	str	r3, [r0, #8]
10000bc4:	9b0b      	ldr	r3, [sp, #44]	; 0x2c
10000bc6:	6006      	str	r6, [r0, #0]
10000bc8:	6047      	str	r7, [r0, #4]
10000bca:	60c3      	str	r3, [r0, #12]
10000bcc:	4643      	mov	r3, r8
10000bce:	681b      	ldr	r3, [r3, #0]
10000bd0:	191b      	adds	r3, r3, r4
10000bd2:	709a      	strb	r2, [r3, #2]
10000bd4:	705a      	strb	r2, [r3, #1]
10000bd6:	701a      	strb	r2, [r3, #0]
10000bd8:	4643      	mov	r3, r8
10000bda:	7b5b      	ldrb	r3, [r3, #13]
10000bdc:	469a      	mov	sl, r3
10000bde:	2b00      	cmp	r3, #0
10000be0:	d03b      	beq.n	10000c5a <add_alarm_under_lock+0xea>
10000be2:	4643      	mov	r3, r8
10000be4:	002a      	movs	r2, r5
10000be6:	6898      	ldr	r0, [r3, #8]
10000be8:	4651      	mov	r1, sl
10000bea:	685b      	ldr	r3, [r3, #4]
10000bec:	4798      	blx	r3
10000bee:	4643      	mov	r3, r8
10000bf0:	681a      	ldr	r2, [r3, #0]
10000bf2:	2800      	cmp	r0, #0
10000bf4:	d024      	beq.n	10000c40 <add_alarm_under_lock+0xd0>
10000bf6:	4653      	mov	r3, sl
10000bf8:	005b      	lsls	r3, r3, #1
10000bfa:	4453      	add	r3, sl
10000bfc:	3b03      	subs	r3, #3
10000bfe:	18d3      	adds	r3, r2, r3
10000c00:	1914      	adds	r4, r2, r4
10000c02:	4652      	mov	r2, sl
10000c04:	70a2      	strb	r2, [r4, #2]
10000c06:	781a      	ldrb	r2, [r3, #0]
10000c08:	2a00      	cmp	r2, #0
10000c0a:	d000      	beq.n	10000c0e <add_alarm_under_lock+0x9e>
10000c0c:	7062      	strb	r2, [r4, #1]
10000c0e:	701d      	strb	r5, [r3, #0]
10000c10:	4652      	mov	r2, sl
10000c12:	4643      	mov	r3, r8
10000c14:	0028      	movs	r0, r5
10000c16:	735a      	strb	r2, [r3, #13]
10000c18:	45aa      	cmp	sl, r5
10000c1a:	d1be      	bne.n	10000b9a <add_alarm_under_lock+0x2a>
10000c1c:	e01f      	b.n	10000c5e <add_alarm_under_lock+0xee>
10000c1e:	4641      	mov	r1, r8
10000c20:	0044      	lsls	r4, r0, #1
10000c22:	681b      	ldr	r3, [r3, #0]
10000c24:	1824      	adds	r4, r4, r0
10000c26:	3c03      	subs	r4, #3
10000c28:	191b      	adds	r3, r3, r4
10000c2a:	785a      	ldrb	r2, [r3, #1]
10000c2c:	738a      	strb	r2, [r1, #14]
10000c2e:	2a00      	cmp	r2, #0
10000c30:	d100      	bne.n	10000c34 <add_alarm_under_lock+0xc4>
10000c32:	73ca      	strb	r2, [r1, #15]
10000c34:	2200      	movs	r2, #0
10000c36:	0005      	movs	r5, r0
10000c38:	709a      	strb	r2, [r3, #2]
10000c3a:	705a      	strb	r2, [r3, #1]
10000c3c:	701a      	strb	r2, [r3, #0]
10000c3e:	e7b6      	b.n	10000bae <add_alarm_under_lock+0x3e>
10000c40:	4653      	mov	r3, sl
10000c42:	005b      	lsls	r3, r3, #1
10000c44:	4453      	add	r3, sl
10000c46:	3b03      	subs	r3, #3
10000c48:	18d3      	adds	r3, r2, r3
10000c4a:	1914      	adds	r4, r2, r4
10000c4c:	709d      	strb	r5, [r3, #2]
10000c4e:	7822      	ldrb	r2, [r4, #0]
10000c50:	2a00      	cmp	r2, #0
10000c52:	d000      	beq.n	10000c56 <add_alarm_under_lock+0xe6>
10000c54:	705a      	strb	r2, [r3, #1]
10000c56:	4653      	mov	r3, sl
10000c58:	7023      	strb	r3, [r4, #0]
10000c5a:	4643      	mov	r3, r8
10000c5c:	735d      	strb	r5, [r3, #13]
10000c5e:	464b      	mov	r3, r9
10000c60:	0032      	movs	r2, r6
10000c62:	7d18      	ldrb	r0, [r3, #20]
10000c64:	003b      	movs	r3, r7
10000c66:	f000 fcef 	bl	10001648 <hardware_alarm_set_target>
10000c6a:	1e04      	subs	r4, r0, #0
10000c6c:	d007      	beq.n	10000c7e <add_alarm_under_lock+0x10e>
10000c6e:	465b      	mov	r3, fp
10000c70:	2b00      	cmp	r3, #0
10000c72:	d104      	bne.n	10000c7e <add_alarm_under_lock+0x10e>
10000c74:	464b      	mov	r3, r9
10000c76:	0029      	movs	r1, r5
10000c78:	6818      	ldr	r0, [r3, #0]
10000c7a:	f000 ff01 	bl	10001a80 <ph_remove_and_free_node>
10000c7e:	9b0e      	ldr	r3, [sp, #56]	; 0x38
10000c80:	2b00      	cmp	r3, #0
10000c82:	d002      	beq.n	10000c8a <add_alarm_under_lock+0x11a>
10000c84:	701c      	strb	r4, [r3, #0]
10000c86:	0028      	movs	r0, r5
10000c88:	e787      	b.n	10000b9a <add_alarm_under_lock+0x2a>
10000c8a:	0028      	movs	r0, r5
10000c8c:	e785      	b.n	10000b9a <add_alarm_under_lock+0x2a>
10000c8e:	46c0      	nop			; (mov r8, r8)
10000c90:	0fffffff 	.word	0x0fffffff

10000c94 <alarm_pool_alarm_callback>:
10000c94:	b5f0      	push	{r4, r5, r6, r7, lr}
10000c96:	46de      	mov	lr, fp
10000c98:	4645      	mov	r5, r8
10000c9a:	4657      	mov	r7, sl
10000c9c:	464e      	mov	r6, r9
10000c9e:	4b6a      	ldr	r3, [pc, #424]	; (10000e48 <alarm_pool_alarm_callback+0x1b4>)
10000ca0:	0082      	lsls	r2, r0, #2
10000ca2:	b5e0      	push	{r5, r6, r7, lr}
10000ca4:	58d5      	ldr	r5, [r2, r3]
10000ca6:	2300      	movs	r3, #0
10000ca8:	469b      	mov	fp, r3
10000caa:	b08b      	sub	sp, #44	; 0x2c
10000cac:	9009      	str	r0, [sp, #36]	; 0x24
10000cae:	f000 fc3f 	bl	10001530 <time_us_64>
10000cb2:	686a      	ldr	r2, [r5, #4]
10000cb4:	f3ef 8410 	mrs	r4, PRIMASK
10000cb8:	b672      	cpsid	i
10000cba:	6813      	ldr	r3, [r2, #0]
10000cbc:	2b00      	cmp	r3, #0
10000cbe:	d0fc      	beq.n	10000cba <alarm_pool_alarm_callback+0x26>
10000cc0:	f3bf 8f5f 	dmb	sy
10000cc4:	682b      	ldr	r3, [r5, #0]
10000cc6:	469c      	mov	ip, r3
10000cc8:	7b5b      	ldrb	r3, [r3, #13]
10000cca:	4699      	mov	r9, r3
10000ccc:	2b00      	cmp	r3, #0
10000cce:	d100      	bne.n	10000cd2 <alarm_pool_alarm_callback+0x3e>
10000cd0:	e07e      	b.n	10000dd0 <alarm_pool_alarm_callback+0x13c>
10000cd2:	68aa      	ldr	r2, [r5, #8]
10000cd4:	4b5d      	ldr	r3, [pc, #372]	; (10000e4c <alarm_pool_alarm_callback+0x1b8>)
10000cd6:	4690      	mov	r8, r2
10000cd8:	444b      	add	r3, r9
10000cda:	011b      	lsls	r3, r3, #4
10000cdc:	4498      	add	r8, r3
10000cde:	4643      	mov	r3, r8
10000ce0:	681e      	ldr	r6, [r3, #0]
10000ce2:	685f      	ldr	r7, [r3, #4]
10000ce4:	0032      	movs	r2, r6
10000ce6:	003b      	movs	r3, r7
10000ce8:	1a12      	subs	r2, r2, r0
10000cea:	418b      	sbcs	r3, r1
10000cec:	2b00      	cmp	r3, #0
10000cee:	dc00      	bgt.n	10000cf2 <alarm_pool_alarm_callback+0x5e>
10000cf0:	e082      	b.n	10000df8 <alarm_pool_alarm_callback+0x164>
10000cf2:	0032      	movs	r2, r6
10000cf4:	003b      	movs	r3, r7
10000cf6:	9809      	ldr	r0, [sp, #36]	; 0x24
10000cf8:	f000 fca6 	bl	10001648 <hardware_alarm_set_target>
10000cfc:	2300      	movs	r3, #0
10000cfe:	2200      	movs	r2, #0
10000d00:	4698      	mov	r8, r3
10000d02:	2300      	movs	r3, #0
10000d04:	9206      	str	r2, [sp, #24]
10000d06:	9307      	str	r3, [sp, #28]
10000d08:	2300      	movs	r3, #0
10000d0a:	469a      	mov	sl, r3
10000d0c:	686b      	ldr	r3, [r5, #4]
10000d0e:	f3bf 8f5f 	dmb	sy
10000d12:	465a      	mov	r2, fp
10000d14:	601a      	str	r2, [r3, #0]
10000d16:	f384 8810 	msr	PRIMASK, r4
10000d1a:	4653      	mov	r3, sl
10000d1c:	2b00      	cmp	r3, #0
10000d1e:	d061      	beq.n	10000de4 <alarm_pool_alarm_callback+0x150>
10000d20:	9b08      	ldr	r3, [sp, #32]
10000d22:	4641      	mov	r1, r8
10000d24:	0218      	lsls	r0, r3, #8
10000d26:	464b      	mov	r3, r9
10000d28:	4318      	orrs	r0, r3
10000d2a:	47d0      	blx	sl
10000d2c:	686a      	ldr	r2, [r5, #4]
10000d2e:	0006      	movs	r6, r0
10000d30:	000f      	movs	r7, r1
10000d32:	f3ef 8410 	mrs	r4, PRIMASK
10000d36:	b672      	cpsid	i
10000d38:	6813      	ldr	r3, [r2, #0]
10000d3a:	2b00      	cmp	r3, #0
10000d3c:	d0fc      	beq.n	10000d38 <alarm_pool_alarm_callback+0xa4>
10000d3e:	f3bf 8f5f 	dmb	sy
10000d42:	2f00      	cmp	r7, #0
10000d44:	da22      	bge.n	10000d8c <alarm_pool_alarm_callback+0xf8>
10000d46:	692b      	ldr	r3, [r5, #16]
10000d48:	2b00      	cmp	r3, #0
10000d4a:	d025      	beq.n	10000d98 <alarm_pool_alarm_callback+0x104>
10000d4c:	9a06      	ldr	r2, [sp, #24]
10000d4e:	9b07      	ldr	r3, [sp, #28]
10000d50:	1b92      	subs	r2, r2, r6
10000d52:	41bb      	sbcs	r3, r7
10000d54:	2b00      	cmp	r3, #0
10000d56:	da02      	bge.n	10000d5e <alarm_pool_alarm_callback+0xca>
10000d58:	2201      	movs	r2, #1
10000d5a:	4b3d      	ldr	r3, [pc, #244]	; (10000e50 <alarm_pool_alarm_callback+0x1bc>)
10000d5c:	4252      	negs	r2, r2
10000d5e:	4659      	mov	r1, fp
10000d60:	9104      	str	r1, [sp, #16]
10000d62:	2101      	movs	r1, #1
10000d64:	9103      	str	r1, [sp, #12]
10000d66:	4649      	mov	r1, r9
10000d68:	9102      	str	r1, [sp, #8]
10000d6a:	4641      	mov	r1, r8
10000d6c:	9101      	str	r1, [sp, #4]
10000d6e:	4651      	mov	r1, sl
10000d70:	0028      	movs	r0, r5
10000d72:	9100      	str	r1, [sp, #0]
10000d74:	f7ff fefc 	bl	10000b70 <add_alarm_under_lock>
10000d78:	465b      	mov	r3, fp
10000d7a:	612b      	str	r3, [r5, #16]
10000d7c:	686b      	ldr	r3, [r5, #4]
10000d7e:	f3bf 8f5f 	dmb	sy
10000d82:	465a      	mov	r2, fp
10000d84:	601a      	str	r2, [r3, #0]
10000d86:	f384 8810 	msr	PRIMASK, r4
10000d8a:	e790      	b.n	10000cae <alarm_pool_alarm_callback+0x1a>
10000d8c:	0033      	movs	r3, r6
10000d8e:	433b      	orrs	r3, r7
10000d90:	d002      	beq.n	10000d98 <alarm_pool_alarm_callback+0x104>
10000d92:	692b      	ldr	r3, [r5, #16]
10000d94:	2b00      	cmp	r3, #0
10000d96:	d14d      	bne.n	10000e34 <alarm_pool_alarm_callback+0x1a0>
10000d98:	682b      	ldr	r3, [r5, #0]
10000d9a:	7bda      	ldrb	r2, [r3, #15]
10000d9c:	2a00      	cmp	r2, #0
10000d9e:	d007      	beq.n	10000db0 <alarm_pool_alarm_callback+0x11c>
10000da0:	0051      	lsls	r1, r2, #1
10000da2:	188a      	adds	r2, r1, r2
10000da4:	6819      	ldr	r1, [r3, #0]
10000da6:	468c      	mov	ip, r1
10000da8:	4649      	mov	r1, r9
10000daa:	4462      	add	r2, ip
10000dac:	3a03      	subs	r2, #3
10000dae:	7051      	strb	r1, [r2, #1]
10000db0:	7b9a      	ldrb	r2, [r3, #14]
10000db2:	2a00      	cmp	r2, #0
10000db4:	d101      	bne.n	10000dba <alarm_pool_alarm_callback+0x126>
10000db6:	464a      	mov	r2, r9
10000db8:	739a      	strb	r2, [r3, #14]
10000dba:	464a      	mov	r2, r9
10000dbc:	73da      	strb	r2, [r3, #15]
10000dbe:	68ea      	ldr	r2, [r5, #12]
10000dc0:	464b      	mov	r3, r9
10000dc2:	4694      	mov	ip, r2
10000dc4:	3b01      	subs	r3, #1
10000dc6:	4463      	add	r3, ip
10000dc8:	781a      	ldrb	r2, [r3, #0]
10000dca:	3201      	adds	r2, #1
10000dcc:	701a      	strb	r2, [r3, #0]
10000dce:	e7d3      	b.n	10000d78 <alarm_pool_alarm_callback+0xe4>
10000dd0:	2300      	movs	r3, #0
10000dd2:	2200      	movs	r2, #0
10000dd4:	4698      	mov	r8, r3
10000dd6:	2300      	movs	r3, #0
10000dd8:	9206      	str	r2, [sp, #24]
10000dda:	9307      	str	r3, [sp, #28]
10000ddc:	2300      	movs	r3, #0
10000dde:	2000      	movs	r0, #0
10000de0:	469a      	mov	sl, r3
10000de2:	e793      	b.n	10000d0c <alarm_pool_alarm_callback+0x78>
10000de4:	2800      	cmp	r0, #0
10000de6:	d000      	beq.n	10000dea <alarm_pool_alarm_callback+0x156>
10000de8:	e761      	b.n	10000cae <alarm_pool_alarm_callback+0x1a>
10000dea:	b00b      	add	sp, #44	; 0x2c
10000dec:	bc3c      	pop	{r2, r3, r4, r5}
10000dee:	4690      	mov	r8, r2
10000df0:	4699      	mov	r9, r3
10000df2:	46a2      	mov	sl, r4
10000df4:	46ab      	mov	fp, r5
10000df6:	bdf0      	pop	{r4, r5, r6, r7, pc}
10000df8:	2b00      	cmp	r3, #0
10000dfa:	d102      	bne.n	10000e02 <alarm_pool_alarm_callback+0x16e>
10000dfc:	2a00      	cmp	r2, #0
10000dfe:	d000      	beq.n	10000e02 <alarm_pool_alarm_callback+0x16e>
10000e00:	e777      	b.n	10000cf2 <alarm_pool_alarm_callback+0x5e>
10000e02:	2100      	movs	r1, #0
10000e04:	4660      	mov	r0, ip
10000e06:	f000 fd91 	bl	1000192c <ph_remove_head>
10000e0a:	4643      	mov	r3, r8
10000e0c:	681a      	ldr	r2, [r3, #0]
10000e0e:	685b      	ldr	r3, [r3, #4]
10000e10:	9206      	str	r2, [sp, #24]
10000e12:	9307      	str	r3, [sp, #28]
10000e14:	4643      	mov	r3, r8
10000e16:	689b      	ldr	r3, [r3, #8]
10000e18:	469a      	mov	sl, r3
10000e1a:	4643      	mov	r3, r8
10000e1c:	68db      	ldr	r3, [r3, #12]
10000e1e:	4698      	mov	r8, r3
10000e20:	68eb      	ldr	r3, [r5, #12]
10000e22:	444b      	add	r3, r9
10000e24:	3b01      	subs	r3, #1
10000e26:	781b      	ldrb	r3, [r3, #0]
10000e28:	9308      	str	r3, [sp, #32]
10000e2a:	021b      	lsls	r3, r3, #8
10000e2c:	4318      	orrs	r0, r3
10000e2e:	6128      	str	r0, [r5, #16]
10000e30:	2000      	movs	r0, #0
10000e32:	e76b      	b.n	10000d0c <alarm_pool_alarm_callback+0x78>
10000e34:	f000 fb7c 	bl	10001530 <time_us_64>
10000e38:	0032      	movs	r2, r6
10000e3a:	003b      	movs	r3, r7
10000e3c:	1812      	adds	r2, r2, r0
10000e3e:	414b      	adcs	r3, r1
10000e40:	2b00      	cmp	r3, #0
10000e42:	da00      	bge.n	10000e46 <alarm_pool_alarm_callback+0x1b2>
10000e44:	e788      	b.n	10000d58 <alarm_pool_alarm_callback+0xc4>
10000e46:	e78a      	b.n	10000d5e <alarm_pool_alarm_callback+0xca>
10000e48:	2000220c 	.word	0x2000220c
10000e4c:	0fffffff 	.word	0x0fffffff
10000e50:	7fffffff 	.word	0x7fffffff

10000e54 <alarm_pool_init_default>:
10000e54:	b510      	push	{r4, lr}
10000e56:	4c14      	ldr	r4, [pc, #80]	; (10000ea8 <alarm_pool_init_default+0x54>)
10000e58:	6863      	ldr	r3, [r4, #4]
10000e5a:	2b00      	cmp	r3, #0
10000e5c:	d004      	beq.n	10000e68 <alarm_pool_init_default+0x14>
10000e5e:	210a      	movs	r1, #10
10000e60:	4812      	ldr	r0, [pc, #72]	; (10000eac <alarm_pool_init_default+0x58>)
10000e62:	f7ff fe13 	bl	10000a8c <lock_init>
10000e66:	bd10      	pop	{r4, pc}
10000e68:	0023      	movs	r3, r4
10000e6a:	4a11      	ldr	r2, [pc, #68]	; (10000eb0 <alarm_pool_init_default+0x5c>)
10000e6c:	2110      	movs	r1, #16
10000e6e:	6820      	ldr	r0, [r4, #0]
10000e70:	f000 fd3e 	bl	100018f0 <ph_post_alloc_init>
10000e74:	2003      	movs	r0, #3
10000e76:	f000 fb4f 	bl	10001518 <hardware_alarm_claim>
10000e7a:	2003      	movs	r0, #3
10000e7c:	f000 fc52 	bl	10001724 <hardware_alarm_cancel>
10000e80:	490c      	ldr	r1, [pc, #48]	; (10000eb4 <alarm_pool_init_default+0x60>)
10000e82:	2003      	movs	r0, #3
10000e84:	f000 fb9a 	bl	100015bc <hardware_alarm_set_callback>
10000e88:	f7ff fb30 	bl	100004ec <next_striped_spin_lock_num>
10000e8c:	4b0a      	ldr	r3, [pc, #40]	; (10000eb8 <alarm_pool_init_default+0x64>)
10000e8e:	469c      	mov	ip, r3
10000e90:	2303      	movs	r3, #3
10000e92:	7523      	strb	r3, [r4, #20]
10000e94:	23d0      	movs	r3, #208	; 0xd0
10000e96:	061b      	lsls	r3, r3, #24
10000e98:	681b      	ldr	r3, [r3, #0]
10000e9a:	4460      	add	r0, ip
10000e9c:	7563      	strb	r3, [r4, #21]
10000e9e:	4b07      	ldr	r3, [pc, #28]	; (10000ebc <alarm_pool_init_default+0x68>)
10000ea0:	0080      	lsls	r0, r0, #2
10000ea2:	6060      	str	r0, [r4, #4]
10000ea4:	60dc      	str	r4, [r3, #12]
10000ea6:	e7da      	b.n	10000e5e <alarm_pool_init_default+0xa>
10000ea8:	20000e74 	.word	0x20000e74
10000eac:	20002228 	.word	0x20002228
10000eb0:	10000b0d 	.word	0x10000b0d
10000eb4:	10000c95 	.word	0x10000c95
10000eb8:	34000040 	.word	0x34000040
10000ebc:	2000220c 	.word	0x2000220c

10000ec0 <alarm_pool_get_default>:
10000ec0:	4800      	ldr	r0, [pc, #0]	; (10000ec4 <alarm_pool_get_default+0x4>)
10000ec2:	4770      	bx	lr
10000ec4:	20000e74 	.word	0x20000e74

10000ec8 <alarm_pool_add_alarm_at>:
10000ec8:	b5f0      	push	{r4, r5, r6, r7, lr}
10000eca:	4657      	mov	r7, sl
10000ecc:	46de      	mov	lr, fp
10000ece:	4645      	mov	r5, r8
10000ed0:	464e      	mov	r6, r9
10000ed2:	b5e0      	push	{r5, r6, r7, lr}
10000ed4:	b085      	sub	sp, #20
10000ed6:	9200      	str	r2, [sp, #0]
10000ed8:	9301      	str	r3, [sp, #4]
10000eda:	ab10      	add	r3, sp, #64	; 0x40
10000edc:	781b      	ldrb	r3, [r3, #0]
10000ede:	0007      	movs	r7, r0
10000ee0:	469b      	mov	fp, r3
10000ee2:	2300      	movs	r3, #0
10000ee4:	469a      	mov	sl, r3
10000ee6:	4698      	mov	r8, r3
10000ee8:	687a      	ldr	r2, [r7, #4]
10000eea:	f3ef 8910 	mrs	r9, PRIMASK
10000eee:	b672      	cpsid	i
10000ef0:	6813      	ldr	r3, [r2, #0]
10000ef2:	2b00      	cmp	r3, #0
10000ef4:	d0fc      	beq.n	10000ef0 <alarm_pool_add_alarm_at+0x28>
10000ef6:	f3bf 8f5f 	dmb	sy
10000efa:	683e      	ldr	r6, [r7, #0]
10000efc:	7bb4      	ldrb	r4, [r6, #14]
10000efe:	2c00      	cmp	r4, #0
10000f00:	d100      	bne.n	10000f04 <alarm_pool_add_alarm_at+0x3c>
10000f02:	e073      	b.n	10000fec <alarm_pool_add_alarm_at+0x124>
10000f04:	0065      	lsls	r5, r4, #1
10000f06:	192d      	adds	r5, r5, r4
10000f08:	6833      	ldr	r3, [r6, #0]
10000f0a:	3d03      	subs	r5, #3
10000f0c:	195b      	adds	r3, r3, r5
10000f0e:	785a      	ldrb	r2, [r3, #1]
10000f10:	73b2      	strb	r2, [r6, #14]
10000f12:	2a00      	cmp	r2, #0
10000f14:	d100      	bne.n	10000f18 <alarm_pool_add_alarm_at+0x50>
10000f16:	73f2      	strb	r2, [r6, #15]
10000f18:	4642      	mov	r2, r8
10000f1a:	709a      	strb	r2, [r3, #2]
10000f1c:	705a      	strb	r2, [r3, #1]
10000f1e:	701a      	strb	r2, [r3, #0]
10000f20:	68ba      	ldr	r2, [r7, #8]
10000f22:	4b4c      	ldr	r3, [pc, #304]	; (10001054 <alarm_pool_add_alarm_at+0x18c>)
10000f24:	4694      	mov	ip, r2
10000f26:	9900      	ldr	r1, [sp, #0]
10000f28:	9a01      	ldr	r2, [sp, #4]
10000f2a:	18e3      	adds	r3, r4, r3
10000f2c:	011b      	lsls	r3, r3, #4
10000f2e:	4463      	add	r3, ip
10000f30:	6019      	str	r1, [r3, #0]
10000f32:	605a      	str	r2, [r3, #4]
10000f34:	9a0e      	ldr	r2, [sp, #56]	; 0x38
10000f36:	609a      	str	r2, [r3, #8]
10000f38:	9a0f      	ldr	r2, [sp, #60]	; 0x3c
10000f3a:	60da      	str	r2, [r3, #12]
10000f3c:	4642      	mov	r2, r8
10000f3e:	6833      	ldr	r3, [r6, #0]
10000f40:	195b      	adds	r3, r3, r5
10000f42:	709a      	strb	r2, [r3, #2]
10000f44:	705a      	strb	r2, [r3, #1]
10000f46:	701a      	strb	r2, [r3, #0]
10000f48:	7b73      	ldrb	r3, [r6, #13]
10000f4a:	9303      	str	r3, [sp, #12]
10000f4c:	2b00      	cmp	r3, #0
10000f4e:	d100      	bne.n	10000f52 <alarm_pool_add_alarm_at+0x8a>
10000f50:	e06e      	b.n	10001030 <alarm_pool_add_alarm_at+0x168>
10000f52:	0019      	movs	r1, r3
10000f54:	6873      	ldr	r3, [r6, #4]
10000f56:	0022      	movs	r2, r4
10000f58:	68b0      	ldr	r0, [r6, #8]
10000f5a:	469c      	mov	ip, r3
10000f5c:	47e0      	blx	ip
10000f5e:	6832      	ldr	r2, [r6, #0]
10000f60:	2800      	cmp	r0, #0
10000f62:	d056      	beq.n	10001012 <alarm_pool_add_alarm_at+0x14a>
10000f64:	9803      	ldr	r0, [sp, #12]
10000f66:	1955      	adds	r5, r2, r5
10000f68:	4684      	mov	ip, r0
10000f6a:	0043      	lsls	r3, r0, #1
10000f6c:	4463      	add	r3, ip
10000f6e:	3b03      	subs	r3, #3
10000f70:	18d3      	adds	r3, r2, r3
10000f72:	70a8      	strb	r0, [r5, #2]
10000f74:	781a      	ldrb	r2, [r3, #0]
10000f76:	2a00      	cmp	r2, #0
10000f78:	d000      	beq.n	10000f7c <alarm_pool_add_alarm_at+0xb4>
10000f7a:	e067      	b.n	1000104c <alarm_pool_add_alarm_at+0x184>
10000f7c:	701c      	strb	r4, [r3, #0]
10000f7e:	7370      	strb	r0, [r6, #13]
10000f80:	4284      	cmp	r4, r0
10000f82:	d056      	beq.n	10001032 <alarm_pool_add_alarm_at+0x16a>
10000f84:	68fb      	ldr	r3, [r7, #12]
10000f86:	191b      	adds	r3, r3, r4
10000f88:	3b01      	subs	r3, #1
10000f8a:	7818      	ldrb	r0, [r3, #0]
10000f8c:	687b      	ldr	r3, [r7, #4]
10000f8e:	f3bf 8f5f 	dmb	sy
10000f92:	4642      	mov	r2, r8
10000f94:	601a      	str	r2, [r3, #0]
10000f96:	f389 8810 	msr	PRIMASK, r9
10000f9a:	4653      	mov	r3, sl
10000f9c:	2b00      	cmp	r3, #0
10000f9e:	d108      	bne.n	10000fb2 <alarm_pool_add_alarm_at+0xea>
10000fa0:	0200      	lsls	r0, r0, #8
10000fa2:	4320      	orrs	r0, r4
10000fa4:	b005      	add	sp, #20
10000fa6:	bc3c      	pop	{r2, r3, r4, r5}
10000fa8:	4690      	mov	r8, r2
10000faa:	4699      	mov	r9, r3
10000fac:	46a2      	mov	sl, r4
10000fae:	46ab      	mov	fp, r5
10000fb0:	bdf0      	pop	{r4, r5, r6, r7, pc}
10000fb2:	465b      	mov	r3, fp
10000fb4:	2b00      	cmp	r3, #0
10000fb6:	d04b      	beq.n	10001050 <alarm_pool_add_alarm_at+0x188>
10000fb8:	9b0e      	ldr	r3, [sp, #56]	; 0x38
10000fba:	990f      	ldr	r1, [sp, #60]	; 0x3c
10000fbc:	2000      	movs	r0, #0
10000fbe:	4798      	blx	r3
10000fc0:	0003      	movs	r3, r0
10000fc2:	0004      	movs	r4, r0
10000fc4:	000d      	movs	r5, r1
10000fc6:	430b      	orrs	r3, r1
10000fc8:	d042      	beq.n	10001050 <alarm_pool_add_alarm_at+0x188>
10000fca:	2900      	cmp	r1, #0
10000fcc:	da17      	bge.n	10000ffe <alarm_pool_add_alarm_at+0x136>
10000fce:	9a00      	ldr	r2, [sp, #0]
10000fd0:	9b01      	ldr	r3, [sp, #4]
10000fd2:	1b12      	subs	r2, r2, r4
10000fd4:	41ab      	sbcs	r3, r5
10000fd6:	9200      	str	r2, [sp, #0]
10000fd8:	9301      	str	r3, [sp, #4]
10000fda:	2b00      	cmp	r3, #0
10000fdc:	da04      	bge.n	10000fe8 <alarm_pool_add_alarm_at+0x120>
10000fde:	2301      	movs	r3, #1
10000fe0:	4c1d      	ldr	r4, [pc, #116]	; (10001058 <alarm_pool_add_alarm_at+0x190>)
10000fe2:	425b      	negs	r3, r3
10000fe4:	9300      	str	r3, [sp, #0]
10000fe6:	9401      	str	r4, [sp, #4]
10000fe8:	46da      	mov	sl, fp
10000fea:	e77d      	b.n	10000ee8 <alarm_pool_add_alarm_at+0x20>
10000fec:	687b      	ldr	r3, [r7, #4]
10000fee:	f3bf 8f5f 	dmb	sy
10000ff2:	601c      	str	r4, [r3, #0]
10000ff4:	f389 8810 	msr	PRIMASK, r9
10000ff8:	2001      	movs	r0, #1
10000ffa:	4240      	negs	r0, r0
10000ffc:	e7d2      	b.n	10000fa4 <alarm_pool_add_alarm_at+0xdc>
10000ffe:	f000 fa97 	bl	10001530 <time_us_64>
10001002:	1824      	adds	r4, r4, r0
10001004:	414d      	adcs	r5, r1
10001006:	9400      	str	r4, [sp, #0]
10001008:	9501      	str	r5, [sp, #4]
1000100a:	2d00      	cmp	r5, #0
1000100c:	dbe7      	blt.n	10000fde <alarm_pool_add_alarm_at+0x116>
1000100e:	46da      	mov	sl, fp
10001010:	e76a      	b.n	10000ee8 <alarm_pool_add_alarm_at+0x20>
10001012:	9903      	ldr	r1, [sp, #12]
10001014:	1955      	adds	r5, r2, r5
10001016:	468c      	mov	ip, r1
10001018:	004b      	lsls	r3, r1, #1
1000101a:	4463      	add	r3, ip
1000101c:	3b03      	subs	r3, #3
1000101e:	18d3      	adds	r3, r2, r3
10001020:	709c      	strb	r4, [r3, #2]
10001022:	782a      	ldrb	r2, [r5, #0]
10001024:	2a00      	cmp	r2, #0
10001026:	d000      	beq.n	1000102a <alarm_pool_add_alarm_at+0x162>
10001028:	705a      	strb	r2, [r3, #1]
1000102a:	466b      	mov	r3, sp
1000102c:	7b1b      	ldrb	r3, [r3, #12]
1000102e:	702b      	strb	r3, [r5, #0]
10001030:	7374      	strb	r4, [r6, #13]
10001032:	7d38      	ldrb	r0, [r7, #20]
10001034:	9a00      	ldr	r2, [sp, #0]
10001036:	9b01      	ldr	r3, [sp, #4]
10001038:	f000 fb06 	bl	10001648 <hardware_alarm_set_target>
1000103c:	4682      	mov	sl, r0
1000103e:	2800      	cmp	r0, #0
10001040:	d0a0      	beq.n	10000f84 <alarm_pool_add_alarm_at+0xbc>
10001042:	0021      	movs	r1, r4
10001044:	6838      	ldr	r0, [r7, #0]
10001046:	f000 fd1b 	bl	10001a80 <ph_remove_and_free_node>
1000104a:	e79b      	b.n	10000f84 <alarm_pool_add_alarm_at+0xbc>
1000104c:	706a      	strb	r2, [r5, #1]
1000104e:	e795      	b.n	10000f7c <alarm_pool_add_alarm_at+0xb4>
10001050:	2000      	movs	r0, #0
10001052:	e7a7      	b.n	10000fa4 <alarm_pool_add_alarm_at+0xdc>
10001054:	0fffffff 	.word	0x0fffffff
10001058:	7fffffff 	.word	0x7fffffff

1000105c <alarm_pool_core_num>:
1000105c:	7d40      	ldrb	r0, [r0, #21]
1000105e:	4770      	bx	lr

10001060 <sleep_until>:
10001060:	b5f0      	push	{r4, r5, r6, r7, lr}
10001062:	4657      	mov	r7, sl
10001064:	464e      	mov	r6, r9
10001066:	4645      	mov	r5, r8
10001068:	46de      	mov	lr, fp
1000106a:	0004      	movs	r4, r0
1000106c:	b5e0      	push	{r5, r6, r7, lr}
1000106e:	000d      	movs	r5, r1
10001070:	2606      	movs	r6, #6
10001072:	4276      	negs	r6, r6
10001074:	17f7      	asrs	r7, r6, #31
10001076:	1936      	adds	r6, r6, r4
10001078:	416f      	adcs	r7, r5
1000107a:	b085      	sub	sp, #20
1000107c:	428f      	cmp	r7, r1
1000107e:	d855      	bhi.n	1000112c <sleep_until+0xcc>
10001080:	d052      	beq.n	10001128 <sleep_until+0xc8>
10001082:	f000 fa55 	bl	10001530 <time_us_64>
10001086:	0032      	movs	r2, r6
10001088:	003b      	movs	r3, r7
1000108a:	1a12      	subs	r2, r2, r0
1000108c:	418b      	sbcs	r3, r1
1000108e:	2b00      	cmp	r3, #0
10001090:	dd56      	ble.n	10001140 <sleep_until+0xe0>
10001092:	4b68      	ldr	r3, [pc, #416]	; (10001234 <sleep_until+0x1d4>)
10001094:	469a      	mov	sl, r3
10001096:	685a      	ldr	r2, [r3, #4]
10001098:	f3ef 8b10 	mrs	fp, PRIMASK
1000109c:	b672      	cpsid	i
1000109e:	6813      	ldr	r3, [r2, #0]
100010a0:	2b00      	cmp	r3, #0
100010a2:	d0fc      	beq.n	1000109e <sleep_until+0x3e>
100010a4:	f3bf 8f5f 	dmb	sy
100010a8:	4653      	mov	r3, sl
100010aa:	681b      	ldr	r3, [r3, #0]
100010ac:	4699      	mov	r9, r3
100010ae:	7b9b      	ldrb	r3, [r3, #14]
100010b0:	4698      	mov	r8, r3
100010b2:	2b00      	cmp	r3, #0
100010b4:	d14a      	bne.n	1000114c <sleep_until+0xec>
100010b6:	4653      	mov	r3, sl
100010b8:	685b      	ldr	r3, [r3, #4]
100010ba:	f3bf 8f5f 	dmb	sy
100010be:	2200      	movs	r2, #0
100010c0:	601a      	str	r2, [r3, #0]
100010c2:	f38b 8810 	msr	PRIMASK, fp
100010c6:	4643      	mov	r3, r8
100010c8:	2b00      	cmp	r3, #0
100010ca:	d011      	beq.n	100010f0 <sleep_until+0x90>
100010cc:	46bc      	mov	ip, r7
100010ce:	46b0      	mov	r8, r6
100010d0:	9400      	str	r4, [sp, #0]
100010d2:	9501      	str	r5, [sp, #4]
100010d4:	2600      	movs	r6, #0
100010d6:	4665      	mov	r5, ip
100010d8:	4f57      	ldr	r7, [pc, #348]	; (10001238 <sleep_until+0x1d8>)
100010da:	4a58      	ldr	r2, [pc, #352]	; (1000123c <sleep_until+0x1dc>)
100010dc:	6a7b      	ldr	r3, [r7, #36]	; 0x24
100010de:	42ab      	cmp	r3, r5
100010e0:	d311      	bcc.n	10001106 <sleep_until+0xa6>
100010e2:	6ab9      	ldr	r1, [r7, #40]	; 0x28
100010e4:	4541      	cmp	r1, r8
100010e6:	d201      	bcs.n	100010ec <sleep_until+0x8c>
100010e8:	42ab      	cmp	r3, r5
100010ea:	d00c      	beq.n	10001106 <sleep_until+0xa6>
100010ec:	9c00      	ldr	r4, [sp, #0]
100010ee:	9d01      	ldr	r5, [sp, #4]
100010f0:	0020      	movs	r0, r4
100010f2:	0029      	movs	r1, r5
100010f4:	f000 fa52 	bl	1000159c <busy_wait_until>
100010f8:	b005      	add	sp, #20
100010fa:	bc3c      	pop	{r2, r3, r4, r5}
100010fc:	4690      	mov	r8, r2
100010fe:	4699      	mov	r9, r3
10001100:	46a2      	mov	sl, r4
10001102:	46ab      	mov	fp, r5
10001104:	bdf0      	pop	{r4, r5, r6, r7, pc}
10001106:	6811      	ldr	r1, [r2, #0]
10001108:	f3ef 8010 	mrs	r0, PRIMASK
1000110c:	b672      	cpsid	i
1000110e:	680b      	ldr	r3, [r1, #0]
10001110:	2b00      	cmp	r3, #0
10001112:	d0fc      	beq.n	1000110e <sleep_until+0xae>
10001114:	f3bf 8f5f 	dmb	sy
10001118:	6813      	ldr	r3, [r2, #0]
1000111a:	f3bf 8f5f 	dmb	sy
1000111e:	601e      	str	r6, [r3, #0]
10001120:	f380 8810 	msr	PRIMASK, r0
10001124:	bf20      	wfe
10001126:	e7d9      	b.n	100010dc <sleep_until+0x7c>
10001128:	4286      	cmp	r6, r0
1000112a:	d9aa      	bls.n	10001082 <sleep_until+0x22>
1000112c:	2600      	movs	r6, #0
1000112e:	2700      	movs	r7, #0
10001130:	f000 f9fe 	bl	10001530 <time_us_64>
10001134:	0032      	movs	r2, r6
10001136:	003b      	movs	r3, r7
10001138:	1a12      	subs	r2, r2, r0
1000113a:	418b      	sbcs	r3, r1
1000113c:	2b00      	cmp	r3, #0
1000113e:	dca8      	bgt.n	10001092 <sleep_until+0x32>
10001140:	2b00      	cmp	r3, #0
10001142:	d1d5      	bne.n	100010f0 <sleep_until+0x90>
10001144:	2a00      	cmp	r2, #0
10001146:	d000      	beq.n	1000114a <sleep_until+0xea>
10001148:	e7a3      	b.n	10001092 <sleep_until+0x32>
1000114a:	e7d1      	b.n	100010f0 <sleep_until+0x90>
1000114c:	005b      	lsls	r3, r3, #1
1000114e:	4443      	add	r3, r8
10001150:	464a      	mov	r2, r9
10001152:	3b03      	subs	r3, #3
10001154:	469c      	mov	ip, r3
10001156:	4649      	mov	r1, r9
10001158:	6812      	ldr	r2, [r2, #0]
1000115a:	9300      	str	r3, [sp, #0]
1000115c:	4462      	add	r2, ip
1000115e:	7853      	ldrb	r3, [r2, #1]
10001160:	738b      	strb	r3, [r1, #14]
10001162:	2b00      	cmp	r3, #0
10001164:	d100      	bne.n	10001168 <sleep_until+0x108>
10001166:	73cb      	strb	r3, [r1, #15]
10001168:	2300      	movs	r3, #0
1000116a:	4651      	mov	r1, sl
1000116c:	7093      	strb	r3, [r2, #2]
1000116e:	7053      	strb	r3, [r2, #1]
10001170:	7013      	strb	r3, [r2, #0]
10001172:	6889      	ldr	r1, [r1, #8]
10001174:	4a32      	ldr	r2, [pc, #200]	; (10001240 <sleep_until+0x1e0>)
10001176:	468c      	mov	ip, r1
10001178:	4442      	add	r2, r8
1000117a:	4932      	ldr	r1, [pc, #200]	; (10001244 <sleep_until+0x1e4>)
1000117c:	0112      	lsls	r2, r2, #4
1000117e:	4462      	add	r2, ip
10001180:	6016      	str	r6, [r2, #0]
10001182:	6057      	str	r7, [r2, #4]
10001184:	6091      	str	r1, [r2, #8]
10001186:	60d3      	str	r3, [r2, #12]
10001188:	9900      	ldr	r1, [sp, #0]
1000118a:	464a      	mov	r2, r9
1000118c:	468c      	mov	ip, r1
1000118e:	6812      	ldr	r2, [r2, #0]
10001190:	4462      	add	r2, ip
10001192:	7093      	strb	r3, [r2, #2]
10001194:	7053      	strb	r3, [r2, #1]
10001196:	7013      	strb	r3, [r2, #0]
10001198:	464b      	mov	r3, r9
1000119a:	7b5b      	ldrb	r3, [r3, #13]
1000119c:	9303      	str	r3, [sp, #12]
1000119e:	2b00      	cmp	r3, #0
100011a0:	d035      	beq.n	1000120e <sleep_until+0x1ae>
100011a2:	0019      	movs	r1, r3
100011a4:	4648      	mov	r0, r9
100011a6:	464b      	mov	r3, r9
100011a8:	4642      	mov	r2, r8
100011aa:	6880      	ldr	r0, [r0, #8]
100011ac:	685b      	ldr	r3, [r3, #4]
100011ae:	4798      	blx	r3
100011b0:	2800      	cmp	r0, #0
100011b2:	d019      	beq.n	100011e8 <sleep_until+0x188>
100011b4:	9803      	ldr	r0, [sp, #12]
100011b6:	9900      	ldr	r1, [sp, #0]
100011b8:	4684      	mov	ip, r0
100011ba:	464a      	mov	r2, r9
100011bc:	0043      	lsls	r3, r0, #1
100011be:	4463      	add	r3, ip
100011c0:	468c      	mov	ip, r1
100011c2:	4669      	mov	r1, sp
100011c4:	6812      	ldr	r2, [r2, #0]
100011c6:	7b09      	ldrb	r1, [r1, #12]
100011c8:	3b03      	subs	r3, #3
100011ca:	18d3      	adds	r3, r2, r3
100011cc:	4462      	add	r2, ip
100011ce:	7091      	strb	r1, [r2, #2]
100011d0:	7819      	ldrb	r1, [r3, #0]
100011d2:	2900      	cmp	r1, #0
100011d4:	d000      	beq.n	100011d8 <sleep_until+0x178>
100011d6:	7051      	strb	r1, [r2, #1]
100011d8:	4642      	mov	r2, r8
100011da:	701a      	strb	r2, [r3, #0]
100011dc:	464b      	mov	r3, r9
100011de:	7358      	strb	r0, [r3, #13]
100011e0:	4580      	cmp	r8, r0
100011e2:	d000      	beq.n	100011e6 <sleep_until+0x186>
100011e4:	e767      	b.n	100010b6 <sleep_until+0x56>
100011e6:	e015      	b.n	10001214 <sleep_until+0x1b4>
100011e8:	464b      	mov	r3, r9
100011ea:	9803      	ldr	r0, [sp, #12]
100011ec:	681a      	ldr	r2, [r3, #0]
100011ee:	4684      	mov	ip, r0
100011f0:	9b00      	ldr	r3, [sp, #0]
100011f2:	18d1      	adds	r1, r2, r3
100011f4:	0043      	lsls	r3, r0, #1
100011f6:	4463      	add	r3, ip
100011f8:	3b03      	subs	r3, #3
100011fa:	18d3      	adds	r3, r2, r3
100011fc:	4642      	mov	r2, r8
100011fe:	709a      	strb	r2, [r3, #2]
10001200:	780a      	ldrb	r2, [r1, #0]
10001202:	2a00      	cmp	r2, #0
10001204:	d000      	beq.n	10001208 <sleep_until+0x1a8>
10001206:	705a      	strb	r2, [r3, #1]
10001208:	466b      	mov	r3, sp
1000120a:	7b1b      	ldrb	r3, [r3, #12]
1000120c:	700b      	strb	r3, [r1, #0]
1000120e:	464b      	mov	r3, r9
10001210:	4642      	mov	r2, r8
10001212:	735a      	strb	r2, [r3, #13]
10001214:	4653      	mov	r3, sl
10001216:	0032      	movs	r2, r6
10001218:	7d18      	ldrb	r0, [r3, #20]
1000121a:	003b      	movs	r3, r7
1000121c:	f000 fa14 	bl	10001648 <hardware_alarm_set_target>
10001220:	2800      	cmp	r0, #0
10001222:	d100      	bne.n	10001226 <sleep_until+0x1c6>
10001224:	e747      	b.n	100010b6 <sleep_until+0x56>
10001226:	4653      	mov	r3, sl
10001228:	4641      	mov	r1, r8
1000122a:	6818      	ldr	r0, [r3, #0]
1000122c:	f000 fc28 	bl	10001a80 <ph_remove_and_free_node>
10001230:	e741      	b.n	100010b6 <sleep_until+0x56>
10001232:	46c0      	nop			; (mov r8, r8)
10001234:	20000e74 	.word	0x20000e74
10001238:	40054000 	.word	0x40054000
1000123c:	20002228 	.word	0x20002228
10001240:	0fffffff 	.word	0x0fffffff
10001244:	10000b41 	.word	0x10000b41

10001248 <sleep_ms>:
10001248:	b570      	push	{r4, r5, r6, lr}
1000124a:	0006      	movs	r6, r0
1000124c:	f000 f970 	bl	10001530 <time_us_64>
10001250:	22fa      	movs	r2, #250	; 0xfa
10001252:	0004      	movs	r4, r0
10001254:	000d      	movs	r5, r1
10001256:	0092      	lsls	r2, r2, #2
10001258:	2300      	movs	r3, #0
1000125a:	0030      	movs	r0, r6
1000125c:	2100      	movs	r1, #0
1000125e:	f001 f94d 	bl	100024fc <__wrap___aeabi_lmul>
10001262:	1900      	adds	r0, r0, r4
10001264:	4169      	adcs	r1, r5
10001266:	2900      	cmp	r1, #0
10001268:	da02      	bge.n	10001270 <sleep_ms+0x28>
1000126a:	2001      	movs	r0, #1
1000126c:	4902      	ldr	r1, [pc, #8]	; (10001278 <sleep_ms+0x30>)
1000126e:	4240      	negs	r0, r0
10001270:	f7ff fef6 	bl	10001060 <sleep_until>
10001274:	bd70      	pop	{r4, r5, r6, pc}
10001276:	46c0      	nop			; (mov r8, r8)
10001278:	7fffffff 	.word	0x7fffffff

1000127c <best_effort_wfe_or_timeout>:
1000127c:	b5f0      	push	{r4, r5, r6, r7, lr}
1000127e:	f3ef 8305 	mrs	r3, IPSR
10001282:	4657      	mov	r7, sl
10001284:	46de      	mov	lr, fp
10001286:	464e      	mov	r6, r9
10001288:	4645      	mov	r5, r8
1000128a:	b5e0      	push	{r5, r6, r7, lr}
1000128c:	000c      	movs	r4, r1
1000128e:	b083      	sub	sp, #12
10001290:	0007      	movs	r7, r0
10001292:	2b00      	cmp	r3, #0
10001294:	d017      	beq.n	100012c6 <best_effort_wfe_or_timeout+0x4a>
10001296:	2100      	movs	r1, #0
10001298:	4a72      	ldr	r2, [pc, #456]	; (10001464 <best_effort_wfe_or_timeout+0x1e8>)
1000129a:	4688      	mov	r8, r1
1000129c:	6a53      	ldr	r3, [r2, #36]	; 0x24
1000129e:	429c      	cmp	r4, r3
100012a0:	d809      	bhi.n	100012b6 <best_effort_wfe_or_timeout+0x3a>
100012a2:	2101      	movs	r1, #1
100012a4:	6a92      	ldr	r2, [r2, #40]	; 0x28
100012a6:	4688      	mov	r8, r1
100012a8:	42ba      	cmp	r2, r7
100012aa:	d204      	bcs.n	100012b6 <best_effort_wfe_or_timeout+0x3a>
100012ac:	1ae4      	subs	r4, r4, r3
100012ae:	1e63      	subs	r3, r4, #1
100012b0:	419c      	sbcs	r4, r3
100012b2:	b2e3      	uxtb	r3, r4
100012b4:	4698      	mov	r8, r3
100012b6:	4640      	mov	r0, r8
100012b8:	b003      	add	sp, #12
100012ba:	bc3c      	pop	{r2, r3, r4, r5}
100012bc:	4690      	mov	r8, r2
100012be:	4699      	mov	r9, r3
100012c0:	46a2      	mov	sl, r4
100012c2:	46ab      	mov	fp, r5
100012c4:	bdf0      	pop	{r4, r5, r6, r7, pc}
100012c6:	4d68      	ldr	r5, [pc, #416]	; (10001468 <best_effort_wfe_or_timeout+0x1ec>)
100012c8:	686a      	ldr	r2, [r5, #4]
100012ca:	f3ef 8a10 	mrs	sl, PRIMASK
100012ce:	b672      	cpsid	i
100012d0:	6813      	ldr	r3, [r2, #0]
100012d2:	2b00      	cmp	r3, #0
100012d4:	d0fc      	beq.n	100012d0 <best_effort_wfe_or_timeout+0x54>
100012d6:	f3bf 8f5f 	dmb	sy
100012da:	682b      	ldr	r3, [r5, #0]
100012dc:	7b9e      	ldrb	r6, [r3, #14]
100012de:	4698      	mov	r8, r3
100012e0:	2e00      	cmp	r6, #0
100012e2:	d13f      	bne.n	10001364 <best_effort_wfe_or_timeout+0xe8>
100012e4:	2300      	movs	r3, #0
100012e6:	4698      	mov	r8, r3
100012e8:	9301      	str	r3, [sp, #4]
100012ea:	686a      	ldr	r2, [r5, #4]
100012ec:	f3bf 8f5f 	dmb	sy
100012f0:	2100      	movs	r1, #0
100012f2:	6011      	str	r1, [r2, #0]
100012f4:	f38a 8810 	msr	PRIMASK, sl
100012f8:	2e00      	cmp	r6, #0
100012fa:	d100      	bne.n	100012fe <best_effort_wfe_or_timeout+0x82>
100012fc:	e07d      	b.n	100013fa <best_effort_wfe_or_timeout+0x17e>
100012fe:	4642      	mov	r2, r8
10001300:	2a00      	cmp	r2, #0
10001302:	d000      	beq.n	10001306 <best_effort_wfe_or_timeout+0x8a>
10001304:	e079      	b.n	100013fa <best_effort_wfe_or_timeout+0x17e>
10001306:	9a01      	ldr	r2, [sp, #4]
10001308:	021b      	lsls	r3, r3, #8
1000130a:	4313      	orrs	r3, r2
1000130c:	bf20      	wfe
1000130e:	6869      	ldr	r1, [r5, #4]
10001310:	f3ef 8910 	mrs	r9, PRIMASK
10001314:	b672      	cpsid	i
10001316:	680a      	ldr	r2, [r1, #0]
10001318:	2a00      	cmp	r2, #0
1000131a:	d0fc      	beq.n	10001316 <best_effort_wfe_or_timeout+0x9a>
1000131c:	f3bf 8f5f 	dmb	sy
10001320:	6828      	ldr	r0, [r5, #0]
10001322:	b2d9      	uxtb	r1, r3
10001324:	7b42      	ldrb	r2, [r0, #13]
10001326:	428a      	cmp	r2, r1
10001328:	d06f      	beq.n	1000140a <best_effort_wfe_or_timeout+0x18e>
1000132a:	22ff      	movs	r2, #255	; 0xff
1000132c:	401a      	ands	r2, r3
1000132e:	0056      	lsls	r6, r2, #1
10001330:	46b2      	mov	sl, r6
10001332:	6806      	ldr	r6, [r0, #0]
10001334:	4492      	add	sl, r2
10001336:	46b4      	mov	ip, r6
10001338:	4656      	mov	r6, sl
1000133a:	4466      	add	r6, ip
1000133c:	3e03      	subs	r6, #3
1000133e:	78b6      	ldrb	r6, [r6, #2]
10001340:	2e00      	cmp	r6, #0
10001342:	d164      	bne.n	1000140e <best_effort_wfe_or_timeout+0x192>
10001344:	692a      	ldr	r2, [r5, #16]
10001346:	4293      	cmp	r3, r2
10001348:	d100      	bne.n	1000134c <best_effort_wfe_or_timeout+0xd0>
1000134a:	e088      	b.n	1000145e <best_effort_wfe_or_timeout+0x1e2>
1000134c:	686b      	ldr	r3, [r5, #4]
1000134e:	f3bf 8f5f 	dmb	sy
10001352:	2200      	movs	r2, #0
10001354:	601a      	str	r2, [r3, #0]
10001356:	f389 8810 	msr	PRIMASK, r9
1000135a:	4a42      	ldr	r2, [pc, #264]	; (10001464 <best_effort_wfe_or_timeout+0x1e8>)
1000135c:	6a53      	ldr	r3, [r2, #36]	; 0x24
1000135e:	429c      	cmp	r4, r3
10001360:	d8a9      	bhi.n	100012b6 <best_effort_wfe_or_timeout+0x3a>
10001362:	e79e      	b.n	100012a2 <best_effort_wfe_or_timeout+0x26>
10001364:	0073      	lsls	r3, r6, #1
10001366:	199b      	adds	r3, r3, r6
10001368:	3b03      	subs	r3, #3
1000136a:	4699      	mov	r9, r3
1000136c:	4643      	mov	r3, r8
1000136e:	4641      	mov	r1, r8
10001370:	681b      	ldr	r3, [r3, #0]
10001372:	9601      	str	r6, [sp, #4]
10001374:	444b      	add	r3, r9
10001376:	785a      	ldrb	r2, [r3, #1]
10001378:	738a      	strb	r2, [r1, #14]
1000137a:	2a00      	cmp	r2, #0
1000137c:	d100      	bne.n	10001380 <best_effort_wfe_or_timeout+0x104>
1000137e:	73ca      	strb	r2, [r1, #15]
10001380:	2200      	movs	r2, #0
10001382:	709a      	strb	r2, [r3, #2]
10001384:	705a      	strb	r2, [r3, #1]
10001386:	701a      	strb	r2, [r3, #0]
10001388:	68a9      	ldr	r1, [r5, #8]
1000138a:	4b38      	ldr	r3, [pc, #224]	; (1000146c <best_effort_wfe_or_timeout+0x1f0>)
1000138c:	468c      	mov	ip, r1
1000138e:	18f3      	adds	r3, r6, r3
10001390:	011b      	lsls	r3, r3, #4
10001392:	4937      	ldr	r1, [pc, #220]	; (10001470 <best_effort_wfe_or_timeout+0x1f4>)
10001394:	4463      	add	r3, ip
10001396:	601f      	str	r7, [r3, #0]
10001398:	60da      	str	r2, [r3, #12]
1000139a:	605c      	str	r4, [r3, #4]
1000139c:	6099      	str	r1, [r3, #8]
1000139e:	4643      	mov	r3, r8
100013a0:	681b      	ldr	r3, [r3, #0]
100013a2:	444b      	add	r3, r9
100013a4:	709a      	strb	r2, [r3, #2]
100013a6:	705a      	strb	r2, [r3, #1]
100013a8:	701a      	strb	r2, [r3, #0]
100013aa:	4643      	mov	r3, r8
100013ac:	7b5b      	ldrb	r3, [r3, #13]
100013ae:	469b      	mov	fp, r3
100013b0:	2b00      	cmp	r3, #0
100013b2:	d045      	beq.n	10001440 <best_effort_wfe_or_timeout+0x1c4>
100013b4:	0019      	movs	r1, r3
100013b6:	4643      	mov	r3, r8
100013b8:	0032      	movs	r2, r6
100013ba:	6898      	ldr	r0, [r3, #8]
100013bc:	685b      	ldr	r3, [r3, #4]
100013be:	4798      	blx	r3
100013c0:	4643      	mov	r3, r8
100013c2:	681a      	ldr	r2, [r3, #0]
100013c4:	2800      	cmp	r0, #0
100013c6:	d02d      	beq.n	10001424 <best_effort_wfe_or_timeout+0x1a8>
100013c8:	465b      	mov	r3, fp
100013ca:	4659      	mov	r1, fp
100013cc:	005b      	lsls	r3, r3, #1
100013ce:	445b      	add	r3, fp
100013d0:	3b03      	subs	r3, #3
100013d2:	18d3      	adds	r3, r2, r3
100013d4:	444a      	add	r2, r9
100013d6:	7091      	strb	r1, [r2, #2]
100013d8:	7819      	ldrb	r1, [r3, #0]
100013da:	2900      	cmp	r1, #0
100013dc:	d000      	beq.n	100013e0 <best_effort_wfe_or_timeout+0x164>
100013de:	7051      	strb	r1, [r2, #1]
100013e0:	701e      	strb	r6, [r3, #0]
100013e2:	465a      	mov	r2, fp
100013e4:	4643      	mov	r3, r8
100013e6:	735a      	strb	r2, [r3, #13]
100013e8:	455e      	cmp	r6, fp
100013ea:	d02b      	beq.n	10001444 <best_effort_wfe_or_timeout+0x1c8>
100013ec:	2300      	movs	r3, #0
100013ee:	4698      	mov	r8, r3
100013f0:	68eb      	ldr	r3, [r5, #12]
100013f2:	199b      	adds	r3, r3, r6
100013f4:	3b01      	subs	r3, #1
100013f6:	781b      	ldrb	r3, [r3, #0]
100013f8:	e777      	b.n	100012ea <best_effort_wfe_or_timeout+0x6e>
100013fa:	4a1a      	ldr	r2, [pc, #104]	; (10001464 <best_effort_wfe_or_timeout+0x1e8>)
100013fc:	6a53      	ldr	r3, [r2, #36]	; 0x24
100013fe:	429c      	cmp	r4, r3
10001400:	d800      	bhi.n	10001404 <best_effort_wfe_or_timeout+0x188>
10001402:	e74e      	b.n	100012a2 <best_effort_wfe_or_timeout+0x26>
10001404:	2300      	movs	r3, #0
10001406:	4698      	mov	r8, r3
10001408:	e755      	b.n	100012b6 <best_effort_wfe_or_timeout+0x3a>
1000140a:	22ff      	movs	r2, #255	; 0xff
1000140c:	401a      	ands	r2, r3
1000140e:	68ee      	ldr	r6, [r5, #12]
10001410:	0a1b      	lsrs	r3, r3, #8
10001412:	46b4      	mov	ip, r6
10001414:	4462      	add	r2, ip
10001416:	3a01      	subs	r2, #1
10001418:	7812      	ldrb	r2, [r2, #0]
1000141a:	429a      	cmp	r2, r3
1000141c:	d196      	bne.n	1000134c <best_effort_wfe_or_timeout+0xd0>
1000141e:	f000 fb2f 	bl	10001a80 <ph_remove_and_free_node>
10001422:	e793      	b.n	1000134c <best_effort_wfe_or_timeout+0xd0>
10001424:	464b      	mov	r3, r9
10001426:	18d1      	adds	r1, r2, r3
10001428:	465b      	mov	r3, fp
1000142a:	005b      	lsls	r3, r3, #1
1000142c:	445b      	add	r3, fp
1000142e:	3b03      	subs	r3, #3
10001430:	18d3      	adds	r3, r2, r3
10001432:	709e      	strb	r6, [r3, #2]
10001434:	780a      	ldrb	r2, [r1, #0]
10001436:	2a00      	cmp	r2, #0
10001438:	d000      	beq.n	1000143c <best_effort_wfe_or_timeout+0x1c0>
1000143a:	705a      	strb	r2, [r3, #1]
1000143c:	465b      	mov	r3, fp
1000143e:	700b      	strb	r3, [r1, #0]
10001440:	4643      	mov	r3, r8
10001442:	735e      	strb	r6, [r3, #13]
10001444:	7d28      	ldrb	r0, [r5, #20]
10001446:	003a      	movs	r2, r7
10001448:	0023      	movs	r3, r4
1000144a:	f000 f8fd 	bl	10001648 <hardware_alarm_set_target>
1000144e:	4680      	mov	r8, r0
10001450:	2800      	cmp	r0, #0
10001452:	d0cb      	beq.n	100013ec <best_effort_wfe_or_timeout+0x170>
10001454:	0031      	movs	r1, r6
10001456:	6828      	ldr	r0, [r5, #0]
10001458:	f000 fb12 	bl	10001a80 <ph_remove_and_free_node>
1000145c:	e7c8      	b.n	100013f0 <best_effort_wfe_or_timeout+0x174>
1000145e:	612e      	str	r6, [r5, #16]
10001460:	e774      	b.n	1000134c <best_effort_wfe_or_timeout+0xd0>
10001462:	46c0      	nop			; (mov r8, r8)
10001464:	40054000 	.word	0x40054000
10001468:	20000e74 	.word	0x20000e74
1000146c:	0fffffff 	.word	0x0fffffff
10001470:	10000b41 	.word	0x10000b41

10001474 <hardware_alarm_irq_handler>:
10001474:	b5f8      	push	{r3, r4, r5, r6, r7, lr}
10001476:	f3ef 8305 	mrs	r3, IPSR
1000147a:	46ce      	mov	lr, r9
1000147c:	4647      	mov	r7, r8
1000147e:	0018      	movs	r0, r3
10001480:	b580      	push	{r7, lr}
10001482:	3810      	subs	r0, #16
10001484:	f3ef 8c10 	mrs	ip, PRIMASK
10001488:	b672      	cpsid	i
1000148a:	491c      	ldr	r1, [pc, #112]	; (100014fc <hardware_alarm_irq_handler+0x88>)
1000148c:	680a      	ldr	r2, [r1, #0]
1000148e:	2a00      	cmp	r2, #0
10001490:	d0fc      	beq.n	1000148c <hardware_alarm_irq_handler+0x18>
10001492:	f3bf 8f5f 	dmb	sy
10001496:	2401      	movs	r4, #1
10001498:	0022      	movs	r2, r4
1000149a:	4082      	lsls	r2, r0
1000149c:	4918      	ldr	r1, [pc, #96]	; (10001500 <hardware_alarm_irq_handler+0x8c>)
1000149e:	4e19      	ldr	r6, [pc, #100]	; (10001504 <hardware_alarm_irq_handler+0x90>)
100014a0:	6372      	str	r2, [r6, #52]	; 0x34
100014a2:	600a      	str	r2, [r1, #0]
100014a4:	4918      	ldr	r1, [pc, #96]	; (10001508 <hardware_alarm_irq_handler+0x94>)
100014a6:	780d      	ldrb	r5, [r1, #0]
100014a8:	4689      	mov	r9, r1
100014aa:	0029      	movs	r1, r5
100014ac:	40c1      	lsrs	r1, r0
100014ae:	4688      	mov	r8, r1
100014b0:	4647      	mov	r7, r8
100014b2:	2100      	movs	r1, #0
100014b4:	423c      	tst	r4, r7
100014b6:	d00b      	beq.n	100014d0 <hardware_alarm_irq_handler+0x5c>
100014b8:	6a74      	ldr	r4, [r6, #36]	; 0x24
100014ba:	4e14      	ldr	r6, [pc, #80]	; (1000150c <hardware_alarm_irq_handler+0x98>)
100014bc:	46a0      	mov	r8, r4
100014be:	0084      	lsls	r4, r0, #2
100014c0:	59a6      	ldr	r6, [r4, r6]
100014c2:	45b0      	cmp	r8, r6
100014c4:	d312      	bcc.n	100014ec <hardware_alarm_irq_handler+0x78>
100014c6:	4b12      	ldr	r3, [pc, #72]	; (10001510 <hardware_alarm_irq_handler+0x9c>)
100014c8:	4395      	bics	r5, r2
100014ca:	58e1      	ldr	r1, [r4, r3]
100014cc:	464b      	mov	r3, r9
100014ce:	701d      	strb	r5, [r3, #0]
100014d0:	f3bf 8f5f 	dmb	sy
100014d4:	2200      	movs	r2, #0
100014d6:	4b09      	ldr	r3, [pc, #36]	; (100014fc <hardware_alarm_irq_handler+0x88>)
100014d8:	601a      	str	r2, [r3, #0]
100014da:	f38c 8810 	msr	PRIMASK, ip
100014de:	2900      	cmp	r1, #0
100014e0:	d000      	beq.n	100014e4 <hardware_alarm_irq_handler+0x70>
100014e2:	4788      	blx	r1
100014e4:	bc0c      	pop	{r2, r3}
100014e6:	4690      	mov	r8, r2
100014e8:	4699      	mov	r9, r3
100014ea:	bdf8      	pop	{r3, r4, r5, r6, r7, pc}
100014ec:	4a09      	ldr	r2, [pc, #36]	; (10001514 <hardware_alarm_irq_handler+0xa0>)
100014ee:	009b      	lsls	r3, r3, #2
100014f0:	4690      	mov	r8, r2
100014f2:	4443      	add	r3, r8
100014f4:	681a      	ldr	r2, [r3, #0]
100014f6:	601a      	str	r2, [r3, #0]
100014f8:	e7ea      	b.n	100014d0 <hardware_alarm_irq_handler+0x5c>
100014fa:	46c0      	nop			; (mov r8, r8)
100014fc:	d0000128 	.word	0xd0000128
10001500:	4005703c 	.word	0x4005703c
10001504:	40054000 	.word	0x40054000
10001508:	2000225d 	.word	0x2000225d
1000150c:	20002234 	.word	0x20002234
10001510:	20001c3c 	.word	0x20001c3c
10001514:	40053fd0 	.word	0x40053fd0

10001518 <hardware_alarm_claim>:
10001518:	b510      	push	{r4, lr}
1000151a:	0001      	movs	r1, r0
1000151c:	4a02      	ldr	r2, [pc, #8]	; (10001528 <hardware_alarm_claim+0x10>)
1000151e:	4803      	ldr	r0, [pc, #12]	; (1000152c <hardware_alarm_claim+0x14>)
10001520:	f7fe ff6e 	bl	10000400 <hw_claim_or_assert>
10001524:	bd10      	pop	{r4, pc}
10001526:	46c0      	nop			; (mov r8, r8)
10001528:	10006020 	.word	0x10006020
1000152c:	20002258 	.word	0x20002258

10001530 <time_us_64>:
10001530:	4a04      	ldr	r2, [pc, #16]	; (10001544 <time_us_64+0x14>)
10001532:	6a51      	ldr	r1, [r2, #36]	; 0x24
10001534:	e000      	b.n	10001538 <time_us_64+0x8>
10001536:	0019      	movs	r1, r3
10001538:	6a90      	ldr	r0, [r2, #40]	; 0x28
1000153a:	6a53      	ldr	r3, [r2, #36]	; 0x24
1000153c:	4299      	cmp	r1, r3
1000153e:	d1fa      	bne.n	10001536 <time_us_64+0x6>
10001540:	4770      	bx	lr
10001542:	46c0      	nop			; (mov r8, r8)
10001544:	40054000 	.word	0x40054000

10001548 <busy_wait_us>:
10001548:	4a13      	ldr	r2, [pc, #76]	; (10001598 <busy_wait_us+0x50>)
1000154a:	b530      	push	{r4, r5, lr}
1000154c:	6a54      	ldr	r4, [r2, #36]	; 0x24
1000154e:	e000      	b.n	10001552 <busy_wait_us+0xa>
10001550:	001c      	movs	r4, r3
10001552:	6a95      	ldr	r5, [r2, #40]	; 0x28
10001554:	6a53      	ldr	r3, [r2, #36]	; 0x24
10001556:	42a3      	cmp	r3, r4
10001558:	d1fa      	bne.n	10001550 <busy_wait_us+0x8>
1000155a:	002a      	movs	r2, r5
1000155c:	0023      	movs	r3, r4
1000155e:	1880      	adds	r0, r0, r2
10001560:	4159      	adcs	r1, r3
10001562:	428c      	cmp	r4, r1
10001564:	d811      	bhi.n	1000158a <busy_wait_us+0x42>
10001566:	d00e      	beq.n	10001586 <busy_wait_us+0x3e>
10001568:	000c      	movs	r4, r1
1000156a:	4a0b      	ldr	r2, [pc, #44]	; (10001598 <busy_wait_us+0x50>)
1000156c:	6a53      	ldr	r3, [r2, #36]	; 0x24
1000156e:	42a3      	cmp	r3, r4
10001570:	d3fc      	bcc.n	1000156c <busy_wait_us+0x24>
10001572:	d107      	bne.n	10001584 <busy_wait_us+0x3c>
10001574:	4a08      	ldr	r2, [pc, #32]	; (10001598 <busy_wait_us+0x50>)
10001576:	e002      	b.n	1000157e <busy_wait_us+0x36>
10001578:	6a51      	ldr	r1, [r2, #36]	; 0x24
1000157a:	4299      	cmp	r1, r3
1000157c:	d102      	bne.n	10001584 <busy_wait_us+0x3c>
1000157e:	6a91      	ldr	r1, [r2, #40]	; 0x28
10001580:	4281      	cmp	r1, r0
10001582:	d3f9      	bcc.n	10001578 <busy_wait_us+0x30>
10001584:	bd30      	pop	{r4, r5, pc}
10001586:	4285      	cmp	r5, r0
10001588:	d9ee      	bls.n	10001568 <busy_wait_us+0x20>
1000158a:	2401      	movs	r4, #1
1000158c:	2001      	movs	r0, #1
1000158e:	4240      	negs	r0, r0
10001590:	17c1      	asrs	r1, r0, #31
10001592:	4264      	negs	r4, r4
10001594:	e7e9      	b.n	1000156a <busy_wait_us+0x22>
10001596:	46c0      	nop			; (mov r8, r8)
10001598:	40054000 	.word	0x40054000

1000159c <busy_wait_until>:
1000159c:	4a06      	ldr	r2, [pc, #24]	; (100015b8 <busy_wait_until+0x1c>)
1000159e:	6a53      	ldr	r3, [r2, #36]	; 0x24
100015a0:	4299      	cmp	r1, r3
100015a2:	d8fc      	bhi.n	1000159e <busy_wait_until+0x2>
100015a4:	d107      	bne.n	100015b6 <busy_wait_until+0x1a>
100015a6:	4b04      	ldr	r3, [pc, #16]	; (100015b8 <busy_wait_until+0x1c>)
100015a8:	e002      	b.n	100015b0 <busy_wait_until+0x14>
100015aa:	6a5a      	ldr	r2, [r3, #36]	; 0x24
100015ac:	4291      	cmp	r1, r2
100015ae:	d102      	bne.n	100015b6 <busy_wait_until+0x1a>
100015b0:	6a9a      	ldr	r2, [r3, #40]	; 0x28
100015b2:	4282      	cmp	r2, r0
100015b4:	d3f9      	bcc.n	100015aa <busy_wait_until+0xe>
100015b6:	4770      	bx	lr
100015b8:	40054000 	.word	0x40054000

100015bc <hardware_alarm_set_callback>:
100015bc:	b570      	push	{r4, r5, r6, lr}
100015be:	0004      	movs	r4, r0
100015c0:	000d      	movs	r5, r1
100015c2:	f3ef 8610 	mrs	r6, PRIMASK
100015c6:	b672      	cpsid	i
100015c8:	4a1a      	ldr	r2, [pc, #104]	; (10001634 <hardware_alarm_set_callback+0x78>)
100015ca:	6813      	ldr	r3, [r2, #0]
100015cc:	2b00      	cmp	r3, #0
100015ce:	d0fc      	beq.n	100015ca <hardware_alarm_set_callback+0xe>
100015d0:	f3bf 8f5f 	dmb	sy
100015d4:	2d00      	cmp	r5, #0
100015d6:	d01b      	beq.n	10001610 <hardware_alarm_set_callback+0x54>
100015d8:	0020      	movs	r0, r4
100015da:	f7fe ffd3 	bl	10000584 <irq_get_vtable_handler>
100015de:	4916      	ldr	r1, [pc, #88]	; (10001638 <hardware_alarm_set_callback+0x7c>)
100015e0:	4288      	cmp	r0, r1
100015e2:	d00a      	beq.n	100015fa <hardware_alarm_set_callback+0x3e>
100015e4:	0020      	movs	r0, r4
100015e6:	f7fe ffd5 	bl	10000594 <irq_set_exclusive_handler>
100015ea:	2101      	movs	r1, #1
100015ec:	0020      	movs	r0, r4
100015ee:	f7fe ff99 	bl	10000524 <irq_set_enabled>
100015f2:	2301      	movs	r3, #1
100015f4:	40a3      	lsls	r3, r4
100015f6:	4a11      	ldr	r2, [pc, #68]	; (1000163c <hardware_alarm_set_callback+0x80>)
100015f8:	6013      	str	r3, [r2, #0]
100015fa:	4b11      	ldr	r3, [pc, #68]	; (10001640 <hardware_alarm_set_callback+0x84>)
100015fc:	00a4      	lsls	r4, r4, #2
100015fe:	50e5      	str	r5, [r4, r3]
10001600:	f3bf 8f5f 	dmb	sy
10001604:	2200      	movs	r2, #0
10001606:	4b0b      	ldr	r3, [pc, #44]	; (10001634 <hardware_alarm_set_callback+0x78>)
10001608:	601a      	str	r2, [r3, #0]
1000160a:	f386 8810 	msr	PRIMASK, r6
1000160e:	bd70      	pop	{r4, r5, r6, pc}
10001610:	4b0b      	ldr	r3, [pc, #44]	; (10001640 <hardware_alarm_set_callback+0x84>)
10001612:	00a2      	lsls	r2, r4, #2
10001614:	50d5      	str	r5, [r2, r3]
10001616:	2201      	movs	r2, #1
10001618:	40a2      	lsls	r2, r4
1000161a:	490a      	ldr	r1, [pc, #40]	; (10001644 <hardware_alarm_set_callback+0x88>)
1000161c:	0020      	movs	r0, r4
1000161e:	780b      	ldrb	r3, [r1, #0]
10001620:	4393      	bics	r3, r2
10001622:	700b      	strb	r3, [r1, #0]
10001624:	4904      	ldr	r1, [pc, #16]	; (10001638 <hardware_alarm_set_callback+0x7c>)
10001626:	f7ff f8c7 	bl	100007b8 <irq_remove_handler>
1000162a:	2100      	movs	r1, #0
1000162c:	0020      	movs	r0, r4
1000162e:	f7fe ff79 	bl	10000524 <irq_set_enabled>
10001632:	e7e5      	b.n	10001600 <hardware_alarm_set_callback+0x44>
10001634:	d0000128 	.word	0xd0000128
10001638:	10001475 	.word	0x10001475
1000163c:	40056038 	.word	0x40056038
10001640:	20001c3c 	.word	0x20001c3c
10001644:	2000225d 	.word	0x2000225d

10001648 <hardware_alarm_set_target>:
10001648:	b5f0      	push	{r4, r5, r6, r7, lr}
1000164a:	46d6      	mov	lr, sl
1000164c:	464f      	mov	r7, r9
1000164e:	4646      	mov	r6, r8
10001650:	4c2f      	ldr	r4, [pc, #188]	; (10001710 <hardware_alarm_set_target+0xc8>)
10001652:	b5c0      	push	{r6, r7, lr}
10001654:	6a65      	ldr	r5, [r4, #36]	; 0x24
10001656:	e000      	b.n	1000165a <hardware_alarm_set_target+0x12>
10001658:	000d      	movs	r5, r1
1000165a:	6aa6      	ldr	r6, [r4, #40]	; 0x28
1000165c:	6a61      	ldr	r1, [r4, #36]	; 0x24
1000165e:	42a9      	cmp	r1, r5
10001660:	d1fa      	bne.n	10001658 <hardware_alarm_set_target+0x10>
10001662:	42ab      	cmp	r3, r5
10001664:	d949      	bls.n	100016fa <hardware_alarm_set_target+0xb2>
10001666:	f3ef 8910 	mrs	r9, PRIMASK
1000166a:	b672      	cpsid	i
1000166c:	4c29      	ldr	r4, [pc, #164]	; (10001714 <hardware_alarm_set_target+0xcc>)
1000166e:	6821      	ldr	r1, [r4, #0]
10001670:	2900      	cmp	r1, #0
10001672:	d0fc      	beq.n	1000166e <hardware_alarm_set_target+0x26>
10001674:	f3bf 8f5f 	dmb	sy
10001678:	2601      	movs	r6, #1
1000167a:	4927      	ldr	r1, [pc, #156]	; (10001718 <hardware_alarm_set_target+0xd0>)
1000167c:	4086      	lsls	r6, r0
1000167e:	468c      	mov	ip, r1
10001680:	7809      	ldrb	r1, [r1, #0]
10001682:	4d26      	ldr	r5, [pc, #152]	; (1000171c <hardware_alarm_set_target+0xd4>)
10001684:	000f      	movs	r7, r1
10001686:	4337      	orrs	r7, r6
10001688:	4688      	mov	r8, r1
1000168a:	b2f9      	uxtb	r1, r7
1000168c:	468a      	mov	sl, r1
1000168e:	4661      	mov	r1, ip
10001690:	4654      	mov	r4, sl
10001692:	700c      	strb	r4, [r1, #0]
10001694:	491e      	ldr	r1, [pc, #120]	; (10001710 <hardware_alarm_set_target+0xc8>)
10001696:	1d04      	adds	r4, r0, #4
10001698:	00a4      	lsls	r4, r4, #2
1000169a:	634e      	str	r6, [r1, #52]	; 0x34
1000169c:	5062      	str	r2, [r4, r1]
1000169e:	0084      	lsls	r4, r0, #2
100016a0:	5163      	str	r3, [r4, r5]
100016a2:	6a0d      	ldr	r5, [r1, #32]
100016a4:	2400      	movs	r4, #0
100016a6:	4235      	tst	r5, r6
100016a8:	d01a      	beq.n	100016e0 <hardware_alarm_set_target+0x98>
100016aa:	6a4d      	ldr	r5, [r1, #36]	; 0x24
100016ac:	e000      	b.n	100016b0 <hardware_alarm_set_target+0x68>
100016ae:	0025      	movs	r5, r4
100016b0:	6a8f      	ldr	r7, [r1, #40]	; 0x28
100016b2:	6a4c      	ldr	r4, [r1, #36]	; 0x24
100016b4:	42ac      	cmp	r4, r5
100016b6:	d1fa      	bne.n	100016ae <hardware_alarm_set_target+0x66>
100016b8:	42ab      	cmp	r3, r5
100016ba:	d824      	bhi.n	10001706 <hardware_alarm_set_target+0xbe>
100016bc:	d101      	bne.n	100016c2 <hardware_alarm_set_target+0x7a>
100016be:	42ba      	cmp	r2, r7
100016c0:	d821      	bhi.n	10001706 <hardware_alarm_set_target+0xbe>
100016c2:	45d0      	cmp	r8, sl
100016c4:	d021      	beq.n	1000170a <hardware_alarm_set_target+0xc2>
100016c6:	4b12      	ldr	r3, [pc, #72]	; (10001710 <hardware_alarm_set_target+0xc8>)
100016c8:	4a15      	ldr	r2, [pc, #84]	; (10001720 <hardware_alarm_set_target+0xd8>)
100016ca:	621e      	str	r6, [r3, #32]
100016cc:	635e      	str	r6, [r3, #52]	; 0x34
100016ce:	231f      	movs	r3, #31
100016d0:	4018      	ands	r0, r3
100016d2:	3b1e      	subs	r3, #30
100016d4:	4083      	lsls	r3, r0
100016d6:	6013      	str	r3, [r2, #0]
100016d8:	4663      	mov	r3, ip
100016da:	4642      	mov	r2, r8
100016dc:	2401      	movs	r4, #1
100016de:	701a      	strb	r2, [r3, #0]
100016e0:	f3bf 8f5f 	dmb	sy
100016e4:	2200      	movs	r2, #0
100016e6:	4b0b      	ldr	r3, [pc, #44]	; (10001714 <hardware_alarm_set_target+0xcc>)
100016e8:	601a      	str	r2, [r3, #0]
100016ea:	f389 8810 	msr	PRIMASK, r9
100016ee:	0020      	movs	r0, r4
100016f0:	bc1c      	pop	{r2, r3, r4}
100016f2:	4690      	mov	r8, r2
100016f4:	4699      	mov	r9, r3
100016f6:	46a2      	mov	sl, r4
100016f8:	bdf0      	pop	{r4, r5, r6, r7, pc}
100016fa:	42ab      	cmp	r3, r5
100016fc:	d101      	bne.n	10001702 <hardware_alarm_set_target+0xba>
100016fe:	42b2      	cmp	r2, r6
10001700:	d8b1      	bhi.n	10001666 <hardware_alarm_set_target+0x1e>
10001702:	2401      	movs	r4, #1
10001704:	e7f3      	b.n	100016ee <hardware_alarm_set_target+0xa6>
10001706:	2400      	movs	r4, #0
10001708:	e7ea      	b.n	100016e0 <hardware_alarm_set_target+0x98>
1000170a:	2401      	movs	r4, #1
1000170c:	e7e8      	b.n	100016e0 <hardware_alarm_set_target+0x98>
1000170e:	46c0      	nop			; (mov r8, r8)
10001710:	40054000 	.word	0x40054000
10001714:	d0000128 	.word	0xd0000128
10001718:	2000225d 	.word	0x2000225d
1000171c:	20002234 	.word	0x20002234
10001720:	e000e280 	.word	0xe000e280

10001724 <hardware_alarm_cancel>:
10001724:	b510      	push	{r4, lr}
10001726:	f3ef 8410 	mrs	r4, PRIMASK
1000172a:	b672      	cpsid	i
1000172c:	490a      	ldr	r1, [pc, #40]	; (10001758 <hardware_alarm_cancel+0x34>)
1000172e:	680b      	ldr	r3, [r1, #0]
10001730:	2b00      	cmp	r3, #0
10001732:	d0fc      	beq.n	1000172e <hardware_alarm_cancel+0xa>
10001734:	f3bf 8f5f 	dmb	sy
10001738:	2301      	movs	r3, #1
1000173a:	4083      	lsls	r3, r0
1000173c:	4a07      	ldr	r2, [pc, #28]	; (1000175c <hardware_alarm_cancel+0x38>)
1000173e:	4808      	ldr	r0, [pc, #32]	; (10001760 <hardware_alarm_cancel+0x3c>)
10001740:	6213      	str	r3, [r2, #32]
10001742:	7802      	ldrb	r2, [r0, #0]
10001744:	439a      	bics	r2, r3
10001746:	7002      	strb	r2, [r0, #0]
10001748:	f3bf 8f5f 	dmb	sy
1000174c:	2300      	movs	r3, #0
1000174e:	600b      	str	r3, [r1, #0]
10001750:	f384 8810 	msr	PRIMASK, r4
10001754:	bd10      	pop	{r4, pc}
10001756:	46c0      	nop			; (mov r8, r8)
10001758:	d0000128 	.word	0xd0000128
1000175c:	40054000 	.word	0x40054000
10001760:	2000225d 	.word	0x2000225d

10001764 <ph_merge_two_pass.part.3>:
10001764:	b5f8      	push	{r3, r4, r5, r6, r7, lr}
10001766:	464e      	mov	r6, r9
10001768:	4645      	mov	r5, r8
1000176a:	46de      	mov	lr, fp
1000176c:	4657      	mov	r7, sl
1000176e:	b5e0      	push	{r5, r6, r7, lr}
10001770:	004c      	lsls	r4, r1, #1
10001772:	1864      	adds	r4, r4, r1
10001774:	6803      	ldr	r3, [r0, #0]
10001776:	3c03      	subs	r4, #3
10001778:	191a      	adds	r2, r3, r4
1000177a:	000d      	movs	r5, r1
1000177c:	7851      	ldrb	r1, [r2, #1]
1000177e:	0006      	movs	r6, r0
10001780:	4689      	mov	r9, r1
10001782:	2900      	cmp	r1, #0
10001784:	d106      	bne.n	10001794 <ph_merge_two_pass.part.3+0x30>
10001786:	0028      	movs	r0, r5
10001788:	bc3c      	pop	{r2, r3, r4, r5}
1000178a:	4690      	mov	r8, r2
1000178c:	4699      	mov	r9, r3
1000178e:	46a2      	mov	sl, r4
10001790:	46ab      	mov	fp, r5
10001792:	bdf8      	pop	{r3, r4, r5, r6, r7, pc}
10001794:	004f      	lsls	r7, r1, #1
10001796:	444f      	add	r7, r9
10001798:	3f03      	subs	r7, #3
1000179a:	19d8      	adds	r0, r3, r7
1000179c:	7841      	ldrb	r1, [r0, #1]
1000179e:	4688      	mov	r8, r1
100017a0:	2100      	movs	r1, #0
100017a2:	7041      	strb	r1, [r0, #1]
100017a4:	7051      	strb	r1, [r2, #1]
100017a6:	2d00      	cmp	r5, #0
100017a8:	d012      	beq.n	100017d0 <ph_merge_two_pass.part.3+0x6c>
100017aa:	6873      	ldr	r3, [r6, #4]
100017ac:	464a      	mov	r2, r9
100017ae:	0029      	movs	r1, r5
100017b0:	68b0      	ldr	r0, [r6, #8]
100017b2:	4798      	blx	r3
100017b4:	6833      	ldr	r3, [r6, #0]
100017b6:	2800      	cmp	r0, #0
100017b8:	d073      	beq.n	100018a2 <ph_merge_two_pass.part.3+0x13e>
100017ba:	19df      	adds	r7, r3, r7
100017bc:	191a      	adds	r2, r3, r4
100017be:	70bd      	strb	r5, [r7, #2]
100017c0:	7811      	ldrb	r1, [r2, #0]
100017c2:	2900      	cmp	r1, #0
100017c4:	d000      	beq.n	100017c8 <ph_merge_two_pass.part.3+0x64>
100017c6:	7079      	strb	r1, [r7, #1]
100017c8:	4649      	mov	r1, r9
100017ca:	0027      	movs	r7, r4
100017cc:	7011      	strb	r1, [r2, #0]
100017ce:	e000      	b.n	100017d2 <ph_merge_two_pass.part.3+0x6e>
100017d0:	464d      	mov	r5, r9
100017d2:	4642      	mov	r2, r8
100017d4:	2a00      	cmp	r2, #0
100017d6:	d0d6      	beq.n	10001786 <ph_merge_two_pass.part.3+0x22>
100017d8:	0054      	lsls	r4, r2, #1
100017da:	4444      	add	r4, r8
100017dc:	3c03      	subs	r4, #3
100017de:	191a      	adds	r2, r3, r4
100017e0:	7851      	ldrb	r1, [r2, #1]
100017e2:	4689      	mov	r9, r1
100017e4:	2900      	cmp	r1, #0
100017e6:	d111      	bne.n	1000180c <ph_merge_two_pass.part.3+0xa8>
100017e8:	6873      	ldr	r3, [r6, #4]
100017ea:	4642      	mov	r2, r8
100017ec:	0029      	movs	r1, r5
100017ee:	68b0      	ldr	r0, [r6, #8]
100017f0:	4798      	blx	r3
100017f2:	6833      	ldr	r3, [r6, #0]
100017f4:	2800      	cmp	r0, #0
100017f6:	d049      	beq.n	1000188c <ph_merge_two_pass.part.3+0x128>
100017f8:	191c      	adds	r4, r3, r4
100017fa:	19df      	adds	r7, r3, r7
100017fc:	70a5      	strb	r5, [r4, #2]
100017fe:	783b      	ldrb	r3, [r7, #0]
10001800:	2b00      	cmp	r3, #0
10001802:	d000      	beq.n	10001806 <ph_merge_two_pass.part.3+0xa2>
10001804:	7063      	strb	r3, [r4, #1]
10001806:	4643      	mov	r3, r8
10001808:	703b      	strb	r3, [r7, #0]
1000180a:	e7bc      	b.n	10001786 <ph_merge_two_pass.part.3+0x22>
1000180c:	0049      	lsls	r1, r1, #1
1000180e:	4449      	add	r1, r9
10001810:	3903      	subs	r1, #3
10001812:	468a      	mov	sl, r1
10001814:	4453      	add	r3, sl
10001816:	7859      	ldrb	r1, [r3, #1]
10001818:	468b      	mov	fp, r1
1000181a:	2100      	movs	r1, #0
1000181c:	7059      	strb	r1, [r3, #1]
1000181e:	7051      	strb	r1, [r2, #1]
10001820:	6873      	ldr	r3, [r6, #4]
10001822:	464a      	mov	r2, r9
10001824:	4641      	mov	r1, r8
10001826:	68b0      	ldr	r0, [r6, #8]
10001828:	4798      	blx	r3
1000182a:	6833      	ldr	r3, [r6, #0]
1000182c:	2800      	cmp	r0, #0
1000182e:	d143      	bne.n	100018b8 <ph_merge_two_pass.part.3+0x154>
10001830:	4652      	mov	r2, sl
10001832:	191c      	adds	r4, r3, r4
10001834:	189a      	adds	r2, r3, r2
10001836:	464b      	mov	r3, r9
10001838:	70a3      	strb	r3, [r4, #2]
1000183a:	7813      	ldrb	r3, [r2, #0]
1000183c:	2b00      	cmp	r3, #0
1000183e:	d000      	beq.n	10001842 <ph_merge_two_pass.part.3+0xde>
10001840:	7063      	strb	r3, [r4, #1]
10001842:	4643      	mov	r3, r8
10001844:	4654      	mov	r4, sl
10001846:	46c8      	mov	r8, r9
10001848:	7013      	strb	r3, [r2, #0]
1000184a:	465b      	mov	r3, fp
1000184c:	2b00      	cmp	r3, #0
1000184e:	d0cb      	beq.n	100017e8 <ph_merge_two_pass.part.3+0x84>
10001850:	4659      	mov	r1, fp
10001852:	0030      	movs	r0, r6
10001854:	f7ff ff86 	bl	10001764 <ph_merge_two_pass.part.3>
10001858:	4681      	mov	r9, r0
1000185a:	2800      	cmp	r0, #0
1000185c:	d0c4      	beq.n	100017e8 <ph_merge_two_pass.part.3+0x84>
1000185e:	0002      	movs	r2, r0
10001860:	4641      	mov	r1, r8
10001862:	68b0      	ldr	r0, [r6, #8]
10001864:	6873      	ldr	r3, [r6, #4]
10001866:	4798      	blx	r3
10001868:	6832      	ldr	r2, [r6, #0]
1000186a:	2800      	cmp	r0, #0
1000186c:	d02f      	beq.n	100018ce <ph_merge_two_pass.part.3+0x16a>
1000186e:	464b      	mov	r3, r9
10001870:	005b      	lsls	r3, r3, #1
10001872:	444b      	add	r3, r9
10001874:	3b03      	subs	r3, #3
10001876:	1911      	adds	r1, r2, r4
10001878:	18d3      	adds	r3, r2, r3
1000187a:	4642      	mov	r2, r8
1000187c:	709a      	strb	r2, [r3, #2]
1000187e:	780a      	ldrb	r2, [r1, #0]
10001880:	2a00      	cmp	r2, #0
10001882:	d000      	beq.n	10001886 <ph_merge_two_pass.part.3+0x122>
10001884:	705a      	strb	r2, [r3, #1]
10001886:	464b      	mov	r3, r9
10001888:	700b      	strb	r3, [r1, #0]
1000188a:	e7ad      	b.n	100017e8 <ph_merge_two_pass.part.3+0x84>
1000188c:	191c      	adds	r4, r3, r4
1000188e:	19df      	adds	r7, r3, r7
10001890:	4643      	mov	r3, r8
10001892:	70bb      	strb	r3, [r7, #2]
10001894:	7823      	ldrb	r3, [r4, #0]
10001896:	2b00      	cmp	r3, #0
10001898:	d000      	beq.n	1000189c <ph_merge_two_pass.part.3+0x138>
1000189a:	707b      	strb	r3, [r7, #1]
1000189c:	7025      	strb	r5, [r4, #0]
1000189e:	4645      	mov	r5, r8
100018a0:	e771      	b.n	10001786 <ph_merge_two_pass.part.3+0x22>
100018a2:	4649      	mov	r1, r9
100018a4:	191c      	adds	r4, r3, r4
100018a6:	19da      	adds	r2, r3, r7
100018a8:	70a1      	strb	r1, [r4, #2]
100018aa:	7811      	ldrb	r1, [r2, #0]
100018ac:	2900      	cmp	r1, #0
100018ae:	d000      	beq.n	100018b2 <ph_merge_two_pass.part.3+0x14e>
100018b0:	7061      	strb	r1, [r4, #1]
100018b2:	7015      	strb	r5, [r2, #0]
100018b4:	464d      	mov	r5, r9
100018b6:	e78c      	b.n	100017d2 <ph_merge_two_pass.part.3+0x6e>
100018b8:	4641      	mov	r1, r8
100018ba:	191a      	adds	r2, r3, r4
100018bc:	4453      	add	r3, sl
100018be:	7099      	strb	r1, [r3, #2]
100018c0:	7811      	ldrb	r1, [r2, #0]
100018c2:	2900      	cmp	r1, #0
100018c4:	d000      	beq.n	100018c8 <ph_merge_two_pass.part.3+0x164>
100018c6:	7059      	strb	r1, [r3, #1]
100018c8:	464b      	mov	r3, r9
100018ca:	7013      	strb	r3, [r2, #0]
100018cc:	e7bd      	b.n	1000184a <ph_merge_two_pass.part.3+0xe6>
100018ce:	464b      	mov	r3, r9
100018d0:	005b      	lsls	r3, r3, #1
100018d2:	444b      	add	r3, r9
100018d4:	3b03      	subs	r3, #3
100018d6:	18d1      	adds	r1, r2, r3
100018d8:	1914      	adds	r4, r2, r4
100018da:	464a      	mov	r2, r9
100018dc:	70a2      	strb	r2, [r4, #2]
100018de:	780a      	ldrb	r2, [r1, #0]
100018e0:	2a00      	cmp	r2, #0
100018e2:	d000      	beq.n	100018e6 <ph_merge_two_pass.part.3+0x182>
100018e4:	7062      	strb	r2, [r4, #1]
100018e6:	4642      	mov	r2, r8
100018e8:	001c      	movs	r4, r3
100018ea:	700a      	strb	r2, [r1, #0]
100018ec:	46c8      	mov	r8, r9
100018ee:	e77b      	b.n	100017e8 <ph_merge_two_pass.part.3+0x84>

100018f0 <ph_post_alloc_init>:
100018f0:	b510      	push	{r4, lr}
100018f2:	6083      	str	r3, [r0, #8]
100018f4:	2300      	movs	r3, #0
100018f6:	b2cc      	uxtb	r4, r1
100018f8:	7343      	strb	r3, [r0, #13]
100018fa:	3301      	adds	r3, #1
100018fc:	7304      	strb	r4, [r0, #12]
100018fe:	6042      	str	r2, [r0, #4]
10001900:	7383      	strb	r3, [r0, #14]
10001902:	73c4      	strb	r4, [r0, #15]
10001904:	6800      	ldr	r0, [r0, #0]
10001906:	2c01      	cmp	r4, #1
10001908:	d907      	bls.n	1000191a <ph_post_alloc_init+0x2a>
1000190a:	2301      	movs	r3, #1
1000190c:	1c42      	adds	r2, r0, #1
1000190e:	3301      	adds	r3, #1
10001910:	b2db      	uxtb	r3, r3
10001912:	7013      	strb	r3, [r2, #0]
10001914:	3203      	adds	r2, #3
10001916:	429c      	cmp	r4, r3
10001918:	d8f9      	bhi.n	1000190e <ph_post_alloc_init+0x1e>
1000191a:	23ff      	movs	r3, #255	; 0xff
1000191c:	4019      	ands	r1, r3
1000191e:	004b      	lsls	r3, r1, #1
10001920:	1859      	adds	r1, r3, r1
10001922:	2300      	movs	r3, #0
10001924:	1840      	adds	r0, r0, r1
10001926:	3803      	subs	r0, #3
10001928:	7043      	strb	r3, [r0, #1]
1000192a:	bd10      	pop	{r4, pc}

1000192c <ph_remove_head>:
1000192c:	b5f0      	push	{r4, r5, r6, r7, lr}
1000192e:	464e      	mov	r6, r9
10001930:	4657      	mov	r7, sl
10001932:	4645      	mov	r5, r8
10001934:	46de      	mov	lr, fp
10001936:	b5e0      	push	{r5, r6, r7, lr}
10001938:	7b47      	ldrb	r7, [r0, #13]
1000193a:	6803      	ldr	r3, [r0, #0]
1000193c:	007d      	lsls	r5, r7, #1
1000193e:	19ed      	adds	r5, r5, r7
10001940:	3d03      	subs	r5, #3
10001942:	195a      	adds	r2, r3, r5
10001944:	7816      	ldrb	r6, [r2, #0]
10001946:	b083      	sub	sp, #12
10001948:	0004      	movs	r4, r0
1000194a:	4689      	mov	r9, r1
1000194c:	2e00      	cmp	r6, #0
1000194e:	d122      	bne.n	10001996 <ph_remove_head+0x6a>
10001950:	2900      	cmp	r1, #0
10001952:	d015      	beq.n	10001980 <ph_remove_head+0x54>
10001954:	7be0      	ldrb	r0, [r4, #15]
10001956:	2800      	cmp	r0, #0
10001958:	d004      	beq.n	10001964 <ph_remove_head+0x38>
1000195a:	0041      	lsls	r1, r0, #1
1000195c:	1809      	adds	r1, r1, r0
1000195e:	1859      	adds	r1, r3, r1
10001960:	3903      	subs	r1, #3
10001962:	704f      	strb	r7, [r1, #1]
10001964:	7ba1      	ldrb	r1, [r4, #14]
10001966:	2900      	cmp	r1, #0
10001968:	d100      	bne.n	1000196c <ph_remove_head+0x40>
1000196a:	73a7      	strb	r7, [r4, #14]
1000196c:	73e7      	strb	r7, [r4, #15]
1000196e:	2e00      	cmp	r6, #0
10001970:	d006      	beq.n	10001980 <ph_remove_head+0x54>
10001972:	0071      	lsls	r1, r6, #1
10001974:	1989      	adds	r1, r1, r6
10001976:	3903      	subs	r1, #3
10001978:	4688      	mov	r8, r1
1000197a:	2100      	movs	r1, #0
1000197c:	4443      	add	r3, r8
1000197e:	7099      	strb	r1, [r3, #2]
10001980:	2300      	movs	r3, #0
10001982:	0038      	movs	r0, r7
10001984:	7053      	strb	r3, [r2, #1]
10001986:	7366      	strb	r6, [r4, #13]
10001988:	b003      	add	sp, #12
1000198a:	bc3c      	pop	{r2, r3, r4, r5}
1000198c:	4690      	mov	r8, r2
1000198e:	4699      	mov	r9, r3
10001990:	46a2      	mov	sl, r4
10001992:	46ab      	mov	fp, r5
10001994:	bdf0      	pop	{r4, r5, r6, r7, pc}
10001996:	0071      	lsls	r1, r6, #1
10001998:	1989      	adds	r1, r1, r6
1000199a:	3903      	subs	r1, #3
1000199c:	4688      	mov	r8, r1
1000199e:	1859      	adds	r1, r3, r1
100019a0:	7848      	ldrb	r0, [r1, #1]
100019a2:	4682      	mov	sl, r0
100019a4:	2800      	cmp	r0, #0
100019a6:	d103      	bne.n	100019b0 <ph_remove_head+0x84>
100019a8:	4649      	mov	r1, r9
100019aa:	2900      	cmp	r1, #0
100019ac:	d0e5      	beq.n	1000197a <ph_remove_head+0x4e>
100019ae:	e7d1      	b.n	10001954 <ph_remove_head+0x28>
100019b0:	0042      	lsls	r2, r0, #1
100019b2:	4452      	add	r2, sl
100019b4:	3a03      	subs	r2, #3
100019b6:	4694      	mov	ip, r2
100019b8:	9201      	str	r2, [sp, #4]
100019ba:	4463      	add	r3, ip
100019bc:	785a      	ldrb	r2, [r3, #1]
100019be:	4693      	mov	fp, r2
100019c0:	2200      	movs	r2, #0
100019c2:	705a      	strb	r2, [r3, #1]
100019c4:	704a      	strb	r2, [r1, #1]
100019c6:	6863      	ldr	r3, [r4, #4]
100019c8:	4652      	mov	r2, sl
100019ca:	0031      	movs	r1, r6
100019cc:	68a0      	ldr	r0, [r4, #8]
100019ce:	4798      	blx	r3
100019d0:	6823      	ldr	r3, [r4, #0]
100019d2:	2800      	cmp	r0, #0
100019d4:	d045      	beq.n	10001a62 <ph_remove_head+0x136>
100019d6:	4641      	mov	r1, r8
100019d8:	9801      	ldr	r0, [sp, #4]
100019da:	185a      	adds	r2, r3, r1
100019dc:	1819      	adds	r1, r3, r0
100019de:	708e      	strb	r6, [r1, #2]
100019e0:	7810      	ldrb	r0, [r2, #0]
100019e2:	2800      	cmp	r0, #0
100019e4:	d123      	bne.n	10001a2e <ph_remove_head+0x102>
100019e6:	4651      	mov	r1, sl
100019e8:	7011      	strb	r1, [r2, #0]
100019ea:	465a      	mov	r2, fp
100019ec:	2a00      	cmp	r2, #0
100019ee:	d021      	beq.n	10001a34 <ph_remove_head+0x108>
100019f0:	4659      	mov	r1, fp
100019f2:	0020      	movs	r0, r4
100019f4:	f7ff feb6 	bl	10001764 <ph_merge_two_pass.part.3>
100019f8:	4682      	mov	sl, r0
100019fa:	2800      	cmp	r0, #0
100019fc:	d019      	beq.n	10001a32 <ph_remove_head+0x106>
100019fe:	0002      	movs	r2, r0
10001a00:	6863      	ldr	r3, [r4, #4]
10001a02:	0031      	movs	r1, r6
10001a04:	68a0      	ldr	r0, [r4, #8]
10001a06:	4798      	blx	r3
10001a08:	6823      	ldr	r3, [r4, #0]
10001a0a:	2800      	cmp	r0, #0
10001a0c:	d014      	beq.n	10001a38 <ph_remove_head+0x10c>
10001a0e:	4642      	mov	r2, r8
10001a10:	1899      	adds	r1, r3, r2
10001a12:	4652      	mov	r2, sl
10001a14:	0052      	lsls	r2, r2, #1
10001a16:	4452      	add	r2, sl
10001a18:	3a03      	subs	r2, #3
10001a1a:	189a      	adds	r2, r3, r2
10001a1c:	7096      	strb	r6, [r2, #2]
10001a1e:	7808      	ldrb	r0, [r1, #0]
10001a20:	2800      	cmp	r0, #0
10001a22:	d000      	beq.n	10001a26 <ph_remove_head+0xfa>
10001a24:	7050      	strb	r0, [r2, #1]
10001a26:	4652      	mov	r2, sl
10001a28:	700a      	strb	r2, [r1, #0]
10001a2a:	195a      	adds	r2, r3, r5
10001a2c:	e7bc      	b.n	100019a8 <ph_remove_head+0x7c>
10001a2e:	7048      	strb	r0, [r1, #1]
10001a30:	e7d9      	b.n	100019e6 <ph_remove_head+0xba>
10001a32:	6823      	ldr	r3, [r4, #0]
10001a34:	195a      	adds	r2, r3, r5
10001a36:	e7b7      	b.n	100019a8 <ph_remove_head+0x7c>
10001a38:	4652      	mov	r2, sl
10001a3a:	0051      	lsls	r1, r2, #1
10001a3c:	4451      	add	r1, sl
10001a3e:	3903      	subs	r1, #3
10001a40:	185a      	adds	r2, r3, r1
10001a42:	4640      	mov	r0, r8
10001a44:	4693      	mov	fp, r2
10001a46:	4652      	mov	r2, sl
10001a48:	1818      	adds	r0, r3, r0
10001a4a:	7082      	strb	r2, [r0, #2]
10001a4c:	465a      	mov	r2, fp
10001a4e:	7812      	ldrb	r2, [r2, #0]
10001a50:	2a00      	cmp	r2, #0
10001a52:	d000      	beq.n	10001a56 <ph_remove_head+0x12a>
10001a54:	7042      	strb	r2, [r0, #1]
10001a56:	465a      	mov	r2, fp
10001a58:	4688      	mov	r8, r1
10001a5a:	7016      	strb	r6, [r2, #0]
10001a5c:	195a      	adds	r2, r3, r5
10001a5e:	4656      	mov	r6, sl
10001a60:	e7a2      	b.n	100019a8 <ph_remove_head+0x7c>
10001a62:	4641      	mov	r1, r8
10001a64:	4650      	mov	r0, sl
10001a66:	9a01      	ldr	r2, [sp, #4]
10001a68:	1859      	adds	r1, r3, r1
10001a6a:	189a      	adds	r2, r3, r2
10001a6c:	7088      	strb	r0, [r1, #2]
10001a6e:	7810      	ldrb	r0, [r2, #0]
10001a70:	2800      	cmp	r0, #0
10001a72:	d000      	beq.n	10001a76 <ph_remove_head+0x14a>
10001a74:	7048      	strb	r0, [r1, #1]
10001a76:	7016      	strb	r6, [r2, #0]
10001a78:	9a01      	ldr	r2, [sp, #4]
10001a7a:	4656      	mov	r6, sl
10001a7c:	4690      	mov	r8, r2
10001a7e:	e7b4      	b.n	100019ea <ph_remove_head+0xbe>

10001a80 <ph_remove_and_free_node>:
10001a80:	b5f0      	push	{r4, r5, r6, r7, lr}
10001a82:	4645      	mov	r5, r8
10001a84:	46de      	mov	lr, fp
10001a86:	4657      	mov	r7, sl
10001a88:	464e      	mov	r6, r9
10001a8a:	b5e0      	push	{r5, r6, r7, lr}
10001a8c:	000c      	movs	r4, r1
10001a8e:	0005      	movs	r5, r0
10001a90:	b083      	sub	sp, #12
10001a92:	2000      	movs	r0, #0
10001a94:	2900      	cmp	r1, #0
10001a96:	d040      	beq.n	10001b1a <ph_remove_and_free_node+0x9a>
10001a98:	7b6b      	ldrb	r3, [r5, #13]
10001a9a:	4698      	mov	r8, r3
10001a9c:	4299      	cmp	r1, r3
10001a9e:	d100      	bne.n	10001aa2 <ph_remove_and_free_node+0x22>
10001aa0:	e0b4      	b.n	10001c0c <ph_remove_and_free_node+0x18c>
10001aa2:	004e      	lsls	r6, r1, #1
10001aa4:	1876      	adds	r6, r6, r1
10001aa6:	682a      	ldr	r2, [r5, #0]
10001aa8:	3e03      	subs	r6, #3
10001aaa:	1991      	adds	r1, r2, r6
10001aac:	788f      	ldrb	r7, [r1, #2]
10001aae:	2f00      	cmp	r7, #0
10001ab0:	d033      	beq.n	10001b1a <ph_remove_and_free_node+0x9a>
10001ab2:	007b      	lsls	r3, r7, #1
10001ab4:	19db      	adds	r3, r3, r7
10001ab6:	3b03      	subs	r3, #3
10001ab8:	18d3      	adds	r3, r2, r3
10001aba:	7818      	ldrb	r0, [r3, #0]
10001abc:	4284      	cmp	r4, r0
10001abe:	d102      	bne.n	10001ac6 <ph_remove_and_free_node+0x46>
10001ac0:	e0a1      	b.n	10001c06 <ph_remove_and_free_node+0x186>
10001ac2:	2800      	cmp	r0, #0
10001ac4:	d008      	beq.n	10001ad8 <ph_remove_and_free_node+0x58>
10001ac6:	0043      	lsls	r3, r0, #1
10001ac8:	181b      	adds	r3, r3, r0
10001aca:	3b03      	subs	r3, #3
10001acc:	18d3      	adds	r3, r2, r3
10001ace:	7858      	ldrb	r0, [r3, #1]
10001ad0:	4284      	cmp	r4, r0
10001ad2:	d1f6      	bne.n	10001ac2 <ph_remove_and_free_node+0x42>
10001ad4:	7848      	ldrb	r0, [r1, #1]
10001ad6:	7058      	strb	r0, [r3, #1]
10001ad8:	2300      	movs	r3, #0
10001ada:	780f      	ldrb	r7, [r1, #0]
10001adc:	469c      	mov	ip, r3
10001ade:	708b      	strb	r3, [r1, #2]
10001ae0:	704b      	strb	r3, [r1, #1]
10001ae2:	2f00      	cmp	r7, #0
10001ae4:	d141      	bne.n	10001b6a <ph_remove_and_free_node+0xea>
10001ae6:	7be8      	ldrb	r0, [r5, #15]
10001ae8:	2800      	cmp	r0, #0
10001aea:	d004      	beq.n	10001af6 <ph_remove_and_free_node+0x76>
10001aec:	0043      	lsls	r3, r0, #1
10001aee:	181b      	adds	r3, r3, r0
10001af0:	18d3      	adds	r3, r2, r3
10001af2:	3b03      	subs	r3, #3
10001af4:	705c      	strb	r4, [r3, #1]
10001af6:	7bab      	ldrb	r3, [r5, #14]
10001af8:	2b00      	cmp	r3, #0
10001afa:	d015      	beq.n	10001b28 <ph_remove_and_free_node+0xa8>
10001afc:	73ec      	strb	r4, [r5, #15]
10001afe:	2f00      	cmp	r7, #0
10001b00:	d016      	beq.n	10001b30 <ph_remove_and_free_node+0xb0>
10001b02:	2300      	movs	r3, #0
10001b04:	007c      	lsls	r4, r7, #1
10001b06:	19e4      	adds	r4, r4, r7
10001b08:	3c03      	subs	r4, #3
10001b0a:	1912      	adds	r2, r2, r4
10001b0c:	7093      	strb	r3, [r2, #2]
10001b0e:	704b      	strb	r3, [r1, #1]
10001b10:	4643      	mov	r3, r8
10001b12:	2b00      	cmp	r3, #0
10001b14:	d111      	bne.n	10001b3a <ph_remove_and_free_node+0xba>
10001b16:	2001      	movs	r0, #1
10001b18:	736f      	strb	r7, [r5, #13]
10001b1a:	b003      	add	sp, #12
10001b1c:	bc3c      	pop	{r2, r3, r4, r5}
10001b1e:	4690      	mov	r8, r2
10001b20:	4699      	mov	r9, r3
10001b22:	46a2      	mov	sl, r4
10001b24:	46ab      	mov	fp, r5
10001b26:	bdf0      	pop	{r4, r5, r6, r7, pc}
10001b28:	73ac      	strb	r4, [r5, #14]
10001b2a:	73ec      	strb	r4, [r5, #15]
10001b2c:	2f00      	cmp	r7, #0
10001b2e:	d1e8      	bne.n	10001b02 <ph_remove_and_free_node+0x82>
10001b30:	704f      	strb	r7, [r1, #1]
10001b32:	4647      	mov	r7, r8
10001b34:	2001      	movs	r0, #1
10001b36:	736f      	strb	r7, [r5, #13]
10001b38:	e7ef      	b.n	10001b1a <ph_remove_and_free_node+0x9a>
10001b3a:	003a      	movs	r2, r7
10001b3c:	4641      	mov	r1, r8
10001b3e:	68a8      	ldr	r0, [r5, #8]
10001b40:	686b      	ldr	r3, [r5, #4]
10001b42:	4798      	blx	r3
10001b44:	682a      	ldr	r2, [r5, #0]
10001b46:	2800      	cmp	r0, #0
10001b48:	d100      	bne.n	10001b4c <ph_remove_and_free_node+0xcc>
10001b4a:	e085      	b.n	10001c58 <ph_remove_and_free_node+0x1d8>
10001b4c:	4643      	mov	r3, r8
10001b4e:	005b      	lsls	r3, r3, #1
10001b50:	4443      	add	r3, r8
10001b52:	3b03      	subs	r3, #3
10001b54:	18d3      	adds	r3, r2, r3
10001b56:	1914      	adds	r4, r2, r4
10001b58:	4642      	mov	r2, r8
10001b5a:	70a2      	strb	r2, [r4, #2]
10001b5c:	781a      	ldrb	r2, [r3, #0]
10001b5e:	2a00      	cmp	r2, #0
10001b60:	d000      	beq.n	10001b64 <ph_remove_and_free_node+0xe4>
10001b62:	7062      	strb	r2, [r4, #1]
10001b64:	701f      	strb	r7, [r3, #0]
10001b66:	4647      	mov	r7, r8
10001b68:	e7d5      	b.n	10001b16 <ph_remove_and_free_node+0x96>
10001b6a:	0078      	lsls	r0, r7, #1
10001b6c:	19c0      	adds	r0, r0, r7
10001b6e:	3803      	subs	r0, #3
10001b70:	4681      	mov	r9, r0
10001b72:	1810      	adds	r0, r2, r0
10001b74:	7843      	ldrb	r3, [r0, #1]
10001b76:	469a      	mov	sl, r3
10001b78:	2b00      	cmp	r3, #0
10001b7a:	d0b4      	beq.n	10001ae6 <ph_remove_and_free_node+0x66>
10001b7c:	0059      	lsls	r1, r3, #1
10001b7e:	4451      	add	r1, sl
10001b80:	1ecb      	subs	r3, r1, #3
10001b82:	4698      	mov	r8, r3
10001b84:	4442      	add	r2, r8
10001b86:	7853      	ldrb	r3, [r2, #1]
10001b88:	0039      	movs	r1, r7
10001b8a:	469b      	mov	fp, r3
10001b8c:	4663      	mov	r3, ip
10001b8e:	7053      	strb	r3, [r2, #1]
10001b90:	7043      	strb	r3, [r0, #1]
10001b92:	4652      	mov	r2, sl
10001b94:	68a8      	ldr	r0, [r5, #8]
10001b96:	686b      	ldr	r3, [r5, #4]
10001b98:	4798      	blx	r3
10001b9a:	682a      	ldr	r2, [r5, #0]
10001b9c:	2800      	cmp	r0, #0
10001b9e:	d100      	bne.n	10001ba2 <ph_remove_and_free_node+0x122>
10001ba0:	e0c4      	b.n	10001d2c <ph_remove_and_free_node+0x2ac>
10001ba2:	4641      	mov	r1, r8
10001ba4:	464b      	mov	r3, r9
10001ba6:	1851      	adds	r1, r2, r1
10001ba8:	18d3      	adds	r3, r2, r3
10001baa:	708f      	strb	r7, [r1, #2]
10001bac:	7818      	ldrb	r0, [r3, #0]
10001bae:	2800      	cmp	r0, #0
10001bb0:	d000      	beq.n	10001bb4 <ph_remove_and_free_node+0x134>
10001bb2:	7048      	strb	r0, [r1, #1]
10001bb4:	4651      	mov	r1, sl
10001bb6:	46c8      	mov	r8, r9
10001bb8:	7019      	strb	r1, [r3, #0]
10001bba:	465b      	mov	r3, fp
10001bbc:	2b00      	cmp	r3, #0
10001bbe:	d01e      	beq.n	10001bfe <ph_remove_and_free_node+0x17e>
10001bc0:	4659      	mov	r1, fp
10001bc2:	0028      	movs	r0, r5
10001bc4:	f7ff fdce 	bl	10001764 <ph_merge_two_pass.part.3>
10001bc8:	4681      	mov	r9, r0
10001bca:	2800      	cmp	r0, #0
10001bcc:	d100      	bne.n	10001bd0 <ph_remove_and_free_node+0x150>
10001bce:	e095      	b.n	10001cfc <ph_remove_and_free_node+0x27c>
10001bd0:	0002      	movs	r2, r0
10001bd2:	0039      	movs	r1, r7
10001bd4:	68a8      	ldr	r0, [r5, #8]
10001bd6:	686b      	ldr	r3, [r5, #4]
10001bd8:	4798      	blx	r3
10001bda:	682a      	ldr	r2, [r5, #0]
10001bdc:	2800      	cmp	r0, #0
10001bde:	d100      	bne.n	10001be2 <ph_remove_and_free_node+0x162>
10001be0:	e091      	b.n	10001d06 <ph_remove_and_free_node+0x286>
10001be2:	4643      	mov	r3, r8
10001be4:	18d1      	adds	r1, r2, r3
10001be6:	464b      	mov	r3, r9
10001be8:	005b      	lsls	r3, r3, #1
10001bea:	444b      	add	r3, r9
10001bec:	3b03      	subs	r3, #3
10001bee:	18d3      	adds	r3, r2, r3
10001bf0:	709f      	strb	r7, [r3, #2]
10001bf2:	7808      	ldrb	r0, [r1, #0]
10001bf4:	2800      	cmp	r0, #0
10001bf6:	d000      	beq.n	10001bfa <ph_remove_and_free_node+0x17a>
10001bf8:	7058      	strb	r0, [r3, #1]
10001bfa:	464b      	mov	r3, r9
10001bfc:	700b      	strb	r3, [r1, #0]
10001bfe:	7b6b      	ldrb	r3, [r5, #13]
10001c00:	1991      	adds	r1, r2, r6
10001c02:	4698      	mov	r8, r3
10001c04:	e76f      	b.n	10001ae6 <ph_remove_and_free_node+0x66>
10001c06:	7848      	ldrb	r0, [r1, #1]
10001c08:	7018      	strb	r0, [r3, #0]
10001c0a:	e765      	b.n	10001ad8 <ph_remove_and_free_node+0x58>
10001c0c:	4642      	mov	r2, r8
10001c0e:	0056      	lsls	r6, r2, #1
10001c10:	682b      	ldr	r3, [r5, #0]
10001c12:	4446      	add	r6, r8
10001c14:	3e03      	subs	r6, #3
10001c16:	1999      	adds	r1, r3, r6
10001c18:	780c      	ldrb	r4, [r1, #0]
10001c1a:	2c00      	cmp	r4, #0
10001c1c:	d12a      	bne.n	10001c74 <ph_remove_and_free_node+0x1f4>
10001c1e:	7be8      	ldrb	r0, [r5, #15]
10001c20:	2800      	cmp	r0, #0
10001c22:	d005      	beq.n	10001c30 <ph_remove_and_free_node+0x1b0>
10001c24:	0042      	lsls	r2, r0, #1
10001c26:	1812      	adds	r2, r2, r0
10001c28:	4640      	mov	r0, r8
10001c2a:	189a      	adds	r2, r3, r2
10001c2c:	3a03      	subs	r2, #3
10001c2e:	7050      	strb	r0, [r2, #1]
10001c30:	7baa      	ldrb	r2, [r5, #14]
10001c32:	2a00      	cmp	r2, #0
10001c34:	d101      	bne.n	10001c3a <ph_remove_and_free_node+0x1ba>
10001c36:	4642      	mov	r2, r8
10001c38:	73aa      	strb	r2, [r5, #14]
10001c3a:	4642      	mov	r2, r8
10001c3c:	73ea      	strb	r2, [r5, #15]
10001c3e:	2c00      	cmp	r4, #0
10001c40:	d005      	beq.n	10001c4e <ph_remove_and_free_node+0x1ce>
10001c42:	0062      	lsls	r2, r4, #1
10001c44:	1912      	adds	r2, r2, r4
10001c46:	189b      	adds	r3, r3, r2
10001c48:	2200      	movs	r2, #0
10001c4a:	3b03      	subs	r3, #3
10001c4c:	709a      	strb	r2, [r3, #2]
10001c4e:	2300      	movs	r3, #0
10001c50:	2001      	movs	r0, #1
10001c52:	704b      	strb	r3, [r1, #1]
10001c54:	736c      	strb	r4, [r5, #13]
10001c56:	e760      	b.n	10001b1a <ph_remove_and_free_node+0x9a>
10001c58:	4643      	mov	r3, r8
10001c5a:	005b      	lsls	r3, r3, #1
10001c5c:	4443      	add	r3, r8
10001c5e:	3b03      	subs	r3, #3
10001c60:	18d3      	adds	r3, r2, r3
10001c62:	1914      	adds	r4, r2, r4
10001c64:	709f      	strb	r7, [r3, #2]
10001c66:	7822      	ldrb	r2, [r4, #0]
10001c68:	2a00      	cmp	r2, #0
10001c6a:	d000      	beq.n	10001c6e <ph_remove_and_free_node+0x1ee>
10001c6c:	705a      	strb	r2, [r3, #1]
10001c6e:	4643      	mov	r3, r8
10001c70:	7023      	strb	r3, [r4, #0]
10001c72:	e750      	b.n	10001b16 <ph_remove_and_free_node+0x96>
10001c74:	0067      	lsls	r7, r4, #1
10001c76:	193f      	adds	r7, r7, r4
10001c78:	1efa      	subs	r2, r7, #3
10001c7a:	9201      	str	r2, [sp, #4]
10001c7c:	189a      	adds	r2, r3, r2
10001c7e:	7857      	ldrb	r7, [r2, #1]
10001c80:	46ba      	mov	sl, r7
10001c82:	2f00      	cmp	r7, #0
10001c84:	d0cb      	beq.n	10001c1e <ph_remove_and_free_node+0x19e>
10001c86:	0079      	lsls	r1, r7, #1
10001c88:	4451      	add	r1, sl
10001c8a:	3903      	subs	r1, #3
10001c8c:	4689      	mov	r9, r1
10001c8e:	444b      	add	r3, r9
10001c90:	7859      	ldrb	r1, [r3, #1]
10001c92:	7058      	strb	r0, [r3, #1]
10001c94:	7050      	strb	r0, [r2, #1]
10001c96:	686b      	ldr	r3, [r5, #4]
10001c98:	468b      	mov	fp, r1
10001c9a:	003a      	movs	r2, r7
10001c9c:	0021      	movs	r1, r4
10001c9e:	68a8      	ldr	r0, [r5, #8]
10001ca0:	4798      	blx	r3
10001ca2:	682b      	ldr	r3, [r5, #0]
10001ca4:	2800      	cmp	r0, #0
10001ca6:	d060      	beq.n	10001d6a <ph_remove_and_free_node+0x2ea>
10001ca8:	4649      	mov	r1, r9
10001caa:	9f01      	ldr	r7, [sp, #4]
10001cac:	1859      	adds	r1, r3, r1
10001cae:	19da      	adds	r2, r3, r7
10001cb0:	708c      	strb	r4, [r1, #2]
10001cb2:	7810      	ldrb	r0, [r2, #0]
10001cb4:	2800      	cmp	r0, #0
10001cb6:	d165      	bne.n	10001d84 <ph_remove_and_free_node+0x304>
10001cb8:	4651      	mov	r1, sl
10001cba:	46b9      	mov	r9, r7
10001cbc:	7011      	strb	r1, [r2, #0]
10001cbe:	465a      	mov	r2, fp
10001cc0:	2a00      	cmp	r2, #0
10001cc2:	d019      	beq.n	10001cf8 <ph_remove_and_free_node+0x278>
10001cc4:	4659      	mov	r1, fp
10001cc6:	0028      	movs	r0, r5
10001cc8:	f7ff fd4c 	bl	10001764 <ph_merge_two_pass.part.3>
10001ccc:	1e07      	subs	r7, r0, #0
10001cce:	d03a      	beq.n	10001d46 <ph_remove_and_free_node+0x2c6>
10001cd0:	0002      	movs	r2, r0
10001cd2:	686b      	ldr	r3, [r5, #4]
10001cd4:	0021      	movs	r1, r4
10001cd6:	68a8      	ldr	r0, [r5, #8]
10001cd8:	4798      	blx	r3
10001cda:	682b      	ldr	r3, [r5, #0]
10001cdc:	2800      	cmp	r0, #0
10001cde:	d035      	beq.n	10001d4c <ph_remove_and_free_node+0x2cc>
10001ce0:	464a      	mov	r2, r9
10001ce2:	1899      	adds	r1, r3, r2
10001ce4:	007a      	lsls	r2, r7, #1
10001ce6:	19d2      	adds	r2, r2, r7
10001ce8:	3a03      	subs	r2, #3
10001cea:	189a      	adds	r2, r3, r2
10001cec:	7094      	strb	r4, [r2, #2]
10001cee:	7808      	ldrb	r0, [r1, #0]
10001cf0:	2800      	cmp	r0, #0
10001cf2:	d000      	beq.n	10001cf6 <ph_remove_and_free_node+0x276>
10001cf4:	7050      	strb	r0, [r2, #1]
10001cf6:	700f      	strb	r7, [r1, #0]
10001cf8:	1999      	adds	r1, r3, r6
10001cfa:	e790      	b.n	10001c1e <ph_remove_and_free_node+0x19e>
10001cfc:	7b6b      	ldrb	r3, [r5, #13]
10001cfe:	682a      	ldr	r2, [r5, #0]
10001d00:	4698      	mov	r8, r3
10001d02:	1991      	adds	r1, r2, r6
10001d04:	e6ef      	b.n	10001ae6 <ph_remove_and_free_node+0x66>
10001d06:	464b      	mov	r3, r9
10001d08:	0059      	lsls	r1, r3, #1
10001d0a:	4643      	mov	r3, r8
10001d0c:	4648      	mov	r0, r9
10001d0e:	4449      	add	r1, r9
10001d10:	3903      	subs	r1, #3
10001d12:	18d3      	adds	r3, r2, r3
10001d14:	1851      	adds	r1, r2, r1
10001d16:	7098      	strb	r0, [r3, #2]
10001d18:	7808      	ldrb	r0, [r1, #0]
10001d1a:	2800      	cmp	r0, #0
10001d1c:	d000      	beq.n	10001d20 <ph_remove_and_free_node+0x2a0>
10001d1e:	7058      	strb	r0, [r3, #1]
10001d20:	700f      	strb	r7, [r1, #0]
10001d22:	7b6b      	ldrb	r3, [r5, #13]
10001d24:	1991      	adds	r1, r2, r6
10001d26:	4698      	mov	r8, r3
10001d28:	464f      	mov	r7, r9
10001d2a:	e6dc      	b.n	10001ae6 <ph_remove_and_free_node+0x66>
10001d2c:	4643      	mov	r3, r8
10001d2e:	18d1      	adds	r1, r2, r3
10001d30:	464b      	mov	r3, r9
10001d32:	4650      	mov	r0, sl
10001d34:	18d3      	adds	r3, r2, r3
10001d36:	7098      	strb	r0, [r3, #2]
10001d38:	7808      	ldrb	r0, [r1, #0]
10001d3a:	2800      	cmp	r0, #0
10001d3c:	d000      	beq.n	10001d40 <ph_remove_and_free_node+0x2c0>
10001d3e:	7058      	strb	r0, [r3, #1]
10001d40:	700f      	strb	r7, [r1, #0]
10001d42:	4657      	mov	r7, sl
10001d44:	e739      	b.n	10001bba <ph_remove_and_free_node+0x13a>
10001d46:	682b      	ldr	r3, [r5, #0]
10001d48:	1999      	adds	r1, r3, r6
10001d4a:	e768      	b.n	10001c1e <ph_remove_and_free_node+0x19e>
10001d4c:	464a      	mov	r2, r9
10001d4e:	0079      	lsls	r1, r7, #1
10001d50:	19c9      	adds	r1, r1, r7
10001d52:	3903      	subs	r1, #3
10001d54:	189a      	adds	r2, r3, r2
10001d56:	1859      	adds	r1, r3, r1
10001d58:	7097      	strb	r7, [r2, #2]
10001d5a:	7808      	ldrb	r0, [r1, #0]
10001d5c:	2800      	cmp	r0, #0
10001d5e:	d000      	beq.n	10001d62 <ph_remove_and_free_node+0x2e2>
10001d60:	7050      	strb	r0, [r2, #1]
10001d62:	700c      	strb	r4, [r1, #0]
10001d64:	1999      	adds	r1, r3, r6
10001d66:	003c      	movs	r4, r7
10001d68:	e759      	b.n	10001c1e <ph_remove_and_free_node+0x19e>
10001d6a:	9901      	ldr	r1, [sp, #4]
10001d6c:	464a      	mov	r2, r9
10001d6e:	185f      	adds	r7, r3, r1
10001d70:	4651      	mov	r1, sl
10001d72:	189a      	adds	r2, r3, r2
10001d74:	70b9      	strb	r1, [r7, #2]
10001d76:	7811      	ldrb	r1, [r2, #0]
10001d78:	2900      	cmp	r1, #0
10001d7a:	d000      	beq.n	10001d7e <ph_remove_and_free_node+0x2fe>
10001d7c:	7079      	strb	r1, [r7, #1]
10001d7e:	7014      	strb	r4, [r2, #0]
10001d80:	4654      	mov	r4, sl
10001d82:	e79c      	b.n	10001cbe <ph_remove_and_free_node+0x23e>
10001d84:	7048      	strb	r0, [r1, #1]
10001d86:	4651      	mov	r1, sl
10001d88:	7011      	strb	r1, [r2, #0]
10001d8a:	9a01      	ldr	r2, [sp, #4]
10001d8c:	4691      	mov	r9, r2
10001d8e:	e796      	b.n	10001cbe <ph_remove_and_free_node+0x23e>

10001d90 <clocks_init>:
10001d90:	b530      	push	{r4, r5, lr}
10001d92:	200c      	movs	r0, #12
10001d94:	b083      	sub	sp, #12
10001d96:	f000 f9b7 	bl	10002108 <watchdog_start_tick>
10001d9a:	f7fe fb29 	bl	100003f0 <running_on_fpga>
10001d9e:	2800      	cmp	r0, #0
10001da0:	d00e      	beq.n	10001dc0 <clocks_init+0x30>
10001da2:	4b9b      	ldr	r3, [pc, #620]	; (10002010 <clocks_init+0x280>)
10001da4:	4a9b      	ldr	r2, [pc, #620]	; (10002014 <clocks_init+0x284>)
10001da6:	601a      	str	r2, [r3, #0]
10001da8:	605a      	str	r2, [r3, #4]
10001daa:	609a      	str	r2, [r3, #8]
10001dac:	60da      	str	r2, [r3, #12]
10001dae:	611a      	str	r2, [r3, #16]
10001db0:	615a      	str	r2, [r3, #20]
10001db2:	619a      	str	r2, [r3, #24]
10001db4:	61da      	str	r2, [r3, #28]
10001db6:	621a      	str	r2, [r3, #32]
10001db8:	4a97      	ldr	r2, [pc, #604]	; (10002018 <clocks_init+0x288>)
10001dba:	625a      	str	r2, [r3, #36]	; 0x24
10001dbc:	b003      	add	sp, #12
10001dbe:	bd30      	pop	{r4, r5, pc}
10001dc0:	4c96      	ldr	r4, [pc, #600]	; (1000201c <clocks_init+0x28c>)
10001dc2:	67a0      	str	r0, [r4, #120]	; 0x78
10001dc4:	f000 f9f2 	bl	100021ac <xosc_init>
10001dc8:	2201      	movs	r2, #1
10001dca:	4b95      	ldr	r3, [pc, #596]	; (10002020 <clocks_init+0x290>)
10001dcc:	601a      	str	r2, [r3, #0]
10001dce:	6c63      	ldr	r3, [r4, #68]	; 0x44
10001dd0:	2b01      	cmp	r3, #1
10001dd2:	d1fc      	bne.n	10001dce <clocks_init+0x3e>
10001dd4:	2203      	movs	r2, #3
10001dd6:	4b93      	ldr	r3, [pc, #588]	; (10002024 <clocks_init+0x294>)
10001dd8:	601a      	str	r2, [r3, #0]
10001dda:	4a90      	ldr	r2, [pc, #576]	; (1000201c <clocks_init+0x28c>)
10001ddc:	6b93      	ldr	r3, [r2, #56]	; 0x38
10001dde:	2b01      	cmp	r3, #1
10001de0:	d1fc      	bne.n	10001ddc <clocks_init+0x4c>
10001de2:	3301      	adds	r3, #1
10001de4:	9300      	str	r3, [sp, #0]
10001de6:	4a90      	ldr	r2, [pc, #576]	; (10002028 <clocks_init+0x298>)
10001de8:	3304      	adds	r3, #4
10001dea:	2101      	movs	r1, #1
10001dec:	488f      	ldr	r0, [pc, #572]	; (1000202c <clocks_init+0x29c>)
10001dee:	f000 f93d 	bl	1000206c <pll_init>
10001df2:	2305      	movs	r3, #5
10001df4:	4a8e      	ldr	r2, [pc, #568]	; (10002030 <clocks_init+0x2a0>)
10001df6:	9300      	str	r3, [sp, #0]
10001df8:	2101      	movs	r1, #1
10001dfa:	488e      	ldr	r0, [pc, #568]	; (10002034 <clocks_init+0x2a4>)
10001dfc:	f000 f936 	bl	1000206c <pll_init>
10001e00:	4b8d      	ldr	r3, [pc, #564]	; (10002038 <clocks_init+0x2a8>)
10001e02:	685a      	ldr	r2, [r3, #4]
10001e04:	2aff      	cmp	r2, #255	; 0xff
10001e06:	d802      	bhi.n	10001e0e <clocks_init+0x7e>
10001e08:	2280      	movs	r2, #128	; 0x80
10001e0a:	0052      	lsls	r2, r2, #1
10001e0c:	605a      	str	r2, [r3, #4]
10001e0e:	2280      	movs	r2, #128	; 0x80
10001e10:	4c7f      	ldr	r4, [pc, #508]	; (10002010 <clocks_init+0x280>)
10001e12:	4b84      	ldr	r3, [pc, #528]	; (10002024 <clocks_init+0x294>)
10001e14:	6921      	ldr	r1, [r4, #16]
10001e16:	0112      	lsls	r2, r2, #4
10001e18:	4d87      	ldr	r5, [pc, #540]	; (10002038 <clocks_init+0x2a8>)
10001e1a:	601a      	str	r2, [r3, #0]
10001e1c:	2900      	cmp	r1, #0
10001e1e:	d000      	beq.n	10001e22 <clocks_init+0x92>
10001e20:	e0ed      	b.n	10001ffe <clocks_init+0x26e>
10001e22:	21e0      	movs	r1, #224	; 0xe0
10001e24:	4b84      	ldr	r3, [pc, #528]	; (10002038 <clocks_init+0x2a8>)
10001e26:	2002      	movs	r0, #2
10001e28:	681a      	ldr	r2, [r3, #0]
10001e2a:	4011      	ands	r1, r2
10001e2c:	2280      	movs	r2, #128	; 0x80
10001e2e:	0152      	lsls	r2, r2, #5
10001e30:	432a      	orrs	r2, r5
10001e32:	6011      	str	r1, [r2, #0]
10001e34:	6819      	ldr	r1, [r3, #0]
10001e36:	4048      	eors	r0, r1
10001e38:	2103      	movs	r1, #3
10001e3a:	4001      	ands	r1, r0
10001e3c:	6011      	str	r1, [r2, #0]
10001e3e:	2104      	movs	r1, #4
10001e40:	689a      	ldr	r2, [r3, #8]
10001e42:	4211      	tst	r1, r2
10001e44:	d0fc      	beq.n	10001e40 <clocks_init+0xb0>
10001e46:	2280      	movs	r2, #128	; 0x80
10001e48:	2180      	movs	r1, #128	; 0x80
10001e4a:	0192      	lsls	r2, r2, #6
10001e4c:	432a      	orrs	r2, r5
10001e4e:	0109      	lsls	r1, r1, #4
10001e50:	6011      	str	r1, [r2, #0]
10001e52:	2280      	movs	r2, #128	; 0x80
10001e54:	0052      	lsls	r2, r2, #1
10001e56:	605a      	str	r2, [r3, #4]
10001e58:	4b78      	ldr	r3, [pc, #480]	; (1000203c <clocks_init+0x2ac>)
10001e5a:	6123      	str	r3, [r4, #16]
10001e5c:	4b78      	ldr	r3, [pc, #480]	; (10002040 <clocks_init+0x2b0>)
10001e5e:	6859      	ldr	r1, [r3, #4]
10001e60:	29ff      	cmp	r1, #255	; 0xff
10001e62:	d800      	bhi.n	10001e66 <clocks_init+0xd6>
10001e64:	e0c9      	b.n	10001ffa <clocks_init+0x26a>
10001e66:	2203      	movs	r2, #3
10001e68:	4b6d      	ldr	r3, [pc, #436]	; (10002020 <clocks_init+0x290>)
10001e6a:	4875      	ldr	r0, [pc, #468]	; (10002040 <clocks_init+0x2b0>)
10001e6c:	601a      	str	r2, [r3, #0]
10001e6e:	2101      	movs	r1, #1
10001e70:	0003      	movs	r3, r0
10001e72:	689a      	ldr	r2, [r3, #8]
10001e74:	4211      	tst	r1, r2
10001e76:	d0fc      	beq.n	10001e72 <clocks_init+0xe2>
10001e78:	25e0      	movs	r5, #224	; 0xe0
10001e7a:	681a      	ldr	r2, [r3, #0]
10001e7c:	4015      	ands	r5, r2
10001e7e:	2280      	movs	r2, #128	; 0x80
10001e80:	0152      	lsls	r2, r2, #5
10001e82:	4302      	orrs	r2, r0
10001e84:	6015      	str	r5, [r2, #0]
10001e86:	681b      	ldr	r3, [r3, #0]
10001e88:	404b      	eors	r3, r1
10001e8a:	2103      	movs	r1, #3
10001e8c:	4019      	ands	r1, r3
10001e8e:	6011      	str	r1, [r2, #0]
10001e90:	2102      	movs	r1, #2
10001e92:	4a6b      	ldr	r2, [pc, #428]	; (10002040 <clocks_init+0x2b0>)
10001e94:	6893      	ldr	r3, [r2, #8]
10001e96:	4219      	tst	r1, r3
10001e98:	d0fc      	beq.n	10001e94 <clocks_init+0x104>
10001e9a:	2380      	movs	r3, #128	; 0x80
10001e9c:	2180      	movs	r1, #128	; 0x80
10001e9e:	019b      	lsls	r3, r3, #6
10001ea0:	4303      	orrs	r3, r0
10001ea2:	0109      	lsls	r1, r1, #4
10001ea4:	6019      	str	r1, [r3, #0]
10001ea6:	2180      	movs	r1, #128	; 0x80
10001ea8:	4b66      	ldr	r3, [pc, #408]	; (10002044 <clocks_init+0x2b4>)
10001eaa:	0049      	lsls	r1, r1, #1
10001eac:	6051      	str	r1, [r2, #4]
10001eae:	6163      	str	r3, [r4, #20]
10001eb0:	4b65      	ldr	r3, [pc, #404]	; (10002048 <clocks_init+0x2b8>)
10001eb2:	685a      	ldr	r2, [r3, #4]
10001eb4:	2aff      	cmp	r2, #255	; 0xff
10001eb6:	d800      	bhi.n	10001eba <clocks_init+0x12a>
10001eb8:	6059      	str	r1, [r3, #4]
10001eba:	2280      	movs	r2, #128	; 0x80
10001ebc:	4b63      	ldr	r3, [pc, #396]	; (1000204c <clocks_init+0x2bc>)
10001ebe:	69e1      	ldr	r1, [r4, #28]
10001ec0:	0112      	lsls	r2, r2, #4
10001ec2:	4d61      	ldr	r5, [pc, #388]	; (10002048 <clocks_init+0x2b8>)
10001ec4:	601a      	str	r2, [r3, #0]
10001ec6:	2900      	cmp	r1, #0
10001ec8:	d007      	beq.n	10001eda <clocks_init+0x14a>
10001eca:	6960      	ldr	r0, [r4, #20]
10001ecc:	f000 faaa 	bl	10002424 <__wrap___aeabi_uidiv>
10001ed0:	1c43      	adds	r3, r0, #1
10001ed2:	0058      	lsls	r0, r3, #1
10001ed4:	18c0      	adds	r0, r0, r3
10001ed6:	3803      	subs	r0, #3
10001ed8:	d2fd      	bcs.n	10001ed6 <clocks_init+0x146>
10001eda:	22e0      	movs	r2, #224	; 0xe0
10001edc:	495a      	ldr	r1, [pc, #360]	; (10002048 <clocks_init+0x2b8>)
10001ede:	680b      	ldr	r3, [r1, #0]
10001ee0:	401a      	ands	r2, r3
10001ee2:	2380      	movs	r3, #128	; 0x80
10001ee4:	015b      	lsls	r3, r3, #5
10001ee6:	432b      	orrs	r3, r5
10001ee8:	601a      	str	r2, [r3, #0]
10001eea:	2380      	movs	r3, #128	; 0x80
10001eec:	2280      	movs	r2, #128	; 0x80
10001eee:	019b      	lsls	r3, r3, #6
10001ef0:	432b      	orrs	r3, r5
10001ef2:	0112      	lsls	r2, r2, #4
10001ef4:	601a      	str	r2, [r3, #0]
10001ef6:	2280      	movs	r2, #128	; 0x80
10001ef8:	4b46      	ldr	r3, [pc, #280]	; (10002014 <clocks_init+0x284>)
10001efa:	0052      	lsls	r2, r2, #1
10001efc:	604a      	str	r2, [r1, #4]
10001efe:	61e3      	str	r3, [r4, #28]
10001f00:	4b53      	ldr	r3, [pc, #332]	; (10002050 <clocks_init+0x2c0>)
10001f02:	6859      	ldr	r1, [r3, #4]
10001f04:	29ff      	cmp	r1, #255	; 0xff
10001f06:	d800      	bhi.n	10001f0a <clocks_init+0x17a>
10001f08:	605a      	str	r2, [r3, #4]
10001f0a:	2280      	movs	r2, #128	; 0x80
10001f0c:	4b51      	ldr	r3, [pc, #324]	; (10002054 <clocks_init+0x2c4>)
10001f0e:	6a21      	ldr	r1, [r4, #32]
10001f10:	0112      	lsls	r2, r2, #4
10001f12:	4d4f      	ldr	r5, [pc, #316]	; (10002050 <clocks_init+0x2c0>)
10001f14:	601a      	str	r2, [r3, #0]
10001f16:	2900      	cmp	r1, #0
10001f18:	d007      	beq.n	10001f2a <clocks_init+0x19a>
10001f1a:	6960      	ldr	r0, [r4, #20]
10001f1c:	f000 fa82 	bl	10002424 <__wrap___aeabi_uidiv>
10001f20:	1c43      	adds	r3, r0, #1
10001f22:	0058      	lsls	r0, r3, #1
10001f24:	18c0      	adds	r0, r0, r3
10001f26:	3803      	subs	r0, #3
10001f28:	d2fd      	bcs.n	10001f26 <clocks_init+0x196>
10001f2a:	22e0      	movs	r2, #224	; 0xe0
10001f2c:	4948      	ldr	r1, [pc, #288]	; (10002050 <clocks_init+0x2c0>)
10001f2e:	680b      	ldr	r3, [r1, #0]
10001f30:	401a      	ands	r2, r3
10001f32:	2380      	movs	r3, #128	; 0x80
10001f34:	015b      	lsls	r3, r3, #5
10001f36:	432b      	orrs	r3, r5
10001f38:	601a      	str	r2, [r3, #0]
10001f3a:	2380      	movs	r3, #128	; 0x80
10001f3c:	2280      	movs	r2, #128	; 0x80
10001f3e:	019b      	lsls	r3, r3, #6
10001f40:	432b      	orrs	r3, r5
10001f42:	0112      	lsls	r2, r2, #4
10001f44:	601a      	str	r2, [r3, #0]
10001f46:	2380      	movs	r3, #128	; 0x80
10001f48:	005b      	lsls	r3, r3, #1
10001f4a:	604b      	str	r3, [r1, #4]
10001f4c:	4b31      	ldr	r3, [pc, #196]	; (10002014 <clocks_init+0x284>)
10001f4e:	4a42      	ldr	r2, [pc, #264]	; (10002058 <clocks_init+0x2c8>)
10001f50:	6223      	str	r3, [r4, #32]
10001f52:	4b42      	ldr	r3, [pc, #264]	; (1000205c <clocks_init+0x2cc>)
10001f54:	6859      	ldr	r1, [r3, #4]
10001f56:	4291      	cmp	r1, r2
10001f58:	d801      	bhi.n	10001f5e <clocks_init+0x1ce>
10001f5a:	3201      	adds	r2, #1
10001f5c:	605a      	str	r2, [r3, #4]
10001f5e:	2280      	movs	r2, #128	; 0x80
10001f60:	4b3f      	ldr	r3, [pc, #252]	; (10002060 <clocks_init+0x2d0>)
10001f62:	6a61      	ldr	r1, [r4, #36]	; 0x24
10001f64:	0112      	lsls	r2, r2, #4
10001f66:	4d3d      	ldr	r5, [pc, #244]	; (1000205c <clocks_init+0x2cc>)
10001f68:	601a      	str	r2, [r3, #0]
10001f6a:	2900      	cmp	r1, #0
10001f6c:	d007      	beq.n	10001f7e <clocks_init+0x1ee>
10001f6e:	6960      	ldr	r0, [r4, #20]
10001f70:	f000 fa58 	bl	10002424 <__wrap___aeabi_uidiv>
10001f74:	1c43      	adds	r3, r0, #1
10001f76:	0058      	lsls	r0, r3, #1
10001f78:	18c0      	adds	r0, r0, r3
10001f7a:	3803      	subs	r0, #3
10001f7c:	d2fd      	bcs.n	10001f7a <clocks_init+0x1ea>
10001f7e:	22e0      	movs	r2, #224	; 0xe0
10001f80:	4936      	ldr	r1, [pc, #216]	; (1000205c <clocks_init+0x2cc>)
10001f82:	680b      	ldr	r3, [r1, #0]
10001f84:	401a      	ands	r2, r3
10001f86:	2380      	movs	r3, #128	; 0x80
10001f88:	015b      	lsls	r3, r3, #5
10001f8a:	432b      	orrs	r3, r5
10001f8c:	601a      	str	r2, [r3, #0]
10001f8e:	2380      	movs	r3, #128	; 0x80
10001f90:	2280      	movs	r2, #128	; 0x80
10001f92:	019b      	lsls	r3, r3, #6
10001f94:	432b      	orrs	r3, r5
10001f96:	0112      	lsls	r2, r2, #4
10001f98:	601a      	str	r2, [r3, #0]
10001f9a:	2380      	movs	r3, #128	; 0x80
10001f9c:	02db      	lsls	r3, r3, #11
10001f9e:	604b      	str	r3, [r1, #4]
10001fa0:	4b1d      	ldr	r3, [pc, #116]	; (10002018 <clocks_init+0x288>)
10001fa2:	6263      	str	r3, [r4, #36]	; 0x24
10001fa4:	4b2f      	ldr	r3, [pc, #188]	; (10002064 <clocks_init+0x2d4>)
10001fa6:	685a      	ldr	r2, [r3, #4]
10001fa8:	2aff      	cmp	r2, #255	; 0xff
10001faa:	d802      	bhi.n	10001fb2 <clocks_init+0x222>
10001fac:	2280      	movs	r2, #128	; 0x80
10001fae:	0052      	lsls	r2, r2, #1
10001fb0:	605a      	str	r2, [r3, #4]
10001fb2:	2280      	movs	r2, #128	; 0x80
10001fb4:	4b2c      	ldr	r3, [pc, #176]	; (10002068 <clocks_init+0x2d8>)
10001fb6:	69a1      	ldr	r1, [r4, #24]
10001fb8:	0112      	lsls	r2, r2, #4
10001fba:	4d2a      	ldr	r5, [pc, #168]	; (10002064 <clocks_init+0x2d4>)
10001fbc:	601a      	str	r2, [r3, #0]
10001fbe:	2900      	cmp	r1, #0
10001fc0:	d007      	beq.n	10001fd2 <clocks_init+0x242>
10001fc2:	6960      	ldr	r0, [r4, #20]
10001fc4:	f000 fa2e 	bl	10002424 <__wrap___aeabi_uidiv>
10001fc8:	1c43      	adds	r3, r0, #1
10001fca:	0058      	lsls	r0, r3, #1
10001fcc:	18c0      	adds	r0, r0, r3
10001fce:	3803      	subs	r0, #3
10001fd0:	d2fd      	bcs.n	10001fce <clocks_init+0x23e>
10001fd2:	22e0      	movs	r2, #224	; 0xe0
10001fd4:	4923      	ldr	r1, [pc, #140]	; (10002064 <clocks_init+0x2d4>)
10001fd6:	680b      	ldr	r3, [r1, #0]
10001fd8:	401a      	ands	r2, r3
10001fda:	2380      	movs	r3, #128	; 0x80
10001fdc:	015b      	lsls	r3, r3, #5
10001fde:	432b      	orrs	r3, r5
10001fe0:	601a      	str	r2, [r3, #0]
10001fe2:	2380      	movs	r3, #128	; 0x80
10001fe4:	2280      	movs	r2, #128	; 0x80
10001fe6:	019b      	lsls	r3, r3, #6
10001fe8:	432b      	orrs	r3, r5
10001fea:	0112      	lsls	r2, r2, #4
10001fec:	601a      	str	r2, [r3, #0]
10001fee:	2380      	movs	r3, #128	; 0x80
10001ff0:	005b      	lsls	r3, r3, #1
10001ff2:	604b      	str	r3, [r1, #4]
10001ff4:	4b13      	ldr	r3, [pc, #76]	; (10002044 <clocks_init+0x2b4>)
10001ff6:	61a3      	str	r3, [r4, #24]
10001ff8:	e6e0      	b.n	10001dbc <clocks_init+0x2c>
10001ffa:	605a      	str	r2, [r3, #4]
10001ffc:	e733      	b.n	10001e66 <clocks_init+0xd6>
10001ffe:	6960      	ldr	r0, [r4, #20]
10002000:	f000 fa10 	bl	10002424 <__wrap___aeabi_uidiv>
10002004:	1c43      	adds	r3, r0, #1
10002006:	0058      	lsls	r0, r3, #1
10002008:	18c0      	adds	r0, r0, r3
1000200a:	3803      	subs	r0, #3
1000200c:	d2fd      	bcs.n	1000200a <clocks_init+0x27a>
1000200e:	e708      	b.n	10001e22 <clocks_init+0x92>
10002010:	20001d58 	.word	0x20001d58
10002014:	02dc6c00 	.word	0x02dc6c00
10002018:	0000b71b 	.word	0x0000b71b
1000201c:	40008000 	.word	0x40008000
10002020:	4000b03c 	.word	0x4000b03c
10002024:	4000b030 	.word	0x4000b030
10002028:	59682f00 	.word	0x59682f00
1000202c:	40028000 	.word	0x40028000
10002030:	47868c00 	.word	0x47868c00
10002034:	4002c000 	.word	0x4002c000
10002038:	40008030 	.word	0x40008030
1000203c:	00b71b00 	.word	0x00b71b00
10002040:	4000803c 	.word	0x4000803c
10002044:	07735940 	.word	0x07735940
10002048:	40008054 	.word	0x40008054
1000204c:	4000b054 	.word	0x4000b054
10002050:	40008060 	.word	0x40008060
10002054:	4000b060 	.word	0x4000b060
10002058:	0003ffff 	.word	0x0003ffff
1000205c:	4000806c 	.word	0x4000806c
10002060:	4000b06c 	.word	0x4000b06c
10002064:	40008048 	.word	0x40008048
10002068:	4000b048 	.word	0x4000b048

1000206c <pll_init>:
1000206c:	b5f8      	push	{r3, r4, r5, r6, r7, lr}
1000206e:	0004      	movs	r4, r0
10002070:	4820      	ldr	r0, [pc, #128]	; (100020f4 <pll_init+0x88>)
10002072:	0017      	movs	r7, r2
10002074:	001d      	movs	r5, r3
10002076:	000e      	movs	r6, r1
10002078:	f000 f9d4 	bl	10002424 <__wrap___aeabi_uidiv>
1000207c:	0001      	movs	r1, r0
1000207e:	0038      	movs	r0, r7
10002080:	f000 f9d0 	bl	10002424 <__wrap___aeabi_uidiv>
10002084:	9a06      	ldr	r2, [sp, #24]
10002086:	042b      	lsls	r3, r5, #16
10002088:	0312      	lsls	r2, r2, #12
1000208a:	4313      	orrs	r3, r2
1000208c:	6822      	ldr	r2, [r4, #0]
1000208e:	2a00      	cmp	r2, #0
10002090:	db1c      	blt.n	100020cc <pll_init+0x60>
10002092:	4a19      	ldr	r2, [pc, #100]	; (100020f8 <pll_init+0x8c>)
10002094:	2180      	movs	r1, #128	; 0x80
10002096:	4294      	cmp	r4, r2
10002098:	d029      	beq.n	100020ee <pll_init+0x82>
1000209a:	0149      	lsls	r1, r1, #5
1000209c:	4a17      	ldr	r2, [pc, #92]	; (100020fc <pll_init+0x90>)
1000209e:	4d18      	ldr	r5, [pc, #96]	; (10002100 <pll_init+0x94>)
100020a0:	6011      	str	r1, [r2, #0]
100020a2:	4a18      	ldr	r2, [pc, #96]	; (10002104 <pll_init+0x98>)
100020a4:	6011      	str	r1, [r2, #0]
100020a6:	000f      	movs	r7, r1
100020a8:	68aa      	ldr	r2, [r5, #8]
100020aa:	4397      	bics	r7, r2
100020ac:	d1fb      	bne.n	100020a6 <pll_init+0x3a>
100020ae:	21c0      	movs	r1, #192	; 0xc0
100020b0:	1d22      	adds	r2, r4, #4
100020b2:	0189      	lsls	r1, r1, #6
100020b4:	4311      	orrs	r1, r2
100020b6:	2221      	movs	r2, #33	; 0x21
100020b8:	6026      	str	r6, [r4, #0]
100020ba:	60a0      	str	r0, [r4, #8]
100020bc:	600a      	str	r2, [r1, #0]
100020be:	6822      	ldr	r2, [r4, #0]
100020c0:	2a00      	cmp	r2, #0
100020c2:	dafc      	bge.n	100020be <pll_init+0x52>
100020c4:	60e3      	str	r3, [r4, #12]
100020c6:	2308      	movs	r3, #8
100020c8:	600b      	str	r3, [r1, #0]
100020ca:	bdf8      	pop	{r3, r4, r5, r6, r7, pc}
100020cc:	223f      	movs	r2, #63	; 0x3f
100020ce:	6821      	ldr	r1, [r4, #0]
100020d0:	400a      	ands	r2, r1
100020d2:	4296      	cmp	r6, r2
100020d4:	d1dd      	bne.n	10002092 <pll_init+0x26>
100020d6:	68a2      	ldr	r2, [r4, #8]
100020d8:	0512      	lsls	r2, r2, #20
100020da:	0d12      	lsrs	r2, r2, #20
100020dc:	4290      	cmp	r0, r2
100020de:	d1d8      	bne.n	10002092 <pll_init+0x26>
100020e0:	21ee      	movs	r1, #238	; 0xee
100020e2:	68e2      	ldr	r2, [r4, #12]
100020e4:	02c9      	lsls	r1, r1, #11
100020e6:	400a      	ands	r2, r1
100020e8:	4293      	cmp	r3, r2
100020ea:	d1d2      	bne.n	10002092 <pll_init+0x26>
100020ec:	e7ed      	b.n	100020ca <pll_init+0x5e>
100020ee:	0189      	lsls	r1, r1, #6
100020f0:	e7d4      	b.n	1000209c <pll_init+0x30>
100020f2:	46c0      	nop			; (mov r8, r8)
100020f4:	00b71b00 	.word	0x00b71b00
100020f8:	4002c000 	.word	0x4002c000
100020fc:	4000e000 	.word	0x4000e000
10002100:	4000c000 	.word	0x4000c000
10002104:	4000f000 	.word	0x4000f000

10002108 <watchdog_start_tick>:
10002108:	2380      	movs	r3, #128	; 0x80
1000210a:	009b      	lsls	r3, r3, #2
1000210c:	4318      	orrs	r0, r3
1000210e:	4b01      	ldr	r3, [pc, #4]	; (10002114 <watchdog_start_tick+0xc>)
10002110:	62d8      	str	r0, [r3, #44]	; 0x2c
10002112:	4770      	bx	lr
10002114:	40058000 	.word	0x40058000

10002118 <watchdog_reboot>:
10002118:	b510      	push	{r4, lr}
1000211a:	2480      	movs	r4, #128	; 0x80
1000211c:	4b1a      	ldr	r3, [pc, #104]	; (10002188 <watchdog_reboot+0x70>)
1000211e:	05e4      	lsls	r4, r4, #23
10002120:	601c      	str	r4, [r3, #0]
10002122:	2800      	cmp	r0, #0
10002124:	d01a      	beq.n	1000215c <watchdog_reboot+0x44>
10002126:	2301      	movs	r3, #1
10002128:	4c18      	ldr	r4, [pc, #96]	; (1000218c <watchdog_reboot+0x74>)
1000212a:	4318      	orrs	r0, r3
1000212c:	4b18      	ldr	r3, [pc, #96]	; (10002190 <watchdog_reboot+0x78>)
1000212e:	61dc      	str	r4, [r3, #28]
10002130:	4c18      	ldr	r4, [pc, #96]	; (10002194 <watchdog_reboot+0x7c>)
10002132:	4044      	eors	r4, r0
10002134:	621c      	str	r4, [r3, #32]
10002136:	6259      	str	r1, [r3, #36]	; 0x24
10002138:	6298      	str	r0, [r3, #40]	; 0x28
1000213a:	2180      	movs	r1, #128	; 0x80
1000213c:	4b12      	ldr	r3, [pc, #72]	; (10002188 <watchdog_reboot+0x70>)
1000213e:	05c9      	lsls	r1, r1, #23
10002140:	6019      	str	r1, [r3, #0]
10002142:	4815      	ldr	r0, [pc, #84]	; (10002198 <watchdog_reboot+0x80>)
10002144:	4915      	ldr	r1, [pc, #84]	; (1000219c <watchdog_reboot+0x84>)
10002146:	6008      	str	r0, [r1, #0]
10002148:	21e0      	movs	r1, #224	; 0xe0
1000214a:	04c9      	lsls	r1, r1, #19
1000214c:	6019      	str	r1, [r3, #0]
1000214e:	2a00      	cmp	r2, #0
10002150:	d107      	bne.n	10002162 <watchdog_reboot+0x4a>
10002152:	2280      	movs	r2, #128	; 0x80
10002154:	4b12      	ldr	r3, [pc, #72]	; (100021a0 <watchdog_reboot+0x88>)
10002156:	0612      	lsls	r2, r2, #24
10002158:	601a      	str	r2, [r3, #0]
1000215a:	bd10      	pop	{r4, pc}
1000215c:	4b0c      	ldr	r3, [pc, #48]	; (10002190 <watchdog_reboot+0x78>)
1000215e:	61d8      	str	r0, [r3, #28]
10002160:	e7eb      	b.n	1000213a <watchdog_reboot+0x22>
10002162:	23fa      	movs	r3, #250	; 0xfa
10002164:	00db      	lsls	r3, r3, #3
10002166:	435a      	muls	r2, r3
10002168:	4b0e      	ldr	r3, [pc, #56]	; (100021a4 <watchdog_reboot+0x8c>)
1000216a:	429a      	cmp	r2, r3
1000216c:	d808      	bhi.n	10002180 <watchdog_reboot+0x68>
1000216e:	4b0e      	ldr	r3, [pc, #56]	; (100021a8 <watchdog_reboot+0x90>)
10002170:	601a      	str	r2, [r3, #0]
10002172:	4b07      	ldr	r3, [pc, #28]	; (10002190 <watchdog_reboot+0x78>)
10002174:	605a      	str	r2, [r3, #4]
10002176:	2280      	movs	r2, #128	; 0x80
10002178:	4b09      	ldr	r3, [pc, #36]	; (100021a0 <watchdog_reboot+0x88>)
1000217a:	05d2      	lsls	r2, r2, #23
1000217c:	601a      	str	r2, [r3, #0]
1000217e:	e7ec      	b.n	1000215a <watchdog_reboot+0x42>
10002180:	4a09      	ldr	r2, [pc, #36]	; (100021a8 <watchdog_reboot+0x90>)
10002182:	6013      	str	r3, [r2, #0]
10002184:	001a      	movs	r2, r3
10002186:	e7f4      	b.n	10002172 <watchdog_reboot+0x5a>
10002188:	4005b000 	.word	0x4005b000
1000218c:	b007c0d3 	.word	0xb007c0d3
10002190:	40058000 	.word	0x40058000
10002194:	4ff83f2d 	.word	0x4ff83f2d
10002198:	0001fffc 	.word	0x0001fffc
1000219c:	40012008 	.word	0x40012008
100021a0:	4005a000 	.word	0x4005a000
100021a4:	00ffffff 	.word	0x00ffffff
100021a8:	200021fc 	.word	0x200021fc

100021ac <xosc_init>:
100021ac:	23aa      	movs	r3, #170	; 0xaa
100021ae:	4a06      	ldr	r2, [pc, #24]	; (100021c8 <xosc_init+0x1c>)
100021b0:	011b      	lsls	r3, r3, #4
100021b2:	6013      	str	r3, [r2, #0]
100021b4:	232f      	movs	r3, #47	; 0x2f
100021b6:	4905      	ldr	r1, [pc, #20]	; (100021cc <xosc_init+0x20>)
100021b8:	60d3      	str	r3, [r2, #12]
100021ba:	4b05      	ldr	r3, [pc, #20]	; (100021d0 <xosc_init+0x24>)
100021bc:	6019      	str	r1, [r3, #0]
100021be:	6853      	ldr	r3, [r2, #4]
100021c0:	2b00      	cmp	r3, #0
100021c2:	dafc      	bge.n	100021be <xosc_init+0x12>
100021c4:	4770      	bx	lr
100021c6:	46c0      	nop			; (mov r8, r8)
100021c8:	40024000 	.word	0x40024000
100021cc:	00fab000 	.word	0x00fab000
100021d0:	40026000 	.word	0x40026000

100021d4 <runtime_init>:
100021d4:	4a2d      	ldr	r2, [pc, #180]	; (1000228c <runtime_init+0xb8>)
100021d6:	4b2e      	ldr	r3, [pc, #184]	; (10002290 <runtime_init+0xbc>)
100021d8:	b570      	push	{r4, r5, r6, lr}
100021da:	601a      	str	r2, [r3, #0]
100021dc:	4a2d      	ldr	r2, [pc, #180]	; (10002294 <runtime_init+0xc0>)
100021de:	4b2e      	ldr	r3, [pc, #184]	; (10002298 <runtime_init+0xc4>)
100021e0:	492e      	ldr	r1, [pc, #184]	; (1000229c <runtime_init+0xc8>)
100021e2:	601a      	str	r2, [r3, #0]
100021e4:	0010      	movs	r0, r2
100021e6:	688b      	ldr	r3, [r1, #8]
100021e8:	4398      	bics	r0, r3
100021ea:	d1fb      	bne.n	100021e4 <runtime_init+0x10>
100021ec:	4e2c      	ldr	r6, [pc, #176]	; (100022a0 <runtime_init+0xcc>)
100021ee:	4b2d      	ldr	r3, [pc, #180]	; (100022a4 <runtime_init+0xd0>)
100021f0:	429e      	cmp	r6, r3
100021f2:	d20a      	bcs.n	1000220a <runtime_init+0x36>
100021f4:	43f5      	mvns	r5, r6
100021f6:	2400      	movs	r4, #0
100021f8:	18ed      	adds	r5, r5, r3
100021fa:	08ad      	lsrs	r5, r5, #2
100021fc:	3501      	adds	r5, #1
100021fe:	00a3      	lsls	r3, r4, #2
10002200:	58f3      	ldr	r3, [r6, r3]
10002202:	3401      	adds	r4, #1
10002204:	4798      	blx	r3
10002206:	42ac      	cmp	r4, r5
10002208:	d1f9      	bne.n	100021fe <runtime_init+0x2a>
1000220a:	f7ff fdc1 	bl	10001d90 <clocks_init>
1000220e:	4a26      	ldr	r2, [pc, #152]	; (100022a8 <runtime_init+0xd4>)
10002210:	4b21      	ldr	r3, [pc, #132]	; (10002298 <runtime_init+0xc4>)
10002212:	601a      	str	r2, [r3, #0]
10002214:	4a21      	ldr	r2, [pc, #132]	; (1000229c <runtime_init+0xc8>)
10002216:	6893      	ldr	r3, [r2, #8]
10002218:	01db      	lsls	r3, r3, #7
1000221a:	3380      	adds	r3, #128	; 0x80
1000221c:	d1fb      	bne.n	10002216 <runtime_init+0x42>
1000221e:	2240      	movs	r2, #64	; 0x40
10002220:	4b22      	ldr	r3, [pc, #136]	; (100022ac <runtime_init+0xd8>)
10002222:	4c23      	ldr	r4, [pc, #140]	; (100022b0 <runtime_init+0xdc>)
10002224:	4d23      	ldr	r5, [pc, #140]	; (100022b4 <runtime_init+0xe0>)
10002226:	679a      	str	r2, [r3, #120]	; 0x78
10002228:	675a      	str	r2, [r3, #116]	; 0x74
1000222a:	671a      	str	r2, [r3, #112]	; 0x70
1000222c:	66da      	str	r2, [r3, #108]	; 0x6c
1000222e:	42ac      	cmp	r4, r5
10002230:	d208      	bcs.n	10002244 <runtime_init+0x70>
10002232:	6823      	ldr	r3, [r4, #0]
10002234:	0020      	movs	r0, r4
10002236:	2b00      	cmp	r3, #0
10002238:	d022      	beq.n	10002280 <runtime_init+0xac>
1000223a:	3408      	adds	r4, #8
1000223c:	f7fe fc3c 	bl	10000ab8 <recursive_mutex_init>
10002240:	42ac      	cmp	r4, r5
10002242:	d3f6      	bcc.n	10002232 <runtime_init+0x5e>
10002244:	4d1c      	ldr	r5, [pc, #112]	; (100022b8 <runtime_init+0xe4>)
10002246:	4c1d      	ldr	r4, [pc, #116]	; (100022bc <runtime_init+0xe8>)
10002248:	22c0      	movs	r2, #192	; 0xc0
1000224a:	68a1      	ldr	r1, [r4, #8]
1000224c:	0028      	movs	r0, r5
1000224e:	f000 f9c7 	bl	100025e0 <__wrap___aeabi_memcpy>
10002252:	60a5      	str	r5, [r4, #8]
10002254:	f7fe f93c 	bl	100004d0 <spin_locks_reset>
10002258:	f7fe fbe0 	bl	10000a1c <irq_init_priorities>
1000225c:	f7fe fdfa 	bl	10000e54 <alarm_pool_init_default>
10002260:	4e17      	ldr	r6, [pc, #92]	; (100022c0 <runtime_init+0xec>)
10002262:	4b18      	ldr	r3, [pc, #96]	; (100022c4 <runtime_init+0xf0>)
10002264:	429e      	cmp	r6, r3
10002266:	d20a      	bcs.n	1000227e <runtime_init+0xaa>
10002268:	43f5      	mvns	r5, r6
1000226a:	2400      	movs	r4, #0
1000226c:	18ed      	adds	r5, r5, r3
1000226e:	08ad      	lsrs	r5, r5, #2
10002270:	3501      	adds	r5, #1
10002272:	00a3      	lsls	r3, r4, #2
10002274:	58f3      	ldr	r3, [r6, r3]
10002276:	3401      	adds	r4, #1
10002278:	4798      	blx	r3
1000227a:	42a5      	cmp	r5, r4
1000227c:	d1f9      	bne.n	10002272 <runtime_init+0x9e>
1000227e:	bd70      	pop	{r4, r5, r6, pc}
10002280:	3408      	adds	r4, #8
10002282:	f7fe fc0b 	bl	10000a9c <mutex_init>
10002286:	42ac      	cmp	r4, r5
10002288:	d3d3      	bcc.n	10002232 <runtime_init+0x5e>
1000228a:	e7db      	b.n	10002244 <runtime_init+0x70>
1000228c:	fefbcdbf 	.word	0xfefbcdbf
10002290:	4000e000 	.word	0x4000e000
10002294:	003c7ffe 	.word	0x003c7ffe
10002298:	4000f000 	.word	0x4000f000
1000229c:	4000c000 	.word	0x4000c000
100022a0:	20001748 	.word	0x20001748
100022a4:	20001758 	.word	0x20001758
100022a8:	01ffffff 	.word	0x01ffffff
100022ac:	4001f000 	.word	0x4001f000
100022b0:	20001740 	.word	0x20001740
100022b4:	20001748 	.word	0x20001748
100022b8:	20000000 	.word	0x20000000
100022bc:	e000ed00 	.word	0xe000ed00
100022c0:	20001758 	.word	0x20001758
100022c4:	20001760 	.word	0x20001760

100022c8 <_exit>:
100022c8:	be00      	bkpt	0x0000
100022ca:	e7fd      	b.n	100022c8 <_exit>

100022cc <_sbrk>:
100022cc:	4a09      	ldr	r2, [pc, #36]	; (100022f4 <_sbrk+0x28>)
100022ce:	6813      	ldr	r3, [r2, #0]
100022d0:	2b00      	cmp	r3, #0
100022d2:	d006      	beq.n	100022e2 <_sbrk+0x16>
100022d4:	4908      	ldr	r1, [pc, #32]	; (100022f8 <_sbrk+0x2c>)
100022d6:	1818      	adds	r0, r3, r0
100022d8:	4288      	cmp	r0, r1
100022da:	d808      	bhi.n	100022ee <_sbrk+0x22>
100022dc:	6010      	str	r0, [r2, #0]
100022de:	0018      	movs	r0, r3
100022e0:	4770      	bx	lr
100022e2:	4b06      	ldr	r3, [pc, #24]	; (100022fc <_sbrk+0x30>)
100022e4:	4904      	ldr	r1, [pc, #16]	; (100022f8 <_sbrk+0x2c>)
100022e6:	1818      	adds	r0, r3, r0
100022e8:	6013      	str	r3, [r2, #0]
100022ea:	4288      	cmp	r0, r1
100022ec:	d9f6      	bls.n	100022dc <_sbrk+0x10>
100022ee:	2001      	movs	r0, #1
100022f0:	4240      	negs	r0, r0
100022f2:	e7f5      	b.n	100022e0 <_sbrk+0x14>
100022f4:	20001df4 	.word	0x20001df4
100022f8:	20040000 	.word	0x20040000
100022fc:	20002524 	.word	0x20002524

10002300 <exit>:
10002300:	b510      	push	{r4, lr}
10002302:	f7ff ffe1 	bl	100022c8 <_exit>
10002306:	46c0      	nop			; (mov r8, r8)

10002308 <panic>:
10002308:	b40f      	push	{r0, r1, r2, r3}
1000230a:	b500      	push	{lr}
1000230c:	4808      	ldr	r0, [pc, #32]	; (10002330 <panic+0x28>)
1000230e:	b083      	sub	sp, #12
10002310:	f000 fa50 	bl	100027b4 <__wrap_puts>
10002314:	9b04      	ldr	r3, [sp, #16]
10002316:	2b00      	cmp	r3, #0
10002318:	d007      	beq.n	1000232a <panic+0x22>
1000231a:	a905      	add	r1, sp, #20
1000231c:	0018      	movs	r0, r3
1000231e:	9101      	str	r1, [sp, #4]
10002320:	f000 f82e 	bl	10002380 <weak_raw_vprintf>
10002324:	4803      	ldr	r0, [pc, #12]	; (10002334 <panic+0x2c>)
10002326:	f000 fa45 	bl	100027b4 <__wrap_puts>
1000232a:	2001      	movs	r0, #1
1000232c:	f7ff ffcc 	bl	100022c8 <_exit>
10002330:	10006050 	.word	0x10006050
10002334:	10006060 	.word	0x10006060

10002338 <hard_assertion_failure>:
10002338:	b510      	push	{r4, lr}
1000233a:	4801      	ldr	r0, [pc, #4]	; (10002340 <hard_assertion_failure+0x8>)
1000233c:	f7ff ffe4 	bl	10002308 <panic>
10002340:	10006044 	.word	0x10006044

10002344 <_out_char>:
10002344:	b510      	push	{r4, lr}
10002346:	2800      	cmp	r0, #0
10002348:	d100      	bne.n	1000234c <_out_char+0x8>
1000234a:	bd10      	pop	{r4, pc}
1000234c:	4b0b      	ldr	r3, [pc, #44]	; (1000237c <_out_char+0x38>)
1000234e:	681c      	ldr	r4, [r3, #0]
10002350:	68a2      	ldr	r2, [r4, #8]
10002352:	6893      	ldr	r3, [r2, #8]
10002354:	3b01      	subs	r3, #1
10002356:	6093      	str	r3, [r2, #8]
10002358:	2b00      	cmp	r3, #0
1000235a:	db04      	blt.n	10002366 <_out_char+0x22>
1000235c:	6813      	ldr	r3, [r2, #0]
1000235e:	1c59      	adds	r1, r3, #1
10002360:	6011      	str	r1, [r2, #0]
10002362:	7018      	strb	r0, [r3, #0]
10002364:	e7f1      	b.n	1000234a <_out_char+0x6>
10002366:	6991      	ldr	r1, [r2, #24]
10002368:	428b      	cmp	r3, r1
1000236a:	db01      	blt.n	10002370 <_out_char+0x2c>
1000236c:	280a      	cmp	r0, #10
1000236e:	d1f5      	bne.n	1000235c <_out_char+0x18>
10002370:	0001      	movs	r1, r0
10002372:	0020      	movs	r0, r4
10002374:	f003 f80a 	bl	1000538c <__swbuf_r>
10002378:	e7e7      	b.n	1000234a <_out_char+0x6>
1000237a:	46c0      	nop			; (mov r8, r8)
1000237c:	20000f00 	.word	0x20000f00

10002380 <weak_raw_vprintf>:
10002380:	b510      	push	{r4, lr}
10002382:	4a09      	ldr	r2, [pc, #36]	; (100023a8 <weak_raw_vprintf+0x28>)
10002384:	b084      	sub	sp, #16
10002386:	6814      	ldr	r4, [r2, #0]
10002388:	2c00      	cmp	r4, #0
1000238a:	d009      	beq.n	100023a0 <weak_raw_vprintf+0x20>
1000238c:	2201      	movs	r2, #1
1000238e:	9100      	str	r1, [sp, #0]
10002390:	0003      	movs	r3, r0
10002392:	4252      	negs	r2, r2
10002394:	a903      	add	r1, sp, #12
10002396:	4805      	ldr	r0, [pc, #20]	; (100023ac <weak_raw_vprintf+0x2c>)
10002398:	47a0      	blx	r4
1000239a:	2001      	movs	r0, #1
1000239c:	b004      	add	sp, #16
1000239e:	bd10      	pop	{r4, pc}
100023a0:	f000 fa08 	bl	100027b4 <__wrap_puts>
100023a4:	2000      	movs	r0, #0
100023a6:	e7f9      	b.n	1000239c <weak_raw_vprintf+0x1c>
100023a8:	200021f8 	.word	0x200021f8
100023ac:	10002345 	.word	0x10002345

100023b0 <__aeabi_bits_init>:
100023b0:	4801      	ldr	r0, [pc, #4]	; (100023b8 <__aeabi_bits_init+0x8>)
100023b2:	2104      	movs	r1, #4
100023b4:	4b01      	ldr	r3, [pc, #4]	; (100023bc <__aeabi_bits_init+0xc>)
100023b6:	4718      	bx	r3
100023b8:	20000ea0 	.word	0x20000ea0
100023bc:	100023e1 	.word	0x100023e1

100023c0 <rom_func_lookup>:
100023c0:	2314      	movs	r3, #20
100023c2:	b510      	push	{r4, lr}
100023c4:	0001      	movs	r1, r0
100023c6:	8818      	ldrh	r0, [r3, #0]
100023c8:	3304      	adds	r3, #4
100023ca:	881b      	ldrh	r3, [r3, #0]
100023cc:	4798      	blx	r3
100023ce:	bd10      	pop	{r4, pc}

100023d0 <rom_data_lookup>:
100023d0:	2316      	movs	r3, #22
100023d2:	b510      	push	{r4, lr}
100023d4:	0001      	movs	r1, r0
100023d6:	8818      	ldrh	r0, [r3, #0]
100023d8:	3302      	adds	r3, #2
100023da:	881b      	ldrh	r3, [r3, #0]
100023dc:	4798      	blx	r3
100023de:	bd10      	pop	{r4, pc}

100023e0 <rom_funcs_lookup>:
100023e0:	b5f8      	push	{r3, r4, r5, r6, r7, lr}
100023e2:	4647      	mov	r7, r8
100023e4:	46ce      	mov	lr, r9
100023e6:	b580      	push	{r7, lr}
100023e8:	1e0f      	subs	r7, r1, #0
100023ea:	d019      	beq.n	10002420 <rom_funcs_lookup+0x40>
100023ec:	2314      	movs	r3, #20
100023ee:	4699      	mov	r9, r3
100023f0:	3304      	adds	r3, #4
100023f2:	0004      	movs	r4, r0
100023f4:	2500      	movs	r5, #0
100023f6:	2601      	movs	r6, #1
100023f8:	4698      	mov	r8, r3
100023fa:	464b      	mov	r3, r9
100023fc:	8818      	ldrh	r0, [r3, #0]
100023fe:	4643      	mov	r3, r8
10002400:	6821      	ldr	r1, [r4, #0]
10002402:	881b      	ldrh	r3, [r3, #0]
10002404:	4798      	blx	r3
10002406:	c401      	stmia	r4!, {r0}
10002408:	1e43      	subs	r3, r0, #1
1000240a:	4198      	sbcs	r0, r3
1000240c:	3501      	adds	r5, #1
1000240e:	4240      	negs	r0, r0
10002410:	4006      	ands	r6, r0
10002412:	42af      	cmp	r7, r5
10002414:	d1f1      	bne.n	100023fa <rom_funcs_lookup+0x1a>
10002416:	0030      	movs	r0, r6
10002418:	bc0c      	pop	{r2, r3}
1000241a:	4690      	mov	r8, r2
1000241c:	4699      	mov	r9, r3
1000241e:	bdf8      	pop	{r3, r4, r5, r6, r7, pc}
10002420:	2601      	movs	r6, #1
10002422:	e7f8      	b.n	10002416 <rom_funcs_lookup+0x36>

10002424 <__wrap___aeabi_uidiv>:
10002424:	4a11      	ldr	r2, [pc, #68]	; (1000246c <divmod_u32u32_savestate+0x18>)
10002426:	6f93      	ldr	r3, [r2, #120]	; 0x78
10002428:	089b      	lsrs	r3, r3, #2
1000242a:	d213      	bcs.n	10002454 <divmod_u32u32_savestate>

1000242c <divmod_u32u32_unsafe>:
1000242c:	6610      	str	r0, [r2, #96]	; 0x60
1000242e:	6651      	str	r1, [r2, #100]	; 0x64
10002430:	2900      	cmp	r1, #0
10002432:	d005      	beq.n	10002440 <divmod_u32u32_unsafe+0x14>
10002434:	e7ff      	b.n	10002436 <divmod_u32u32_unsafe+0xa>
10002436:	e7ff      	b.n	10002438 <divmod_u32u32_unsafe+0xc>
10002438:	e7ff      	b.n	1000243a <divmod_u32u32_unsafe+0xe>
1000243a:	6f51      	ldr	r1, [r2, #116]	; 0x74
1000243c:	6f10      	ldr	r0, [r2, #112]	; 0x70
1000243e:	4770      	bx	lr
10002440:	b504      	push	{r2, lr}
10002442:	2800      	cmp	r0, #0
10002444:	d001      	beq.n	1000244a <divmod_u32u32_unsafe+0x1e>
10002446:	2000      	movs	r0, #0
10002448:	43c0      	mvns	r0, r0
1000244a:	f003 fd6d 	bl	10005f28 <____aeabi_idiv0_veneer>
1000244e:	2100      	movs	r1, #0
10002450:	bd04      	pop	{r2, pc}
10002452:	46c0      	nop			; (mov r8, r8)

10002454 <divmod_u32u32_savestate>:
10002454:	b5f0      	push	{r4, r5, r6, r7, lr}
10002456:	6e14      	ldr	r4, [r2, #96]	; 0x60
10002458:	6e55      	ldr	r5, [r2, #100]	; 0x64
1000245a:	6f57      	ldr	r7, [r2, #116]	; 0x74
1000245c:	6f16      	ldr	r6, [r2, #112]	; 0x70
1000245e:	f7ff ffe5 	bl	1000242c <divmod_u32u32_unsafe>
10002462:	6614      	str	r4, [r2, #96]	; 0x60
10002464:	6655      	str	r5, [r2, #100]	; 0x64
10002466:	6757      	str	r7, [r2, #116]	; 0x74
10002468:	6716      	str	r6, [r2, #112]	; 0x70
1000246a:	bdf0      	pop	{r4, r5, r6, r7, pc}
1000246c:	d0000000 	.word	0xd0000000

10002470 <__aeabi_double_init>:
10002470:	2313      	movs	r3, #19
10002472:	b570      	push	{r4, r5, r6, lr}
10002474:	781c      	ldrb	r4, [r3, #0]
10002476:	2c01      	cmp	r4, #1
10002478:	d015      	beq.n	100024a6 <__aeabi_double_init+0x36>
1000247a:	dd10      	ble.n	1000249e <__aeabi_double_init+0x2e>
1000247c:	480f      	ldr	r0, [pc, #60]	; (100024bc <__aeabi_double_init+0x4c>)
1000247e:	f7ff ffa7 	bl	100023d0 <rom_data_lookup>
10002482:	4d0f      	ldr	r5, [pc, #60]	; (100024c0 <__aeabi_double_init+0x50>)
10002484:	0001      	movs	r1, r0
10002486:	2280      	movs	r2, #128	; 0x80
10002488:	0028      	movs	r0, r5
1000248a:	f000 f8a9 	bl	100025e0 <__wrap___aeabi_memcpy>
1000248e:	2c02      	cmp	r4, #2
10002490:	d006      	beq.n	100024a0 <__aeabi_double_init+0x30>
10002492:	480c      	ldr	r0, [pc, #48]	; (100024c4 <__aeabi_double_init+0x54>)
10002494:	f7ff ff94 	bl	100023c0 <rom_func_lookup>
10002498:	4b0b      	ldr	r3, [pc, #44]	; (100024c8 <__aeabi_double_init+0x58>)
1000249a:	6018      	str	r0, [r3, #0]
1000249c:	bd70      	pop	{r4, r5, r6, pc}
1000249e:	4d08      	ldr	r5, [pc, #32]	; (100024c0 <__aeabi_double_init+0x50>)
100024a0:	4a0a      	ldr	r2, [pc, #40]	; (100024cc <__aeabi_double_init+0x5c>)
100024a2:	64aa      	str	r2, [r5, #72]	; 0x48
100024a4:	e7f5      	b.n	10002492 <__aeabi_double_init+0x22>
100024a6:	4d06      	ldr	r5, [pc, #24]	; (100024c0 <__aeabi_double_init+0x50>)
100024a8:	4a08      	ldr	r2, [pc, #32]	; (100024cc <__aeabi_double_init+0x5c>)
100024aa:	0029      	movs	r1, r5
100024ac:	002b      	movs	r3, r5
100024ae:	3180      	adds	r1, #128	; 0x80
100024b0:	c304      	stmia	r3!, {r2}
100024b2:	428b      	cmp	r3, r1
100024b4:	d1fc      	bne.n	100024b0 <__aeabi_double_init+0x40>
100024b6:	64aa      	str	r2, [r5, #72]	; 0x48
100024b8:	e7eb      	b.n	10002492 <__aeabi_double_init+0x22>
100024ba:	46c0      	nop			; (mov r8, r8)
100024bc:	00004453 	.word	0x00004453
100024c0:	20002260 	.word	0x20002260
100024c4:	0000334c 	.word	0x0000334c
100024c8:	20002224 	.word	0x20002224
100024cc:	100024d1 	.word	0x100024d1

100024d0 <double_table_shim_on_use_helper>:
100024d0:	b507      	push	{r0, r1, r2, lr}
100024d2:	4660      	mov	r0, ip
100024d4:	8801      	ldrh	r1, [r0, #0]
100024d6:	0a0a      	lsrs	r2, r1, #8
100024d8:	3002      	adds	r0, #2
100024da:	2adf      	cmp	r2, #223	; 0xdf
100024dc:	d1fa      	bne.n	100024d4 <double_table_shim_on_use_helper+0x4>
100024de:	b2c9      	uxtb	r1, r1
100024e0:	0882      	lsrs	r2, r0, #2
100024e2:	d304      	bcc.n	100024ee <double_table_shim_on_use_helper+0x1e>
100024e4:	8802      	ldrh	r2, [r0, #0]
100024e6:	8840      	ldrh	r0, [r0, #2]
100024e8:	0400      	lsls	r0, r0, #16
100024ea:	4310      	orrs	r0, r2
100024ec:	e000      	b.n	100024f0 <double_table_shim_on_use_helper+0x20>
100024ee:	6800      	ldr	r0, [r0, #0]
100024f0:	4a01      	ldr	r2, [pc, #4]	; (100024f8 <double_table_shim_on_use_helper+0x28>)
100024f2:	5050      	str	r0, [r2, r1]
100024f4:	9003      	str	r0, [sp, #12]
100024f6:	bd07      	pop	{r0, r1, r2, pc}
100024f8:	20002260 	.word	0x20002260

100024fc <__wrap___aeabi_lmul>:
100024fc:	4351      	muls	r1, r2
100024fe:	4343      	muls	r3, r0
10002500:	18c9      	adds	r1, r1, r3
10002502:	468c      	mov	ip, r1
10002504:	0c11      	lsrs	r1, r2, #16
10002506:	b283      	uxth	r3, r0
10002508:	434b      	muls	r3, r1
1000250a:	b410      	push	{r4}
1000250c:	0c04      	lsrs	r4, r0, #16
1000250e:	4361      	muls	r1, r4
10002510:	b292      	uxth	r2, r2
10002512:	b280      	uxth	r0, r0
10002514:	4350      	muls	r0, r2
10002516:	4362      	muls	r2, r4
10002518:	041c      	lsls	r4, r3, #16
1000251a:	0c1b      	lsrs	r3, r3, #16
1000251c:	1900      	adds	r0, r0, r4
1000251e:	bc10      	pop	{r4}
10002520:	4159      	adcs	r1, r3
10002522:	0413      	lsls	r3, r2, #16
10002524:	0c12      	lsrs	r2, r2, #16
10002526:	18c0      	adds	r0, r0, r3
10002528:	4151      	adcs	r1, r2
1000252a:	4461      	add	r1, ip
1000252c:	4770      	bx	lr
	...

10002530 <__aeabi_float_init>:
10002530:	2313      	movs	r3, #19
10002532:	b510      	push	{r4, lr}
10002534:	781c      	ldrb	r4, [r3, #0]
10002536:	4813      	ldr	r0, [pc, #76]	; (10002584 <__aeabi_float_init+0x54>)
10002538:	f7ff ff4a 	bl	100023d0 <rom_data_lookup>
1000253c:	2c01      	cmp	r4, #1
1000253e:	d00b      	beq.n	10002558 <__aeabi_float_init+0x28>
10002540:	dd04      	ble.n	1000254c <__aeabi_float_init+0x1c>
10002542:	0001      	movs	r1, r0
10002544:	2280      	movs	r2, #128	; 0x80
10002546:	4810      	ldr	r0, [pc, #64]	; (10002588 <__aeabi_float_init+0x58>)
10002548:	f000 f84a 	bl	100025e0 <__wrap___aeabi_memcpy>
1000254c:	480f      	ldr	r0, [pc, #60]	; (1000258c <__aeabi_float_init+0x5c>)
1000254e:	f7ff ff37 	bl	100023c0 <rom_func_lookup>
10002552:	4b0f      	ldr	r3, [pc, #60]	; (10002590 <__aeabi_float_init+0x60>)
10002554:	6018      	str	r0, [r3, #0]
10002556:	bd10      	pop	{r4, pc}
10002558:	4c0b      	ldr	r4, [pc, #44]	; (10002588 <__aeabi_float_init+0x58>)
1000255a:	0001      	movs	r1, r0
1000255c:	2254      	movs	r2, #84	; 0x54
1000255e:	0020      	movs	r0, r4
10002560:	f000 f83e 	bl	100025e0 <__wrap___aeabi_memcpy>
10002564:	4b0b      	ldr	r3, [pc, #44]	; (10002594 <__aeabi_float_init+0x64>)
10002566:	6563      	str	r3, [r4, #84]	; 0x54
10002568:	65a3      	str	r3, [r4, #88]	; 0x58
1000256a:	65e3      	str	r3, [r4, #92]	; 0x5c
1000256c:	6623      	str	r3, [r4, #96]	; 0x60
1000256e:	6663      	str	r3, [r4, #100]	; 0x64
10002570:	66a3      	str	r3, [r4, #104]	; 0x68
10002572:	66e3      	str	r3, [r4, #108]	; 0x6c
10002574:	6723      	str	r3, [r4, #112]	; 0x70
10002576:	6763      	str	r3, [r4, #116]	; 0x74
10002578:	67a3      	str	r3, [r4, #120]	; 0x78
1000257a:	67e3      	str	r3, [r4, #124]	; 0x7c
1000257c:	6223      	str	r3, [r4, #32]
1000257e:	61e3      	str	r3, [r4, #28]
10002580:	e7e4      	b.n	1000254c <__aeabi_float_init+0x1c>
10002582:	46c0      	nop			; (mov r8, r8)
10002584:	00004653 	.word	0x00004653
10002588:	20002360 	.word	0x20002360
1000258c:	0000334c 	.word	0x0000334c
10002590:	20002224 	.word	0x20002224
10002594:	10002599 	.word	0x10002599

10002598 <float_table_shim_on_use_helper>:
10002598:	b507      	push	{r0, r1, r2, lr}
1000259a:	4660      	mov	r0, ip
1000259c:	8801      	ldrh	r1, [r0, #0]
1000259e:	0a0a      	lsrs	r2, r1, #8
100025a0:	3002      	adds	r0, #2
100025a2:	2adf      	cmp	r2, #223	; 0xdf
100025a4:	d1fa      	bne.n	1000259c <float_table_shim_on_use_helper+0x4>
100025a6:	b2c9      	uxtb	r1, r1
100025a8:	0882      	lsrs	r2, r0, #2
100025aa:	d304      	bcc.n	100025b6 <float_table_shim_on_use_helper+0x1e>
100025ac:	8802      	ldrh	r2, [r0, #0]
100025ae:	8840      	ldrh	r0, [r0, #2]
100025b0:	0400      	lsls	r0, r0, #16
100025b2:	4310      	orrs	r0, r2
100025b4:	e000      	b.n	100025b8 <float_table_shim_on_use_helper+0x20>
100025b6:	6800      	ldr	r0, [r0, #0]
100025b8:	4a01      	ldr	r2, [pc, #4]	; (100025c0 <float_table_shim_on_use_helper+0x28>)
100025ba:	5050      	str	r0, [r2, r1]
100025bc:	9003      	str	r0, [sp, #12]
100025be:	bd07      	pop	{r0, r1, r2, pc}
100025c0:	20002360 	.word	0x20002360

100025c4 <__aeabi_mem_init>:
100025c4:	4801      	ldr	r0, [pc, #4]	; (100025cc <__aeabi_mem_init+0x8>)
100025c6:	2104      	movs	r1, #4
100025c8:	4b01      	ldr	r3, [pc, #4]	; (100025d0 <__aeabi_mem_init+0xc>)
100025ca:	4718      	bx	r3
100025cc:	20000eb0 	.word	0x20000eb0
100025d0:	100023e1 	.word	0x100023e1

100025d4 <__wrap_memset>:
100025d4:	4b01      	ldr	r3, [pc, #4]	; (100025dc <__wrap_memset+0x8>)
100025d6:	681b      	ldr	r3, [r3, #0]
100025d8:	4718      	bx	r3
100025da:	0000      	.short	0x0000
100025dc:	20000eb0 	.word	0x20000eb0

100025e0 <__wrap___aeabi_memcpy>:
100025e0:	4b01      	ldr	r3, [pc, #4]	; (100025e8 <__wrap___aeabi_memcpy+0x8>)
100025e2:	685b      	ldr	r3, [r3, #4]
100025e4:	4718      	bx	r3
100025e6:	0000      	.short	0x0000
100025e8:	20000eb0 	.word	0x20000eb0

100025ec <stdio_out_chars_no_crlf>:
100025ec:	0003      	movs	r3, r0
100025ee:	b510      	push	{r4, lr}
100025f0:	0008      	movs	r0, r1
100025f2:	681b      	ldr	r3, [r3, #0]
100025f4:	0011      	movs	r1, r2
100025f6:	4798      	blx	r3
100025f8:	bd10      	pop	{r4, pc}
100025fa:	46c0      	nop			; (mov r8, r8)

100025fc <stdio_out_chars_crlf>:
100025fc:	b5f8      	push	{r3, r4, r5, r6, r7, lr}
100025fe:	4647      	mov	r7, r8
10002600:	46ce      	mov	lr, r9
10002602:	b580      	push	{r7, lr}
10002604:	7d43      	ldrb	r3, [r0, #21]
10002606:	4680      	mov	r8, r0
10002608:	000e      	movs	r6, r1
1000260a:	0017      	movs	r7, r2
1000260c:	2b00      	cmp	r3, #0
1000260e:	d048      	beq.n	100026a2 <stdio_out_chars_crlf+0xa6>
10002610:	2a00      	cmp	r2, #0
10002612:	dd2e      	ble.n	10002672 <stdio_out_chars_crlf+0x76>
10002614:	4b27      	ldr	r3, [pc, #156]	; (100026b4 <stdio_out_chars_crlf+0xb8>)
10002616:	2501      	movs	r5, #1
10002618:	2400      	movs	r4, #0
1000261a:	2000      	movs	r0, #0
1000261c:	4699      	mov	r9, r3
1000261e:	e004      	b.n	1000262a <stdio_out_chars_crlf+0x2e>
10002620:	002b      	movs	r3, r5
10002622:	3401      	adds	r4, #1
10002624:	3501      	adds	r5, #1
10002626:	429f      	cmp	r7, r3
10002628:	dd19      	ble.n	1000265e <stdio_out_chars_crlf+0x62>
1000262a:	2c00      	cmp	r4, #0
1000262c:	d03e      	beq.n	100026ac <stdio_out_chars_crlf+0xb0>
1000262e:	1e63      	subs	r3, r4, #1
10002630:	5cf3      	ldrb	r3, [r6, r3]
10002632:	3b0d      	subs	r3, #13
10002634:	4259      	negs	r1, r3
10002636:	4159      	adcs	r1, r3
10002638:	b2cb      	uxtb	r3, r1
1000263a:	5d32      	ldrb	r2, [r6, r4]
1000263c:	2a0a      	cmp	r2, #10
1000263e:	d1ef      	bne.n	10002620 <stdio_out_chars_crlf+0x24>
10002640:	2b00      	cmp	r3, #0
10002642:	d1ed      	bne.n	10002620 <stdio_out_chars_crlf+0x24>
10002644:	4284      	cmp	r4, r0
10002646:	dc26      	bgt.n	10002696 <stdio_out_chars_crlf+0x9a>
10002648:	4643      	mov	r3, r8
1000264a:	4648      	mov	r0, r9
1000264c:	681b      	ldr	r3, [r3, #0]
1000264e:	2102      	movs	r1, #2
10002650:	4798      	blx	r3
10002652:	3401      	adds	r4, #1
10002654:	0028      	movs	r0, r5
10002656:	002b      	movs	r3, r5
10002658:	3501      	adds	r5, #1
1000265a:	429f      	cmp	r7, r3
1000265c:	dce5      	bgt.n	1000262a <stdio_out_chars_crlf+0x2e>
1000265e:	42b8      	cmp	r0, r7
10002660:	db0b      	blt.n	1000267a <stdio_out_chars_crlf+0x7e>
10002662:	19f6      	adds	r6, r6, r7
10002664:	3e01      	subs	r6, #1
10002666:	7833      	ldrb	r3, [r6, #0]
10002668:	3b0d      	subs	r3, #13
1000266a:	4259      	negs	r1, r3
1000266c:	4159      	adcs	r1, r3
1000266e:	4643      	mov	r3, r8
10002670:	7519      	strb	r1, [r3, #20]
10002672:	bc0c      	pop	{r2, r3}
10002674:	4690      	mov	r8, r2
10002676:	4699      	mov	r9, r3
10002678:	bdf8      	pop	{r3, r4, r5, r6, r7, pc}
1000267a:	4643      	mov	r3, r8
1000267c:	1a39      	subs	r1, r7, r0
1000267e:	1830      	adds	r0, r6, r0
10002680:	19f6      	adds	r6, r6, r7
10002682:	681b      	ldr	r3, [r3, #0]
10002684:	3e01      	subs	r6, #1
10002686:	4798      	blx	r3
10002688:	7833      	ldrb	r3, [r6, #0]
1000268a:	3b0d      	subs	r3, #13
1000268c:	4259      	negs	r1, r3
1000268e:	4159      	adcs	r1, r3
10002690:	4643      	mov	r3, r8
10002692:	7519      	strb	r1, [r3, #20]
10002694:	e7ed      	b.n	10002672 <stdio_out_chars_crlf+0x76>
10002696:	4643      	mov	r3, r8
10002698:	1a21      	subs	r1, r4, r0
1000269a:	681b      	ldr	r3, [r3, #0]
1000269c:	1830      	adds	r0, r6, r0
1000269e:	4798      	blx	r3
100026a0:	e7d2      	b.n	10002648 <stdio_out_chars_crlf+0x4c>
100026a2:	6803      	ldr	r3, [r0, #0]
100026a4:	0011      	movs	r1, r2
100026a6:	0030      	movs	r0, r6
100026a8:	4798      	blx	r3
100026aa:	e7e2      	b.n	10002672 <stdio_out_chars_crlf+0x76>
100026ac:	4643      	mov	r3, r8
100026ae:	7d1b      	ldrb	r3, [r3, #20]
100026b0:	e7c3      	b.n	1000263a <stdio_out_chars_crlf+0x3e>
100026b2:	46c0      	nop			; (mov r8, r8)
100026b4:	100060c4 	.word	0x100060c4

100026b8 <stdio_put_string>:
100026b8:	b5f0      	push	{r4, r5, r6, r7, lr}
100026ba:	46de      	mov	lr, fp
100026bc:	4657      	mov	r7, sl
100026be:	464e      	mov	r6, r9
100026c0:	4645      	mov	r5, r8
100026c2:	b5e0      	push	{r5, r6, r7, lr}
100026c4:	b083      	sub	sp, #12
100026c6:	0017      	movs	r7, r2
100026c8:	001c      	movs	r4, r3
100026ca:	0006      	movs	r6, r0
100026cc:	000d      	movs	r5, r1
100026ce:	f7fe ff2f 	bl	10001530 <time_us_64>
100026d2:	2300      	movs	r3, #0
100026d4:	4a30      	ldr	r2, [pc, #192]	; (10002798 <stdio_put_string+0xe0>)
100026d6:	1812      	adds	r2, r2, r0
100026d8:	414b      	adcs	r3, r1
100026da:	2b00      	cmp	r3, #0
100026dc:	da02      	bge.n	100026e4 <stdio_put_string+0x2c>
100026de:	2201      	movs	r2, #1
100026e0:	4b2e      	ldr	r3, [pc, #184]	; (1000279c <stdio_put_string+0xe4>)
100026e2:	4252      	negs	r2, r2
100026e4:	492e      	ldr	r1, [pc, #184]	; (100027a0 <stdio_put_string+0xe8>)
100026e6:	0008      	movs	r0, r1
100026e8:	4688      	mov	r8, r1
100026ea:	f003 fc35 	bl	10005f58 <__mutex_try_enter_block_until_veneer>
100026ee:	4681      	mov	r9, r0
100026f0:	1c6b      	adds	r3, r5, #1
100026f2:	d030      	beq.n	10002756 <stdio_put_string+0x9e>
100026f4:	2c00      	cmp	r4, #0
100026f6:	d12b      	bne.n	10002750 <stdio_put_string+0x98>
100026f8:	4b2a      	ldr	r3, [pc, #168]	; (100027a4 <stdio_put_string+0xec>)
100026fa:	469a      	mov	sl, r3
100026fc:	4b2a      	ldr	r3, [pc, #168]	; (100027a8 <stdio_put_string+0xf0>)
100026fe:	681c      	ldr	r4, [r3, #0]
10002700:	2c00      	cmp	r4, #0
10002702:	d015      	beq.n	10002730 <stdio_put_string+0x78>
10002704:	2f00      	cmp	r7, #0
10002706:	d12b      	bne.n	10002760 <stdio_put_string+0xa8>
10002708:	4f28      	ldr	r7, [pc, #160]	; (100027ac <stdio_put_string+0xf4>)
1000270a:	e002      	b.n	10002712 <stdio_put_string+0x5a>
1000270c:	6924      	ldr	r4, [r4, #16]
1000270e:	2c00      	cmp	r4, #0
10002710:	d00e      	beq.n	10002730 <stdio_put_string+0x78>
10002712:	6823      	ldr	r3, [r4, #0]
10002714:	2b00      	cmp	r3, #0
10002716:	d0f9      	beq.n	1000270c <stdio_put_string+0x54>
10002718:	683b      	ldr	r3, [r7, #0]
1000271a:	2b00      	cmp	r3, #0
1000271c:	d001      	beq.n	10002722 <stdio_put_string+0x6a>
1000271e:	42a3      	cmp	r3, r4
10002720:	d1f4      	bne.n	1000270c <stdio_put_string+0x54>
10002722:	0020      	movs	r0, r4
10002724:	002a      	movs	r2, r5
10002726:	0031      	movs	r1, r6
10002728:	47d0      	blx	sl
1000272a:	6924      	ldr	r4, [r4, #16]
1000272c:	2c00      	cmp	r4, #0
1000272e:	d1f0      	bne.n	10002712 <stdio_put_string+0x5a>
10002730:	464b      	mov	r3, r9
10002732:	2b00      	cmp	r3, #0
10002734:	d002      	beq.n	1000273c <stdio_put_string+0x84>
10002736:	4640      	mov	r0, r8
10002738:	f003 fbee 	bl	10005f18 <__mutex_exit_veneer>
1000273c:	1e68      	subs	r0, r5, #1
1000273e:	4185      	sbcs	r5, r0
10002740:	b2e8      	uxtb	r0, r5
10002742:	b003      	add	sp, #12
10002744:	bc3c      	pop	{r2, r3, r4, r5}
10002746:	4690      	mov	r8, r2
10002748:	4699      	mov	r9, r3
1000274a:	46a2      	mov	sl, r4
1000274c:	46ab      	mov	fp, r5
1000274e:	bdf0      	pop	{r4, r5, r6, r7, pc}
10002750:	4b17      	ldr	r3, [pc, #92]	; (100027b0 <stdio_put_string+0xf8>)
10002752:	469a      	mov	sl, r3
10002754:	e7d2      	b.n	100026fc <stdio_put_string+0x44>
10002756:	0030      	movs	r0, r6
10002758:	f002 fde6 	bl	10005328 <strlen>
1000275c:	0005      	movs	r5, r0
1000275e:	e7c9      	b.n	100026f4 <stdio_put_string+0x3c>
10002760:	4b12      	ldr	r3, [pc, #72]	; (100027ac <stdio_put_string+0xf4>)
10002762:	469b      	mov	fp, r3
10002764:	466b      	mov	r3, sp
10002766:	1ddf      	adds	r7, r3, #7
10002768:	e002      	b.n	10002770 <stdio_put_string+0xb8>
1000276a:	6924      	ldr	r4, [r4, #16]
1000276c:	2c00      	cmp	r4, #0
1000276e:	d0df      	beq.n	10002730 <stdio_put_string+0x78>
10002770:	6823      	ldr	r3, [r4, #0]
10002772:	2b00      	cmp	r3, #0
10002774:	d0f9      	beq.n	1000276a <stdio_put_string+0xb2>
10002776:	465b      	mov	r3, fp
10002778:	681b      	ldr	r3, [r3, #0]
1000277a:	2b00      	cmp	r3, #0
1000277c:	d001      	beq.n	10002782 <stdio_put_string+0xca>
1000277e:	42a3      	cmp	r3, r4
10002780:	d1f3      	bne.n	1000276a <stdio_put_string+0xb2>
10002782:	002a      	movs	r2, r5
10002784:	0031      	movs	r1, r6
10002786:	0020      	movs	r0, r4
10002788:	47d0      	blx	sl
1000278a:	230a      	movs	r3, #10
1000278c:	2201      	movs	r2, #1
1000278e:	0039      	movs	r1, r7
10002790:	0020      	movs	r0, r4
10002792:	703b      	strb	r3, [r7, #0]
10002794:	47d0      	blx	sl
10002796:	e7e8      	b.n	1000276a <stdio_put_string+0xb2>
10002798:	000f4240 	.word	0x000f4240
1000279c:	7fffffff 	.word	0x7fffffff
100027a0:	20001740 	.word	0x20001740
100027a4:	100025fd 	.word	0x100025fd
100027a8:	20001de8 	.word	0x20001de8
100027ac:	20001df0 	.word	0x20001df0
100027b0:	100025ed 	.word	0x100025ed

100027b4 <__wrap_puts>:
100027b4:	b570      	push	{r4, r5, r6, lr}
100027b6:	0004      	movs	r4, r0
100027b8:	f002 fdb6 	bl	10005328 <strlen>
100027bc:	2300      	movs	r3, #0
100027be:	0001      	movs	r1, r0
100027c0:	0005      	movs	r5, r0
100027c2:	2201      	movs	r2, #1
100027c4:	0020      	movs	r0, r4
100027c6:	f7ff ff77 	bl	100026b8 <stdio_put_string>
100027ca:	4b06      	ldr	r3, [pc, #24]	; (100027e4 <__wrap_puts+0x30>)
100027cc:	681c      	ldr	r4, [r3, #0]
100027ce:	2c00      	cmp	r4, #0
100027d0:	d006      	beq.n	100027e0 <__wrap_puts+0x2c>
100027d2:	6863      	ldr	r3, [r4, #4]
100027d4:	2b00      	cmp	r3, #0
100027d6:	d000      	beq.n	100027da <__wrap_puts+0x26>
100027d8:	4798      	blx	r3
100027da:	6924      	ldr	r4, [r4, #16]
100027dc:	2c00      	cmp	r4, #0
100027de:	d1f8      	bne.n	100027d2 <__wrap_puts+0x1e>
100027e0:	0028      	movs	r0, r5
100027e2:	bd70      	pop	{r4, r5, r6, pc}
100027e4:	20001de8 	.word	0x20001de8

100027e8 <_read>:
100027e8:	b5f0      	push	{r4, r5, r6, r7, lr}
100027ea:	4646      	mov	r6, r8
100027ec:	46de      	mov	lr, fp
100027ee:	4657      	mov	r7, sl
100027f0:	b5c0      	push	{r6, r7, lr}
100027f2:	4690      	mov	r8, r2
100027f4:	b082      	sub	sp, #8
100027f6:	000e      	movs	r6, r1
100027f8:	2800      	cmp	r0, #0
100027fa:	d12c      	bne.n	10002856 <_read+0x6e>
100027fc:	4b1a      	ldr	r3, [pc, #104]	; (10002868 <_read+0x80>)
100027fe:	4d1b      	ldr	r5, [pc, #108]	; (1000286c <_read+0x84>)
10002800:	681a      	ldr	r2, [r3, #0]
10002802:	685b      	ldr	r3, [r3, #4]
10002804:	4f1a      	ldr	r7, [pc, #104]	; (10002870 <_read+0x88>)
10002806:	469a      	mov	sl, r3
10002808:	4b1a      	ldr	r3, [pc, #104]	; (10002874 <_read+0x8c>)
1000280a:	9201      	str	r2, [sp, #4]
1000280c:	469b      	mov	fp, r3
1000280e:	465b      	mov	r3, fp
10002810:	681c      	ldr	r4, [r3, #0]
10002812:	2c00      	cmp	r4, #0
10002814:	d105      	bne.n	10002822 <_read+0x3a>
10002816:	e015      	b.n	10002844 <_read+0x5c>
10002818:	42a3      	cmp	r3, r4
1000281a:	d005      	beq.n	10002828 <_read+0x40>
1000281c:	6924      	ldr	r4, [r4, #16]
1000281e:	2c00      	cmp	r4, #0
10002820:	d010      	beq.n	10002844 <_read+0x5c>
10002822:	682b      	ldr	r3, [r5, #0]
10002824:	2b00      	cmp	r3, #0
10002826:	d1f7      	bne.n	10002818 <_read+0x30>
10002828:	68a3      	ldr	r3, [r4, #8]
1000282a:	2b00      	cmp	r3, #0
1000282c:	d0f6      	beq.n	1000281c <_read+0x34>
1000282e:	4641      	mov	r1, r8
10002830:	0030      	movs	r0, r6
10002832:	4798      	blx	r3
10002834:	2800      	cmp	r0, #0
10002836:	ddf1      	ble.n	1000281c <_read+0x34>
10002838:	b002      	add	sp, #8
1000283a:	bc1c      	pop	{r2, r3, r4}
1000283c:	4690      	mov	r8, r2
1000283e:	469a      	mov	sl, r3
10002840:	46a3      	mov	fp, r4
10002842:	bdf0      	pop	{r4, r5, r6, r7, pc}
10002844:	6a7b      	ldr	r3, [r7, #36]	; 0x24
10002846:	459a      	cmp	sl, r3
10002848:	d808      	bhi.n	1000285c <_read+0x74>
1000284a:	6aba      	ldr	r2, [r7, #40]	; 0x28
1000284c:	9901      	ldr	r1, [sp, #4]
1000284e:	428a      	cmp	r2, r1
10002850:	d201      	bcs.n	10002856 <_read+0x6e>
10002852:	459a      	cmp	sl, r3
10002854:	d002      	beq.n	1000285c <_read+0x74>
10002856:	2001      	movs	r0, #1
10002858:	4240      	negs	r0, r0
1000285a:	e7ed      	b.n	10002838 <_read+0x50>
1000285c:	2001      	movs	r0, #1
1000285e:	2100      	movs	r1, #0
10002860:	f7fe fe72 	bl	10001548 <busy_wait_us>
10002864:	e7d3      	b.n	1000280e <_read+0x26>
10002866:	46c0      	nop			; (mov r8, r8)
10002868:	10006018 	.word	0x10006018
1000286c:	20001df0 	.word	0x20001df0
10002870:	40054000 	.word	0x40054000
10002874:	20001de8 	.word	0x20001de8

10002878 <_write>:
10002878:	b5f0      	push	{r4, r5, r6, r7, lr}
1000287a:	4646      	mov	r6, r8
1000287c:	46d6      	mov	lr, sl
1000287e:	464f      	mov	r7, r9
10002880:	3801      	subs	r0, #1
10002882:	b5c0      	push	{r6, r7, lr}
10002884:	0015      	movs	r5, r2
10002886:	000e      	movs	r6, r1
10002888:	2801      	cmp	r0, #1
1000288a:	d83e      	bhi.n	1000290a <_write+0x92>
1000288c:	f7fe fe50 	bl	10001530 <time_us_64>
10002890:	2300      	movs	r3, #0
10002892:	4a1f      	ldr	r2, [pc, #124]	; (10002910 <_write+0x98>)
10002894:	1812      	adds	r2, r2, r0
10002896:	414b      	adcs	r3, r1
10002898:	2b00      	cmp	r3, #0
1000289a:	da02      	bge.n	100028a2 <_write+0x2a>
1000289c:	2201      	movs	r2, #1
1000289e:	4b1d      	ldr	r3, [pc, #116]	; (10002914 <_write+0x9c>)
100028a0:	4252      	negs	r2, r2
100028a2:	491d      	ldr	r1, [pc, #116]	; (10002918 <_write+0xa0>)
100028a4:	46a9      	mov	r9, r5
100028a6:	0008      	movs	r0, r1
100028a8:	4688      	mov	r8, r1
100028aa:	f003 fb55 	bl	10005f58 <__mutex_try_enter_block_until_veneer>
100028ae:	4682      	mov	sl, r0
100028b0:	1c6b      	adds	r3, r5, #1
100028b2:	d025      	beq.n	10002900 <_write+0x88>
100028b4:	4b19      	ldr	r3, [pc, #100]	; (1000291c <_write+0xa4>)
100028b6:	681c      	ldr	r4, [r3, #0]
100028b8:	2c00      	cmp	r4, #0
100028ba:	d014      	beq.n	100028e6 <_write+0x6e>
100028bc:	4f18      	ldr	r7, [pc, #96]	; (10002920 <_write+0xa8>)
100028be:	e002      	b.n	100028c6 <_write+0x4e>
100028c0:	6924      	ldr	r4, [r4, #16]
100028c2:	2c00      	cmp	r4, #0
100028c4:	d00f      	beq.n	100028e6 <_write+0x6e>
100028c6:	6823      	ldr	r3, [r4, #0]
100028c8:	2b00      	cmp	r3, #0
100028ca:	d0f9      	beq.n	100028c0 <_write+0x48>
100028cc:	683b      	ldr	r3, [r7, #0]
100028ce:	2b00      	cmp	r3, #0
100028d0:	d001      	beq.n	100028d6 <_write+0x5e>
100028d2:	429c      	cmp	r4, r3
100028d4:	d1f4      	bne.n	100028c0 <_write+0x48>
100028d6:	0020      	movs	r0, r4
100028d8:	464a      	mov	r2, r9
100028da:	0031      	movs	r1, r6
100028dc:	f7ff fe8e 	bl	100025fc <stdio_out_chars_crlf>
100028e0:	6924      	ldr	r4, [r4, #16]
100028e2:	2c00      	cmp	r4, #0
100028e4:	d1ef      	bne.n	100028c6 <_write+0x4e>
100028e6:	4653      	mov	r3, sl
100028e8:	2b00      	cmp	r3, #0
100028ea:	d105      	bne.n	100028f8 <_write+0x80>
100028ec:	0028      	movs	r0, r5
100028ee:	bc1c      	pop	{r2, r3, r4}
100028f0:	4690      	mov	r8, r2
100028f2:	4699      	mov	r9, r3
100028f4:	46a2      	mov	sl, r4
100028f6:	bdf0      	pop	{r4, r5, r6, r7, pc}
100028f8:	4640      	mov	r0, r8
100028fa:	f003 fb0d 	bl	10005f18 <__mutex_exit_veneer>
100028fe:	e7f5      	b.n	100028ec <_write+0x74>
10002900:	0030      	movs	r0, r6
10002902:	f002 fd11 	bl	10005328 <strlen>
10002906:	4681      	mov	r9, r0
10002908:	e7d4      	b.n	100028b4 <_write+0x3c>
1000290a:	2501      	movs	r5, #1
1000290c:	426d      	negs	r5, r5
1000290e:	e7ed      	b.n	100028ec <_write+0x74>
10002910:	000f4240 	.word	0x000f4240
10002914:	7fffffff 	.word	0x7fffffff
10002918:	20001740 	.word	0x20001740
1000291c:	20001de8 	.word	0x20001de8
10002920:	20001df0 	.word	0x20001df0

10002924 <_close>:
10002924:	2001      	movs	r0, #1
10002926:	4240      	negs	r0, r0
10002928:	4770      	bx	lr
1000292a:	46c0      	nop			; (mov r8, r8)

1000292c <_lseek>:
1000292c:	2001      	movs	r0, #1
1000292e:	4240      	negs	r0, r0
10002930:	4770      	bx	lr
10002932:	46c0      	nop			; (mov r8, r8)

10002934 <_fstat>:
10002934:	2001      	movs	r0, #1
10002936:	4240      	negs	r0, r0
10002938:	4770      	bx	lr
1000293a:	46c0      	nop			; (mov r8, r8)

1000293c <_isatty>:
1000293c:	2202      	movs	r2, #2
1000293e:	2300      	movs	r3, #0
10002940:	4282      	cmp	r2, r0
10002942:	415b      	adcs	r3, r3
10002944:	0018      	movs	r0, r3
10002946:	4770      	bx	lr

10002948 <stdio_set_driver_enabled>:
10002948:	4a0a      	ldr	r2, [pc, #40]	; (10002974 <stdio_set_driver_enabled+0x2c>)
1000294a:	6813      	ldr	r3, [r2, #0]
1000294c:	2b00      	cmp	r3, #0
1000294e:	d105      	bne.n	1000295c <stdio_set_driver_enabled+0x14>
10002950:	e00c      	b.n	1000296c <stdio_set_driver_enabled+0x24>
10002952:	001a      	movs	r2, r3
10002954:	691b      	ldr	r3, [r3, #16]
10002956:	3210      	adds	r2, #16
10002958:	2b00      	cmp	r3, #0
1000295a:	d007      	beq.n	1000296c <stdio_set_driver_enabled+0x24>
1000295c:	4298      	cmp	r0, r3
1000295e:	d1f8      	bne.n	10002952 <stdio_set_driver_enabled+0xa>
10002960:	2900      	cmp	r1, #0
10002962:	d102      	bne.n	1000296a <stdio_set_driver_enabled+0x22>
10002964:	6903      	ldr	r3, [r0, #16]
10002966:	6013      	str	r3, [r2, #0]
10002968:	6101      	str	r1, [r0, #16]
1000296a:	4770      	bx	lr
1000296c:	2900      	cmp	r1, #0
1000296e:	d0fc      	beq.n	1000296a <stdio_set_driver_enabled+0x22>
10002970:	6010      	str	r0, [r2, #0]
10002972:	e7fa      	b.n	1000296a <stdio_set_driver_enabled+0x22>
10002974:	20001de8 	.word	0x20001de8

10002978 <stdio_init_all>:
10002978:	b510      	push	{r4, lr}
1000297a:	f000 f9d1 	bl	10002d20 <stdio_usb_init>
1000297e:	bd10      	pop	{r4, pc}

10002980 <resetd_init>:
10002980:	4770      	bx	lr
10002982:	46c0      	nop			; (mov r8, r8)

10002984 <resetd_reset>:
10002984:	2200      	movs	r2, #0
10002986:	4b01      	ldr	r3, [pc, #4]	; (1000298c <resetd_reset+0x8>)
10002988:	701a      	strb	r2, [r3, #0]
1000298a:	4770      	bx	lr
1000298c:	2000225a 	.word	0x2000225a

10002990 <resetd_xfer_cb>:
10002990:	2001      	movs	r0, #1
10002992:	4770      	bx	lr

10002994 <resetd_open>:
10002994:	794b      	ldrb	r3, [r1, #5]
10002996:	2000      	movs	r0, #0
10002998:	2bff      	cmp	r3, #255	; 0xff
1000299a:	d000      	beq.n	1000299e <resetd_open+0xa>
1000299c:	4770      	bx	lr
1000299e:	798b      	ldrb	r3, [r1, #6]
100029a0:	2b00      	cmp	r3, #0
100029a2:	d1fb      	bne.n	1000299c <resetd_open+0x8>
100029a4:	79cb      	ldrb	r3, [r1, #7]
100029a6:	2b01      	cmp	r3, #1
100029a8:	d1f8      	bne.n	1000299c <resetd_open+0x8>
100029aa:	2a08      	cmp	r2, #8
100029ac:	d9f6      	bls.n	1000299c <resetd_open+0x8>
100029ae:	788a      	ldrb	r2, [r1, #2]
100029b0:	4b01      	ldr	r3, [pc, #4]	; (100029b8 <resetd_open+0x24>)
100029b2:	3009      	adds	r0, #9
100029b4:	701a      	strb	r2, [r3, #0]
100029b6:	e7f1      	b.n	1000299c <resetd_open+0x8>
100029b8:	2000225a 	.word	0x2000225a

100029bc <resetd_control_xfer_cb>:
100029bc:	b570      	push	{r4, r5, r6, lr}
100029be:	2001      	movs	r0, #1
100029c0:	2901      	cmp	r1, #1
100029c2:	d000      	beq.n	100029c6 <resetd_control_xfer_cb+0xa>
100029c4:	bd70      	pop	{r4, r5, r6, pc}
100029c6:	4913      	ldr	r1, [pc, #76]	; (10002a14 <resetd_control_xfer_cb+0x58>)
100029c8:	7953      	ldrb	r3, [r2, #5]
100029ca:	7910      	ldrb	r0, [r2, #4]
100029cc:	7809      	ldrb	r1, [r1, #0]
100029ce:	021b      	lsls	r3, r3, #8
100029d0:	4303      	orrs	r3, r0
100029d2:	2000      	movs	r0, #0
100029d4:	4299      	cmp	r1, r3
100029d6:	d1f5      	bne.n	100029c4 <resetd_control_xfer_cb+0x8>
100029d8:	7853      	ldrb	r3, [r2, #1]
100029da:	2b01      	cmp	r3, #1
100029dc:	d008      	beq.n	100029f0 <resetd_control_xfer_cb+0x34>
100029de:	2b02      	cmp	r3, #2
100029e0:	d1f0      	bne.n	100029c4 <resetd_control_xfer_cb+0x8>
100029e2:	2000      	movs	r0, #0
100029e4:	2264      	movs	r2, #100	; 0x64
100029e6:	2100      	movs	r1, #0
100029e8:	f7ff fb96 	bl	10002118 <watchdog_reboot>
100029ec:	2001      	movs	r0, #1
100029ee:	e7e9      	b.n	100029c4 <resetd_control_xfer_cb+0x8>
100029f0:	78d4      	ldrb	r4, [r2, #3]
100029f2:	7891      	ldrb	r1, [r2, #2]
100029f4:	0224      	lsls	r4, r4, #8
100029f6:	430c      	orrs	r4, r1
100029f8:	0005      	movs	r5, r0
100029fa:	05e2      	lsls	r2, r4, #23
100029fc:	d502      	bpl.n	10002a04 <resetd_control_xfer_cb+0x48>
100029fe:	0a62      	lsrs	r2, r4, #9
10002a00:	4093      	lsls	r3, r2
10002a02:	001d      	movs	r5, r3
10002a04:	4804      	ldr	r0, [pc, #16]	; (10002a18 <resetd_control_xfer_cb+0x5c>)
10002a06:	f7ff fcdb 	bl	100023c0 <rom_func_lookup>
10002a0a:	217f      	movs	r1, #127	; 0x7f
10002a0c:	0003      	movs	r3, r0
10002a0e:	4021      	ands	r1, r4
10002a10:	0028      	movs	r0, r5
10002a12:	4798      	blx	r3
10002a14:	2000225a 	.word	0x2000225a
10002a18:	00004255 	.word	0x00004255

10002a1c <usbd_app_driver_get_cb>:
10002a1c:	2301      	movs	r3, #1
10002a1e:	7003      	strb	r3, [r0, #0]
10002a20:	4800      	ldr	r0, [pc, #0]	; (10002a24 <usbd_app_driver_get_cb+0x8>)
10002a22:	4770      	bx	lr
10002a24:	100060c8 	.word	0x100060c8

10002a28 <tud_cdc_line_coding_cb>:
10002a28:	784a      	ldrb	r2, [r1, #1]
10002a2a:	780b      	ldrb	r3, [r1, #0]
10002a2c:	0212      	lsls	r2, r2, #8
10002a2e:	431a      	orrs	r2, r3
10002a30:	788b      	ldrb	r3, [r1, #2]
10002a32:	b510      	push	{r4, lr}
10002a34:	041b      	lsls	r3, r3, #16
10002a36:	431a      	orrs	r2, r3
10002a38:	78cb      	ldrb	r3, [r1, #3]
10002a3a:	061b      	lsls	r3, r3, #24
10002a3c:	4313      	orrs	r3, r2
10002a3e:	2296      	movs	r2, #150	; 0x96
10002a40:	00d2      	lsls	r2, r2, #3
10002a42:	4293      	cmp	r3, r2
10002a44:	d000      	beq.n	10002a48 <tud_cdc_line_coding_cb+0x20>
10002a46:	bd10      	pop	{r4, pc}
10002a48:	4803      	ldr	r0, [pc, #12]	; (10002a58 <tud_cdc_line_coding_cb+0x30>)
10002a4a:	f7ff fcb9 	bl	100023c0 <rom_func_lookup>
10002a4e:	2100      	movs	r1, #0
10002a50:	0003      	movs	r3, r0
10002a52:	0008      	movs	r0, r1
10002a54:	4798      	blx	r3
10002a56:	46c0      	nop			; (mov r8, r8)
10002a58:	00004255 	.word	0x00004255

10002a5c <stdio_usb_set_chars_available_callback>:
10002a5c:	4b02      	ldr	r3, [pc, #8]	; (10002a68 <stdio_usb_set_chars_available_callback+0xc>)
10002a5e:	6018      	str	r0, [r3, #0]
10002a60:	4b02      	ldr	r3, [pc, #8]	; (10002a6c <stdio_usb_set_chars_available_callback+0x10>)
10002a62:	6019      	str	r1, [r3, #0]
10002a64:	4770      	bx	lr
10002a66:	46c0      	nop			; (mov r8, r8)
10002a68:	20001d4c 	.word	0x20001d4c
10002a6c:	20001d50 	.word	0x20001d50

10002a70 <usb_irq>:
10002a70:	b510      	push	{r4, lr}
10002a72:	4b02      	ldr	r3, [pc, #8]	; (10002a7c <usb_irq+0xc>)
10002a74:	7818      	ldrb	r0, [r3, #0]
10002a76:	f7fd fd67 	bl	10000548 <irq_set_pending>
10002a7a:	bd10      	pop	{r4, pc}
10002a7c:	2000225b 	.word	0x2000225b

10002a80 <timer_task>:
10002a80:	4b11      	ldr	r3, [pc, #68]	; (10002ac8 <timer_task+0x48>)
10002a82:	b570      	push	{r4, r5, r6, lr}
10002a84:	681a      	ldr	r2, [r3, #0]
10002a86:	2a00      	cmp	r2, #0
10002a88:	d01a      	beq.n	10002ac0 <timer_task+0x40>
10002a8a:	f3ef 8110 	mrs	r1, PRIMASK
10002a8e:	b672      	cpsid	i
10002a90:	6810      	ldr	r0, [r2, #0]
10002a92:	2800      	cmp	r0, #0
10002a94:	d0fc      	beq.n	10002a90 <timer_task+0x10>
10002a96:	f3bf 8f5f 	dmb	sy
10002a9a:	2200      	movs	r2, #0
10002a9c:	480b      	ldr	r0, [pc, #44]	; (10002acc <timer_task+0x4c>)
10002a9e:	6059      	str	r1, [r3, #4]
10002aa0:	7002      	strb	r2, [r0, #0]
10002aa2:	681b      	ldr	r3, [r3, #0]
10002aa4:	f3bf 8f5f 	dmb	sy
10002aa8:	601a      	str	r2, [r3, #0]
10002aaa:	f381 8810 	msr	PRIMASK, r1
10002aae:	2400      	movs	r4, #0
10002ab0:	2500      	movs	r5, #0
10002ab2:	4b07      	ldr	r3, [pc, #28]	; (10002ad0 <timer_task+0x50>)
10002ab4:	7818      	ldrb	r0, [r3, #0]
10002ab6:	f7fd fd47 	bl	10000548 <irq_set_pending>
10002aba:	0029      	movs	r1, r5
10002abc:	0020      	movs	r0, r4
10002abe:	bd70      	pop	{r4, r5, r6, pc}
10002ac0:	24fa      	movs	r4, #250	; 0xfa
10002ac2:	2500      	movs	r5, #0
10002ac4:	00a4      	lsls	r4, r4, #2
10002ac6:	e7f4      	b.n	10002ab2 <timer_task+0x32>
10002ac8:	20002204 	.word	0x20002204
10002acc:	2000225c 	.word	0x2000225c
10002ad0:	2000225b 	.word	0x2000225b

10002ad4 <stdio_usb_in_chars>:
10002ad4:	b570      	push	{r4, r5, r6, lr}
10002ad6:	0005      	movs	r5, r0
10002ad8:	2000      	movs	r0, #0
10002ada:	000e      	movs	r6, r1
10002adc:	f001 fb80 	bl	100041e0 <tud_cdc_n_connected>
10002ae0:	2800      	cmp	r0, #0
10002ae2:	d034      	beq.n	10002b4e <stdio_usb_in_chars+0x7a>
10002ae4:	2000      	movs	r0, #0
10002ae6:	f001 fb93 	bl	10004210 <tud_cdc_n_available>
10002aea:	2800      	cmp	r0, #0
10002aec:	d02f      	beq.n	10002b4e <stdio_usb_in_chars+0x7a>
10002aee:	f7fe fd1f 	bl	10001530 <time_us_64>
10002af2:	2300      	movs	r3, #0
10002af4:	4a17      	ldr	r2, [pc, #92]	; (10002b54 <stdio_usb_in_chars+0x80>)
10002af6:	1812      	adds	r2, r2, r0
10002af8:	414b      	adcs	r3, r1
10002afa:	2b00      	cmp	r3, #0
10002afc:	da02      	bge.n	10002b04 <stdio_usb_in_chars+0x30>
10002afe:	2201      	movs	r2, #1
10002b00:	4b15      	ldr	r3, [pc, #84]	; (10002b58 <stdio_usb_in_chars+0x84>)
10002b02:	4252      	negs	r2, r2
10002b04:	4c15      	ldr	r4, [pc, #84]	; (10002b5c <stdio_usb_in_chars+0x88>)
10002b06:	0020      	movs	r0, r4
10002b08:	f003 fa26 	bl	10005f58 <__mutex_try_enter_block_until_veneer>
10002b0c:	2800      	cmp	r0, #0
10002b0e:	d01e      	beq.n	10002b4e <stdio_usb_in_chars+0x7a>
10002b10:	2000      	movs	r0, #0
10002b12:	f001 fb65 	bl	100041e0 <tud_cdc_n_connected>
10002b16:	2800      	cmp	r0, #0
10002b18:	d10b      	bne.n	10002b32 <stdio_usb_in_chars+0x5e>
10002b1a:	2001      	movs	r0, #1
10002b1c:	2100      	movs	r1, #0
10002b1e:	4240      	negs	r0, r0
10002b20:	2503      	movs	r5, #3
10002b22:	f000 fde3 	bl	100036ec <tud_task_ext>
10002b26:	426d      	negs	r5, r5
10002b28:	0020      	movs	r0, r4
10002b2a:	f003 f9f5 	bl	10005f18 <__mutex_exit_veneer>
10002b2e:	0028      	movs	r0, r5
10002b30:	bd70      	pop	{r4, r5, r6, pc}
10002b32:	2000      	movs	r0, #0
10002b34:	f001 fb6c 	bl	10004210 <tud_cdc_n_available>
10002b38:	2800      	cmp	r0, #0
10002b3a:	d0ee      	beq.n	10002b1a <stdio_usb_in_chars+0x46>
10002b3c:	0029      	movs	r1, r5
10002b3e:	0032      	movs	r2, r6
10002b40:	2000      	movs	r0, #0
10002b42:	f001 fb73 	bl	1000422c <tud_cdc_n_read>
10002b46:	1e05      	subs	r5, r0, #0
10002b48:	d1ee      	bne.n	10002b28 <stdio_usb_in_chars+0x54>
10002b4a:	3d03      	subs	r5, #3
10002b4c:	e7ec      	b.n	10002b28 <stdio_usb_in_chars+0x54>
10002b4e:	2503      	movs	r5, #3
10002b50:	426d      	negs	r5, r5
10002b52:	e7ec      	b.n	10002b2e <stdio_usb_in_chars+0x5a>
10002b54:	000f4240 	.word	0x000f4240
10002b58:	7fffffff 	.word	0x7fffffff
10002b5c:	2000222c 	.word	0x2000222c

10002b60 <stdio_usb_out_chars>:
10002b60:	b5f8      	push	{r3, r4, r5, r6, r7, lr}
10002b62:	46de      	mov	lr, fp
10002b64:	4657      	mov	r7, sl
10002b66:	b580      	push	{r7, lr}
10002b68:	0005      	movs	r5, r0
10002b6a:	000c      	movs	r4, r1
10002b6c:	f7fe fce0 	bl	10001530 <time_us_64>
10002b70:	2300      	movs	r3, #0
10002b72:	4a35      	ldr	r2, [pc, #212]	; (10002c48 <stdio_usb_out_chars+0xe8>)
10002b74:	1812      	adds	r2, r2, r0
10002b76:	414b      	adcs	r3, r1
10002b78:	2b00      	cmp	r3, #0
10002b7a:	da02      	bge.n	10002b82 <stdio_usb_out_chars+0x22>
10002b7c:	2201      	movs	r2, #1
10002b7e:	4b33      	ldr	r3, [pc, #204]	; (10002c4c <stdio_usb_out_chars+0xec>)
10002b80:	4252      	negs	r2, r2
10002b82:	4933      	ldr	r1, [pc, #204]	; (10002c50 <stdio_usb_out_chars+0xf0>)
10002b84:	0008      	movs	r0, r1
10002b86:	468a      	mov	sl, r1
10002b88:	f003 f9e6 	bl	10005f58 <__mutex_try_enter_block_until_veneer>
10002b8c:	2800      	cmp	r0, #0
10002b8e:	d103      	bne.n	10002b98 <stdio_usb_out_chars+0x38>
10002b90:	bc0c      	pop	{r2, r3}
10002b92:	4692      	mov	sl, r2
10002b94:	469b      	mov	fp, r3
10002b96:	bdf8      	pop	{r3, r4, r5, r6, r7, pc}
10002b98:	2000      	movs	r0, #0
10002b9a:	f001 fb21 	bl	100041e0 <tud_cdc_n_connected>
10002b9e:	2800      	cmp	r0, #0
10002ba0:	d036      	beq.n	10002c10 <stdio_usb_out_chars+0xb0>
10002ba2:	2600      	movs	r6, #0
10002ba4:	2c00      	cmp	r4, #0
10002ba6:	dd38      	ble.n	10002c1a <stdio_usb_out_chars+0xba>
10002ba8:	4b2a      	ldr	r3, [pc, #168]	; (10002c54 <stdio_usb_out_chars+0xf4>)
10002baa:	469b      	mov	fp, r3
10002bac:	e015      	b.n	10002bda <stdio_usb_out_chars+0x7a>
10002bae:	2800      	cmp	r0, #0
10002bb0:	d148      	bne.n	10002c44 <stdio_usb_out_chars+0xe4>
10002bb2:	2001      	movs	r0, #1
10002bb4:	2100      	movs	r1, #0
10002bb6:	4240      	negs	r0, r0
10002bb8:	f000 fd98 	bl	100036ec <tud_task_ext>
10002bbc:	2000      	movs	r0, #0
10002bbe:	f001 fbb5 	bl	1000432c <tud_cdc_n_write_flush>
10002bc2:	2000      	movs	r0, #0
10002bc4:	f001 fb0c 	bl	100041e0 <tud_cdc_n_connected>
10002bc8:	2800      	cmp	r0, #0
10002bca:	d026      	beq.n	10002c1a <stdio_usb_out_chars+0xba>
10002bcc:	2000      	movs	r0, #0
10002bce:	f001 fbe9 	bl	100043a4 <tud_cdc_n_write_available>
10002bd2:	2800      	cmp	r0, #0
10002bd4:	d025      	beq.n	10002c22 <stdio_usb_out_chars+0xc2>
10002bd6:	42b4      	cmp	r4, r6
10002bd8:	dd1f      	ble.n	10002c1a <stdio_usb_out_chars+0xba>
10002bda:	2000      	movs	r0, #0
10002bdc:	1ba7      	subs	r7, r4, r6
10002bde:	f001 fbe1 	bl	100043a4 <tud_cdc_n_write_available>
10002be2:	4287      	cmp	r7, r0
10002be4:	dce3      	bgt.n	10002bae <stdio_usb_out_chars+0x4e>
10002be6:	003a      	movs	r2, r7
10002be8:	19a9      	adds	r1, r5, r6
10002bea:	2000      	movs	r0, #0
10002bec:	f001 fb56 	bl	1000429c <tud_cdc_n_write>
10002bf0:	0007      	movs	r7, r0
10002bf2:	2001      	movs	r0, #1
10002bf4:	2100      	movs	r1, #0
10002bf6:	4240      	negs	r0, r0
10002bf8:	f000 fd78 	bl	100036ec <tud_task_ext>
10002bfc:	2000      	movs	r0, #0
10002bfe:	f001 fb95 	bl	1000432c <tud_cdc_n_write_flush>
10002c02:	f7fe fc95 	bl	10001530 <time_us_64>
10002c06:	4b13      	ldr	r3, [pc, #76]	; (10002c54 <stdio_usb_out_chars+0xf4>)
10002c08:	19f6      	adds	r6, r6, r7
10002c0a:	6018      	str	r0, [r3, #0]
10002c0c:	6059      	str	r1, [r3, #4]
10002c0e:	e7e2      	b.n	10002bd6 <stdio_usb_out_chars+0x76>
10002c10:	2000      	movs	r0, #0
10002c12:	2100      	movs	r1, #0
10002c14:	4b0f      	ldr	r3, [pc, #60]	; (10002c54 <stdio_usb_out_chars+0xf4>)
10002c16:	6018      	str	r0, [r3, #0]
10002c18:	6059      	str	r1, [r3, #4]
10002c1a:	4650      	mov	r0, sl
10002c1c:	f003 f97c 	bl	10005f18 <__mutex_exit_veneer>
10002c20:	e7b6      	b.n	10002b90 <stdio_usb_out_chars+0x30>
10002c22:	f7fe fc85 	bl	10001530 <time_us_64>
10002c26:	465b      	mov	r3, fp
10002c28:	000f      	movs	r7, r1
10002c2a:	681a      	ldr	r2, [r3, #0]
10002c2c:	685b      	ldr	r3, [r3, #4]
10002c2e:	2100      	movs	r1, #0
10002c30:	4684      	mov	ip, r0
10002c32:	4809      	ldr	r0, [pc, #36]	; (10002c58 <stdio_usb_out_chars+0xf8>)
10002c34:	1812      	adds	r2, r2, r0
10002c36:	414b      	adcs	r3, r1
10002c38:	429f      	cmp	r7, r3
10002c3a:	d8ee      	bhi.n	10002c1a <stdio_usb_out_chars+0xba>
10002c3c:	d1cb      	bne.n	10002bd6 <stdio_usb_out_chars+0x76>
10002c3e:	4594      	cmp	ip, r2
10002c40:	d9c9      	bls.n	10002bd6 <stdio_usb_out_chars+0x76>
10002c42:	e7ea      	b.n	10002c1a <stdio_usb_out_chars+0xba>
10002c44:	0007      	movs	r7, r0
10002c46:	e7ce      	b.n	10002be6 <stdio_usb_out_chars+0x86>
10002c48:	000f4240 	.word	0x000f4240
10002c4c:	7fffffff 	.word	0x7fffffff
10002c50:	2000222c 	.word	0x2000222c
10002c54:	20001860 	.word	0x20001860
10002c58:	0007a120 	.word	0x0007a120

10002c5c <low_priority_worker_irq>:
10002c5c:	b510      	push	{r4, lr}
10002c5e:	4c23      	ldr	r4, [pc, #140]	; (10002cec <low_priority_worker_irq+0x90>)
10002c60:	b084      	sub	sp, #16
10002c62:	2100      	movs	r1, #0
10002c64:	0020      	movs	r0, r4
10002c66:	f003 f967 	bl	10005f38 <__mutex_try_enter_veneer>
10002c6a:	2800      	cmp	r0, #0
10002c6c:	d135      	bne.n	10002cda <low_priority_worker_irq+0x7e>
10002c6e:	4b20      	ldr	r3, [pc, #128]	; (10002cf0 <low_priority_worker_irq+0x94>)
10002c70:	681a      	ldr	r2, [r3, #0]
10002c72:	2a00      	cmp	r2, #0
10002c74:	d016      	beq.n	10002ca4 <low_priority_worker_irq+0x48>
10002c76:	f3ef 8110 	mrs	r1, PRIMASK
10002c7a:	b672      	cpsid	i
10002c7c:	6810      	ldr	r0, [r2, #0]
10002c7e:	2800      	cmp	r0, #0
10002c80:	d0fc      	beq.n	10002c7c <low_priority_worker_irq+0x20>
10002c82:	f3bf 8f5f 	dmb	sy
10002c86:	2401      	movs	r4, #1
10002c88:	481a      	ldr	r0, [pc, #104]	; (10002cf4 <low_priority_worker_irq+0x98>)
10002c8a:	6059      	str	r1, [r3, #4]
10002c8c:	7802      	ldrb	r2, [r0, #0]
10002c8e:	681b      	ldr	r3, [r3, #0]
10002c90:	b2d2      	uxtb	r2, r2
10002c92:	7004      	strb	r4, [r0, #0]
10002c94:	f3bf 8f5f 	dmb	sy
10002c98:	2000      	movs	r0, #0
10002c9a:	6018      	str	r0, [r3, #0]
10002c9c:	f381 8810 	msr	PRIMASK, r1
10002ca0:	2a00      	cmp	r2, #0
10002ca2:	d001      	beq.n	10002ca8 <low_priority_worker_irq+0x4c>
10002ca4:	b004      	add	sp, #16
10002ca6:	bd10      	pop	{r4, pc}
10002ca8:	f7fe f90a 	bl	10000ec0 <alarm_pool_get_default>
10002cac:	0004      	movs	r4, r0
10002cae:	f7fe fc3f 	bl	10001530 <time_us_64>
10002cb2:	22fa      	movs	r2, #250	; 0xfa
10002cb4:	2300      	movs	r3, #0
10002cb6:	0092      	lsls	r2, r2, #2
10002cb8:	1812      	adds	r2, r2, r0
10002cba:	414b      	adcs	r3, r1
10002cbc:	2b00      	cmp	r3, #0
10002cbe:	da02      	bge.n	10002cc6 <low_priority_worker_irq+0x6a>
10002cc0:	2201      	movs	r2, #1
10002cc2:	4b0d      	ldr	r3, [pc, #52]	; (10002cf8 <low_priority_worker_irq+0x9c>)
10002cc4:	4252      	negs	r2, r2
10002cc6:	2101      	movs	r1, #1
10002cc8:	9102      	str	r1, [sp, #8]
10002cca:	2100      	movs	r1, #0
10002ccc:	9101      	str	r1, [sp, #4]
10002cce:	490b      	ldr	r1, [pc, #44]	; (10002cfc <low_priority_worker_irq+0xa0>)
10002cd0:	0020      	movs	r0, r4
10002cd2:	9100      	str	r1, [sp, #0]
10002cd4:	f7fe f8f8 	bl	10000ec8 <alarm_pool_add_alarm_at>
10002cd8:	e7e4      	b.n	10002ca4 <low_priority_worker_irq+0x48>
10002cda:	2001      	movs	r0, #1
10002cdc:	2100      	movs	r1, #0
10002cde:	4240      	negs	r0, r0
10002ce0:	f000 fd04 	bl	100036ec <tud_task_ext>
10002ce4:	0020      	movs	r0, r4
10002ce6:	f003 f917 	bl	10005f18 <__mutex_exit_veneer>
10002cea:	e7db      	b.n	10002ca4 <low_priority_worker_irq+0x48>
10002cec:	2000222c 	.word	0x2000222c
10002cf0:	20002204 	.word	0x20002204
10002cf4:	2000225c 	.word	0x2000225c
10002cf8:	7fffffff 	.word	0x7fffffff
10002cfc:	10002a81 	.word	0x10002a81

10002d00 <tud_cdc_rx_cb>:
10002d00:	4b05      	ldr	r3, [pc, #20]	; (10002d18 <tud_cdc_rx_cb+0x18>)
10002d02:	b510      	push	{r4, lr}
10002d04:	6818      	ldr	r0, [r3, #0]
10002d06:	2800      	cmp	r0, #0
10002d08:	d004      	beq.n	10002d14 <tud_cdc_rx_cb+0x14>
10002d0a:	4b04      	ldr	r3, [pc, #16]	; (10002d1c <tud_cdc_rx_cb+0x1c>)
10002d0c:	2200      	movs	r2, #0
10002d0e:	6819      	ldr	r1, [r3, #0]
10002d10:	f000 fc3a 	bl	10003588 <usbd_defer_func>
10002d14:	bd10      	pop	{r4, pc}
10002d16:	46c0      	nop			; (mov r8, r8)
10002d18:	20001d4c 	.word	0x20001d4c
10002d1c:	20001d50 	.word	0x20001d50

10002d20 <stdio_usb_init>:
10002d20:	23d0      	movs	r3, #208	; 0xd0
10002d22:	b510      	push	{r4, lr}
10002d24:	061b      	lsls	r3, r3, #24
10002d26:	b084      	sub	sp, #16
10002d28:	681c      	ldr	r4, [r3, #0]
10002d2a:	f7fe f8c9 	bl	10000ec0 <alarm_pool_get_default>
10002d2e:	f7fe f995 	bl	1000105c <alarm_pool_core_num>
10002d32:	4284      	cmp	r4, r0
10002d34:	d002      	beq.n	10002d3c <stdio_usb_init+0x1c>
10002d36:	2000      	movs	r0, #0
10002d38:	b004      	add	sp, #16
10002d3a:	bd10      	pop	{r4, pc}
10002d3c:	4b25      	ldr	r3, [pc, #148]	; (10002dd4 <stdio_usb_init+0xb4>)
10002d3e:	781b      	ldrb	r3, [r3, #0]
10002d40:	f001 fd40 	bl	100047c4 <tusb_init>
10002d44:	4824      	ldr	r0, [pc, #144]	; (10002dd8 <stdio_usb_init+0xb8>)
10002d46:	f7fd fea9 	bl	10000a9c <mutex_init>
10002d4a:	2001      	movs	r0, #1
10002d4c:	f7fd fe8a 	bl	10000a64 <user_irq_claim_unused>
10002d50:	23ff      	movs	r3, #255	; 0xff
10002d52:	4c22      	ldr	r4, [pc, #136]	; (10002ddc <stdio_usb_init+0xbc>)
10002d54:	4922      	ldr	r1, [pc, #136]	; (10002de0 <stdio_usb_init+0xc0>)
10002d56:	7020      	strb	r0, [r4, #0]
10002d58:	4018      	ands	r0, r3
10002d5a:	f7fd fc1b 	bl	10000594 <irq_set_exclusive_handler>
10002d5e:	7820      	ldrb	r0, [r4, #0]
10002d60:	2101      	movs	r1, #1
10002d62:	f7fd fbdf 	bl	10000524 <irq_set_enabled>
10002d66:	2005      	movs	r0, #5
10002d68:	f7fd fbf6 	bl	10000558 <irq_has_shared_handler>
10002d6c:	2800      	cmp	r0, #0
10002d6e:	d010      	beq.n	10002d92 <stdio_usb_init+0x72>
10002d70:	491c      	ldr	r1, [pc, #112]	; (10002de4 <stdio_usb_init+0xc4>)
10002d72:	2200      	movs	r2, #0
10002d74:	2005      	movs	r0, #5
10002d76:	f7fd fc37 	bl	100005e8 <irq_add_shared_handler>
10002d7a:	f7fd fbb7 	bl	100004ec <next_striped_spin_lock_num>
10002d7e:	0001      	movs	r1, r0
10002d80:	4819      	ldr	r0, [pc, #100]	; (10002de8 <stdio_usb_init+0xc8>)
10002d82:	f7fd feb9 	bl	10000af8 <critical_section_init_with_lock_num>
10002d86:	4819      	ldr	r0, [pc, #100]	; (10002dec <stdio_usb_init+0xcc>)
10002d88:	2101      	movs	r1, #1
10002d8a:	f7ff fddd 	bl	10002948 <stdio_set_driver_enabled>
10002d8e:	2001      	movs	r0, #1
10002d90:	e7d2      	b.n	10002d38 <stdio_usb_init+0x18>
10002d92:	f7fe f895 	bl	10000ec0 <alarm_pool_get_default>
10002d96:	0004      	movs	r4, r0
10002d98:	f7fe fbca 	bl	10001530 <time_us_64>
10002d9c:	22fa      	movs	r2, #250	; 0xfa
10002d9e:	2300      	movs	r3, #0
10002da0:	0092      	lsls	r2, r2, #2
10002da2:	1812      	adds	r2, r2, r0
10002da4:	414b      	adcs	r3, r1
10002da6:	2b00      	cmp	r3, #0
10002da8:	da02      	bge.n	10002db0 <stdio_usb_init+0x90>
10002daa:	2201      	movs	r2, #1
10002dac:	4b10      	ldr	r3, [pc, #64]	; (10002df0 <stdio_usb_init+0xd0>)
10002dae:	4252      	negs	r2, r2
10002db0:	2101      	movs	r1, #1
10002db2:	9102      	str	r1, [sp, #8]
10002db4:	2100      	movs	r1, #0
10002db6:	9101      	str	r1, [sp, #4]
10002db8:	490e      	ldr	r1, [pc, #56]	; (10002df4 <stdio_usb_init+0xd4>)
10002dba:	0020      	movs	r0, r4
10002dbc:	9100      	str	r1, [sp, #0]
10002dbe:	f7fe f883 	bl	10000ec8 <alarm_pool_add_alarm_at>
10002dc2:	2208      	movs	r2, #8
10002dc4:	0004      	movs	r4, r0
10002dc6:	2100      	movs	r1, #0
10002dc8:	4807      	ldr	r0, [pc, #28]	; (10002de8 <stdio_usb_init+0xc8>)
10002dca:	f7ff fc03 	bl	100025d4 <__wrap_memset>
10002dce:	2c00      	cmp	r4, #0
10002dd0:	dbb1      	blt.n	10002d36 <stdio_usb_init+0x16>
10002dd2:	e7d8      	b.n	10002d86 <stdio_usb_init+0x66>
10002dd4:	100062d8 	.word	0x100062d8
10002dd8:	2000222c 	.word	0x2000222c
10002ddc:	2000225b 	.word	0x2000225b
10002de0:	10002c5d 	.word	0x10002c5d
10002de4:	10002a71 	.word	0x10002a71
10002de8:	20002204 	.word	0x20002204
10002dec:	20000ec0 	.word	0x20000ec0
10002df0:	7fffffff 	.word	0x7fffffff
10002df4:	10002a81 	.word	0x10002a81

10002df8 <tud_descriptor_device_cb>:
10002df8:	4800      	ldr	r0, [pc, #0]	; (10002dfc <tud_descriptor_device_cb+0x4>)
10002dfa:	4770      	bx	lr
10002dfc:	10006180 	.word	0x10006180

10002e00 <tud_descriptor_configuration_cb>:
10002e00:	4800      	ldr	r0, [pc, #0]	; (10002e04 <tud_descriptor_configuration_cb+0x4>)
10002e02:	4770      	bx	lr
10002e04:	1000612c 	.word	0x1000612c

10002e08 <tud_descriptor_string_cb>:
10002e08:	b570      	push	{r4, r5, r6, lr}
10002e0a:	0004      	movs	r4, r0
10002e0c:	4816      	ldr	r0, [pc, #88]	; (10002e68 <tud_descriptor_string_cb+0x60>)
10002e0e:	7803      	ldrb	r3, [r0, #0]
10002e10:	2b00      	cmp	r3, #0
10002e12:	d01c      	beq.n	10002e4e <tud_descriptor_string_cb+0x46>
10002e14:	2c00      	cmp	r4, #0
10002e16:	d106      	bne.n	10002e26 <tud_descriptor_string_cb+0x1e>
10002e18:	24c1      	movs	r4, #193	; 0xc1
10002e1a:	4814      	ldr	r0, [pc, #80]	; (10002e6c <tud_descriptor_string_cb+0x64>)
10002e1c:	4b14      	ldr	r3, [pc, #80]	; (10002e70 <tud_descriptor_string_cb+0x68>)
10002e1e:	00a4      	lsls	r4, r4, #2
10002e20:	8043      	strh	r3, [r0, #2]
10002e22:	8004      	strh	r4, [r0, #0]
10002e24:	bd70      	pop	{r4, r5, r6, pc}
10002e26:	2c05      	cmp	r4, #5
10002e28:	d81c      	bhi.n	10002e64 <tud_descriptor_string_cb+0x5c>
10002e2a:	4b12      	ldr	r3, [pc, #72]	; (10002e74 <tud_descriptor_string_cb+0x6c>)
10002e2c:	00a4      	lsls	r4, r4, #2
10002e2e:	58e5      	ldr	r5, [r4, r3]
10002e30:	2300      	movs	r3, #0
10002e32:	480e      	ldr	r0, [pc, #56]	; (10002e6c <tud_descriptor_string_cb+0x64>)
10002e34:	1c82      	adds	r2, r0, #2
10002e36:	5ce9      	ldrb	r1, [r5, r3]
10002e38:	b2dc      	uxtb	r4, r3
10002e3a:	2900      	cmp	r1, #0
10002e3c:	d00b      	beq.n	10002e56 <tud_descriptor_string_cb+0x4e>
10002e3e:	3301      	adds	r3, #1
10002e40:	8011      	strh	r1, [r2, #0]
10002e42:	3202      	adds	r2, #2
10002e44:	2b13      	cmp	r3, #19
10002e46:	d1f6      	bne.n	10002e36 <tud_descriptor_string_cb+0x2e>
10002e48:	24ca      	movs	r4, #202	; 0xca
10002e4a:	00a4      	lsls	r4, r4, #2
10002e4c:	e7e9      	b.n	10002e22 <tud_descriptor_string_cb+0x1a>
10002e4e:	2111      	movs	r1, #17
10002e50:	f000 f81a 	bl	10002e88 <pico_get_unique_board_id_string>
10002e54:	e7de      	b.n	10002e14 <tud_descriptor_string_cb+0xc>
10002e56:	23c0      	movs	r3, #192	; 0xc0
10002e58:	3401      	adds	r4, #1
10002e5a:	0064      	lsls	r4, r4, #1
10002e5c:	009b      	lsls	r3, r3, #2
10002e5e:	431c      	orrs	r4, r3
10002e60:	b2a4      	uxth	r4, r4
10002e62:	e7de      	b.n	10002e22 <tud_descriptor_string_cb+0x1a>
10002e64:	2000      	movs	r0, #0
10002e66:	e7dd      	b.n	10002e24 <tud_descriptor_string_cb+0x1c>
10002e68:	20002244 	.word	0x20002244
10002e6c:	20001dc0 	.word	0x20001dc0
10002e70:	00000409 	.word	0x00000409
10002e74:	10006194 	.word	0x10006194

10002e78 <_retrieve_unique_id_on_boot>:
10002e78:	b510      	push	{r4, lr}
10002e7a:	4802      	ldr	r0, [pc, #8]	; (10002e84 <_retrieve_unique_id_on_boot+0xc>)
10002e7c:	f000 f8e4 	bl	10003048 <flash_get_unique_id>
10002e80:	bd10      	pop	{r4, pc}
10002e82:	46c0      	nop			; (mov r8, r8)
10002e84:	2000221c 	.word	0x2000221c

10002e88 <pico_get_unique_board_id_string>:
10002e88:	3901      	subs	r1, #1
10002e8a:	b510      	push	{r4, lr}
10002e8c:	2900      	cmp	r1, #0
10002e8e:	d100      	bne.n	10002e92 <pico_get_unique_board_id_string+0xa>
10002e90:	e0a5      	b.n	10002fde <pico_get_unique_board_id_string+0x156>
10002e92:	4b6c      	ldr	r3, [pc, #432]	; (10003044 <pico_get_unique_board_id_string+0x1bc>)
10002e94:	781a      	ldrb	r2, [r3, #0]
10002e96:	1112      	asrs	r2, r2, #4
10002e98:	0014      	movs	r4, r2
10002e9a:	3430      	adds	r4, #48	; 0x30
10002e9c:	2a09      	cmp	r2, #9
10002e9e:	dd00      	ble.n	10002ea2 <pico_get_unique_board_id_string+0x1a>
10002ea0:	e0a0      	b.n	10002fe4 <pico_get_unique_board_id_string+0x15c>
10002ea2:	7004      	strb	r4, [r0, #0]
10002ea4:	2901      	cmp	r1, #1
10002ea6:	d100      	bne.n	10002eaa <pico_get_unique_board_id_string+0x22>
10002ea8:	e099      	b.n	10002fde <pico_get_unique_board_id_string+0x156>
10002eaa:	220f      	movs	r2, #15
10002eac:	781c      	ldrb	r4, [r3, #0]
10002eae:	4022      	ands	r2, r4
10002eb0:	0014      	movs	r4, r2
10002eb2:	3430      	adds	r4, #48	; 0x30
10002eb4:	2a09      	cmp	r2, #9
10002eb6:	dd00      	ble.n	10002eba <pico_get_unique_board_id_string+0x32>
10002eb8:	e097      	b.n	10002fea <pico_get_unique_board_id_string+0x162>
10002eba:	7044      	strb	r4, [r0, #1]
10002ebc:	2902      	cmp	r1, #2
10002ebe:	d100      	bne.n	10002ec2 <pico_get_unique_board_id_string+0x3a>
10002ec0:	e08d      	b.n	10002fde <pico_get_unique_board_id_string+0x156>
10002ec2:	785a      	ldrb	r2, [r3, #1]
10002ec4:	1112      	asrs	r2, r2, #4
10002ec6:	0014      	movs	r4, r2
10002ec8:	3430      	adds	r4, #48	; 0x30
10002eca:	2a09      	cmp	r2, #9
10002ecc:	dd00      	ble.n	10002ed0 <pico_get_unique_board_id_string+0x48>
10002ece:	e08f      	b.n	10002ff0 <pico_get_unique_board_id_string+0x168>
10002ed0:	7084      	strb	r4, [r0, #2]
10002ed2:	2903      	cmp	r1, #3
10002ed4:	d100      	bne.n	10002ed8 <pico_get_unique_board_id_string+0x50>
10002ed6:	e082      	b.n	10002fde <pico_get_unique_board_id_string+0x156>
10002ed8:	220f      	movs	r2, #15
10002eda:	785c      	ldrb	r4, [r3, #1]
10002edc:	4022      	ands	r2, r4
10002ede:	0014      	movs	r4, r2
10002ee0:	3430      	adds	r4, #48	; 0x30
10002ee2:	2a09      	cmp	r2, #9
10002ee4:	dd00      	ble.n	10002ee8 <pico_get_unique_board_id_string+0x60>
10002ee6:	e086      	b.n	10002ff6 <pico_get_unique_board_id_string+0x16e>
10002ee8:	70c4      	strb	r4, [r0, #3]
10002eea:	2904      	cmp	r1, #4
10002eec:	d077      	beq.n	10002fde <pico_get_unique_board_id_string+0x156>
10002eee:	789a      	ldrb	r2, [r3, #2]
10002ef0:	1112      	asrs	r2, r2, #4
10002ef2:	0014      	movs	r4, r2
10002ef4:	3430      	adds	r4, #48	; 0x30
10002ef6:	2a09      	cmp	r2, #9
10002ef8:	dd00      	ble.n	10002efc <pico_get_unique_board_id_string+0x74>
10002efa:	e07f      	b.n	10002ffc <pico_get_unique_board_id_string+0x174>
10002efc:	7104      	strb	r4, [r0, #4]
10002efe:	2905      	cmp	r1, #5
10002f00:	d06d      	beq.n	10002fde <pico_get_unique_board_id_string+0x156>
10002f02:	220f      	movs	r2, #15
10002f04:	789c      	ldrb	r4, [r3, #2]
10002f06:	4022      	ands	r2, r4
10002f08:	0014      	movs	r4, r2
10002f0a:	3430      	adds	r4, #48	; 0x30
10002f0c:	2a09      	cmp	r2, #9
10002f0e:	dd00      	ble.n	10002f12 <pico_get_unique_board_id_string+0x8a>
10002f10:	e077      	b.n	10003002 <pico_get_unique_board_id_string+0x17a>
10002f12:	7144      	strb	r4, [r0, #5]
10002f14:	2906      	cmp	r1, #6
10002f16:	d062      	beq.n	10002fde <pico_get_unique_board_id_string+0x156>
10002f18:	78da      	ldrb	r2, [r3, #3]
10002f1a:	1112      	asrs	r2, r2, #4
10002f1c:	0014      	movs	r4, r2
10002f1e:	3430      	adds	r4, #48	; 0x30
10002f20:	2a09      	cmp	r2, #9
10002f22:	dd00      	ble.n	10002f26 <pico_get_unique_board_id_string+0x9e>
10002f24:	e070      	b.n	10003008 <pico_get_unique_board_id_string+0x180>
10002f26:	7184      	strb	r4, [r0, #6]
10002f28:	2907      	cmp	r1, #7
10002f2a:	d058      	beq.n	10002fde <pico_get_unique_board_id_string+0x156>
10002f2c:	220f      	movs	r2, #15
10002f2e:	78dc      	ldrb	r4, [r3, #3]
10002f30:	4022      	ands	r2, r4
10002f32:	0014      	movs	r4, r2
10002f34:	3430      	adds	r4, #48	; 0x30
10002f36:	2a09      	cmp	r2, #9
10002f38:	dc69      	bgt.n	1000300e <pico_get_unique_board_id_string+0x186>
10002f3a:	71c4      	strb	r4, [r0, #7]
10002f3c:	2908      	cmp	r1, #8
10002f3e:	d04e      	beq.n	10002fde <pico_get_unique_board_id_string+0x156>
10002f40:	791a      	ldrb	r2, [r3, #4]
10002f42:	1112      	asrs	r2, r2, #4
10002f44:	0014      	movs	r4, r2
10002f46:	3430      	adds	r4, #48	; 0x30
10002f48:	2a09      	cmp	r2, #9
10002f4a:	dc63      	bgt.n	10003014 <pico_get_unique_board_id_string+0x18c>
10002f4c:	7204      	strb	r4, [r0, #8]
10002f4e:	2909      	cmp	r1, #9
10002f50:	d045      	beq.n	10002fde <pico_get_unique_board_id_string+0x156>
10002f52:	220f      	movs	r2, #15
10002f54:	791c      	ldrb	r4, [r3, #4]
10002f56:	4022      	ands	r2, r4
10002f58:	0014      	movs	r4, r2
10002f5a:	3430      	adds	r4, #48	; 0x30
10002f5c:	2a09      	cmp	r2, #9
10002f5e:	dc5c      	bgt.n	1000301a <pico_get_unique_board_id_string+0x192>
10002f60:	7244      	strb	r4, [r0, #9]
10002f62:	290a      	cmp	r1, #10
10002f64:	d03b      	beq.n	10002fde <pico_get_unique_board_id_string+0x156>
10002f66:	795a      	ldrb	r2, [r3, #5]
10002f68:	1112      	asrs	r2, r2, #4
10002f6a:	0014      	movs	r4, r2
10002f6c:	3430      	adds	r4, #48	; 0x30
10002f6e:	2a09      	cmp	r2, #9
10002f70:	dc56      	bgt.n	10003020 <pico_get_unique_board_id_string+0x198>
10002f72:	7284      	strb	r4, [r0, #10]
10002f74:	290b      	cmp	r1, #11
10002f76:	d032      	beq.n	10002fde <pico_get_unique_board_id_string+0x156>
10002f78:	220f      	movs	r2, #15
10002f7a:	795c      	ldrb	r4, [r3, #5]
10002f7c:	4022      	ands	r2, r4
10002f7e:	0014      	movs	r4, r2
10002f80:	3430      	adds	r4, #48	; 0x30
10002f82:	2a09      	cmp	r2, #9
10002f84:	dc4f      	bgt.n	10003026 <pico_get_unique_board_id_string+0x19e>
10002f86:	72c4      	strb	r4, [r0, #11]
10002f88:	290c      	cmp	r1, #12
10002f8a:	d028      	beq.n	10002fde <pico_get_unique_board_id_string+0x156>
10002f8c:	799a      	ldrb	r2, [r3, #6]
10002f8e:	1112      	asrs	r2, r2, #4
10002f90:	0014      	movs	r4, r2
10002f92:	3430      	adds	r4, #48	; 0x30
10002f94:	2a09      	cmp	r2, #9
10002f96:	dc49      	bgt.n	1000302c <pico_get_unique_board_id_string+0x1a4>
10002f98:	7304      	strb	r4, [r0, #12]
10002f9a:	290d      	cmp	r1, #13
10002f9c:	d01f      	beq.n	10002fde <pico_get_unique_board_id_string+0x156>
10002f9e:	220f      	movs	r2, #15
10002fa0:	799c      	ldrb	r4, [r3, #6]
10002fa2:	4022      	ands	r2, r4
10002fa4:	0014      	movs	r4, r2
10002fa6:	3430      	adds	r4, #48	; 0x30
10002fa8:	2a09      	cmp	r2, #9
10002faa:	dc42      	bgt.n	10003032 <pico_get_unique_board_id_string+0x1aa>
10002fac:	7344      	strb	r4, [r0, #13]
10002fae:	290e      	cmp	r1, #14
10002fb0:	d015      	beq.n	10002fde <pico_get_unique_board_id_string+0x156>
10002fb2:	79da      	ldrb	r2, [r3, #7]
10002fb4:	1112      	asrs	r2, r2, #4
10002fb6:	0014      	movs	r4, r2
10002fb8:	3430      	adds	r4, #48	; 0x30
10002fba:	2a09      	cmp	r2, #9
10002fbc:	dc3c      	bgt.n	10003038 <pico_get_unique_board_id_string+0x1b0>
10002fbe:	7384      	strb	r4, [r0, #14]
10002fc0:	290f      	cmp	r1, #15
10002fc2:	d00c      	beq.n	10002fde <pico_get_unique_board_id_string+0x156>
10002fc4:	79da      	ldrb	r2, [r3, #7]
10002fc6:	230f      	movs	r3, #15
10002fc8:	4013      	ands	r3, r2
10002fca:	001a      	movs	r2, r3
10002fcc:	3237      	adds	r2, #55	; 0x37
10002fce:	2b09      	cmp	r3, #9
10002fd0:	dc01      	bgt.n	10002fd6 <pico_get_unique_board_id_string+0x14e>
10002fd2:	3330      	adds	r3, #48	; 0x30
10002fd4:	001a      	movs	r2, r3
10002fd6:	73c2      	strb	r2, [r0, #15]
10002fd8:	2910      	cmp	r1, #16
10002fda:	d000      	beq.n	10002fde <pico_get_unique_board_id_string+0x156>
10002fdc:	2110      	movs	r1, #16
10002fde:	2300      	movs	r3, #0
10002fe0:	5443      	strb	r3, [r0, r1]
10002fe2:	bd10      	pop	{r4, pc}
10002fe4:	3237      	adds	r2, #55	; 0x37
10002fe6:	0014      	movs	r4, r2
10002fe8:	e75b      	b.n	10002ea2 <pico_get_unique_board_id_string+0x1a>
10002fea:	3237      	adds	r2, #55	; 0x37
10002fec:	0014      	movs	r4, r2
10002fee:	e764      	b.n	10002eba <pico_get_unique_board_id_string+0x32>
10002ff0:	3237      	adds	r2, #55	; 0x37
10002ff2:	0014      	movs	r4, r2
10002ff4:	e76c      	b.n	10002ed0 <pico_get_unique_board_id_string+0x48>
10002ff6:	3237      	adds	r2, #55	; 0x37
10002ff8:	0014      	movs	r4, r2
10002ffa:	e775      	b.n	10002ee8 <pico_get_unique_board_id_string+0x60>
10002ffc:	3237      	adds	r2, #55	; 0x37
10002ffe:	0014      	movs	r4, r2
10003000:	e77c      	b.n	10002efc <pico_get_unique_board_id_string+0x74>
10003002:	3237      	adds	r2, #55	; 0x37
10003004:	0014      	movs	r4, r2
10003006:	e784      	b.n	10002f12 <pico_get_unique_board_id_string+0x8a>
10003008:	3237      	adds	r2, #55	; 0x37
1000300a:	0014      	movs	r4, r2
1000300c:	e78b      	b.n	10002f26 <pico_get_unique_board_id_string+0x9e>
1000300e:	3237      	adds	r2, #55	; 0x37
10003010:	0014      	movs	r4, r2
10003012:	e792      	b.n	10002f3a <pico_get_unique_board_id_string+0xb2>
10003014:	3237      	adds	r2, #55	; 0x37
10003016:	0014      	movs	r4, r2
10003018:	e798      	b.n	10002f4c <pico_get_unique_board_id_string+0xc4>
1000301a:	3237      	adds	r2, #55	; 0x37
1000301c:	0014      	movs	r4, r2
1000301e:	e79f      	b.n	10002f60 <pico_get_unique_board_id_string+0xd8>
10003020:	3237      	adds	r2, #55	; 0x37
10003022:	0014      	movs	r4, r2
10003024:	e7a5      	b.n	10002f72 <pico_get_unique_board_id_string+0xea>
10003026:	3237      	adds	r2, #55	; 0x37
10003028:	0014      	movs	r4, r2
1000302a:	e7ac      	b.n	10002f86 <pico_get_unique_board_id_string+0xfe>
1000302c:	3237      	adds	r2, #55	; 0x37
1000302e:	0014      	movs	r4, r2
10003030:	e7b2      	b.n	10002f98 <pico_get_unique_board_id_string+0x110>
10003032:	3237      	adds	r2, #55	; 0x37
10003034:	0014      	movs	r4, r2
10003036:	e7b9      	b.n	10002fac <pico_get_unique_board_id_string+0x124>
10003038:	3237      	adds	r2, #55	; 0x37
1000303a:	0014      	movs	r4, r2
1000303c:	7384      	strb	r4, [r0, #14]
1000303e:	290f      	cmp	r1, #15
10003040:	d1c0      	bne.n	10002fc4 <pico_get_unique_board_id_string+0x13c>
10003042:	e7cc      	b.n	10002fde <pico_get_unique_board_id_string+0x156>
10003044:	2000221c 	.word	0x2000221c

10003048 <flash_get_unique_id>:
10003048:	b510      	push	{r4, lr}
1000304a:	b088      	sub	sp, #32
1000304c:	0004      	movs	r4, r0
1000304e:	220d      	movs	r2, #13
10003050:	2100      	movs	r1, #0
10003052:	4668      	mov	r0, sp
10003054:	f7ff fabe 	bl	100025d4 <__wrap_memset>
10003058:	220d      	movs	r2, #13
1000305a:	2100      	movs	r1, #0
1000305c:	a804      	add	r0, sp, #16
1000305e:	f7ff fab9 	bl	100025d4 <__wrap_memset>
10003062:	234b      	movs	r3, #75	; 0x4b
10003064:	466a      	mov	r2, sp
10003066:	a904      	add	r1, sp, #16
10003068:	7013      	strb	r3, [r2, #0]
1000306a:	4668      	mov	r0, sp
1000306c:	220d      	movs	r2, #13
1000306e:	f002 ff4b 	bl	10005f08 <__flash_do_cmd_veneer>
10003072:	2115      	movs	r1, #21
10003074:	2208      	movs	r2, #8
10003076:	4469      	add	r1, sp
10003078:	0020      	movs	r0, r4
1000307a:	f7ff fab1 	bl	100025e0 <__wrap___aeabi_memcpy>
1000307e:	b008      	add	sp, #32
10003080:	bd10      	pop	{r4, pc}
10003082:	46c0      	nop			; (mov r8, r8)

10003084 <dcd_int_enable>:
10003084:	b510      	push	{r4, lr}
10003086:	2101      	movs	r1, #1
10003088:	2005      	movs	r0, #5
1000308a:	f7fd fa4b 	bl	10000524 <irq_set_enabled>
1000308e:	bd10      	pop	{r4, pc}

10003090 <dcd_set_address>:
10003090:	b510      	push	{r4, lr}
10003092:	4803      	ldr	r0, [pc, #12]	; (100030a0 <dcd_set_address+0x10>)
10003094:	2200      	movs	r2, #0
10003096:	2100      	movs	r1, #0
10003098:	3020      	adds	r0, #32
1000309a:	f000 f965 	bl	10003368 <hw_endpoint_xfer_start>
1000309e:	bd10      	pop	{r4, pc}
100030a0:	20001df8 	.word	0x20001df8

100030a4 <dcd_connect>:
100030a4:	2280      	movs	r2, #128	; 0x80
100030a6:	4b02      	ldr	r3, [pc, #8]	; (100030b0 <dcd_connect+0xc>)
100030a8:	0252      	lsls	r2, r2, #9
100030aa:	64da      	str	r2, [r3, #76]	; 0x4c
100030ac:	4770      	bx	lr
100030ae:	46c0      	nop			; (mov r8, r8)
100030b0:	50112000 	.word	0x50112000

100030b4 <dcd_init>:
100030b4:	b5f0      	push	{r4, r5, r6, r7, lr}
100030b6:	46c6      	mov	lr, r8
100030b8:	b500      	push	{lr}
100030ba:	4680      	mov	r8, r0
100030bc:	f000 f92e 	bl	1000331c <rp2040_usb_init>
100030c0:	230c      	movs	r3, #12
100030c2:	4d1b      	ldr	r5, [pc, #108]	; (10003130 <dcd_init+0x7c>)
100030c4:	22ff      	movs	r2, #255	; 0xff
100030c6:	67ab      	str	r3, [r5, #120]	; 0x78
100030c8:	491a      	ldr	r1, [pc, #104]	; (10003134 <dcd_init+0x80>)
100030ca:	2005      	movs	r0, #5
100030cc:	f7fd fa8c 	bl	100005e8 <irq_add_shared_handler>
100030d0:	4c19      	ldr	r4, [pc, #100]	; (10003138 <dcd_init+0x84>)
100030d2:	2240      	movs	r2, #64	; 0x40
100030d4:	2100      	movs	r1, #0
100030d6:	0020      	movs	r0, r4
100030d8:	f7ff fa7c 	bl	100025d4 <__wrap_memset>
100030dc:	2740      	movs	r7, #64	; 0x40
100030de:	2300      	movs	r3, #0
100030e0:	2601      	movs	r6, #1
100030e2:	2080      	movs	r0, #128	; 0x80
100030e4:	2122      	movs	r1, #34	; 0x22
100030e6:	4a15      	ldr	r2, [pc, #84]	; (1000313c <dcd_init+0x88>)
100030e8:	7066      	strb	r6, [r4, #1]
100030ea:	8327      	strh	r7, [r4, #24]
100030ec:	60a2      	str	r2, [r4, #8]
100030ee:	6013      	str	r3, [r2, #0]
100030f0:	5460      	strb	r0, [r4, r1]
100030f2:	3901      	subs	r1, #1
100030f4:	5463      	strb	r3, [r4, r1]
100030f6:	3102      	adds	r1, #2
100030f8:	5463      	strb	r3, [r4, r1]
100030fa:	3118      	adds	r1, #24
100030fc:	5463      	strb	r3, [r4, r1]
100030fe:	4a10      	ldr	r2, [pc, #64]	; (10003140 <dcd_init+0x8c>)
10003100:	4910      	ldr	r1, [pc, #64]	; (10003144 <dcd_init+0x90>)
10003102:	6063      	str	r3, [r4, #4]
10003104:	60e2      	str	r2, [r4, #12]
10003106:	8727      	strh	r7, [r4, #56]	; 0x38
10003108:	62a1      	str	r1, [r4, #40]	; 0x28
1000310a:	600b      	str	r3, [r1, #0]
1000310c:	6263      	str	r3, [r4, #36]	; 0x24
1000310e:	62e2      	str	r2, [r4, #44]	; 0x2c
10003110:	f002 ff3a 	bl	10005f88 <__reset_non_control_endpoints_veneer>
10003114:	2380      	movs	r3, #128	; 0x80
10003116:	059b      	lsls	r3, r3, #22
10003118:	642e      	str	r6, [r5, #64]	; 0x40
1000311a:	64eb      	str	r3, [r5, #76]	; 0x4c
1000311c:	2390      	movs	r3, #144	; 0x90
1000311e:	4a0a      	ldr	r2, [pc, #40]	; (10003148 <dcd_init+0x94>)
10003120:	4640      	mov	r0, r8
10003122:	50ea      	str	r2, [r5, r3]
10003124:	f7ff ffbe 	bl	100030a4 <dcd_connect>
10003128:	bc04      	pop	{r2}
1000312a:	4690      	mov	r8, r2
1000312c:	bdf0      	pop	{r4, r5, r6, r7, pc}
1000312e:	46c0      	nop			; (mov r8, r8)
10003130:	50110000 	.word	0x50110000
10003134:	2000050d 	.word	0x2000050d
10003138:	20001df8 	.word	0x20001df8
1000313c:	50100084 	.word	0x50100084
10003140:	50100100 	.word	0x50100100
10003144:	50100080 	.word	0x50100080
10003148:	0001d010 	.word	0x0001d010

1000314c <dcd_edpt0_status_complete>:
1000314c:	780b      	ldrb	r3, [r1, #0]
1000314e:	065b      	lsls	r3, r3, #25
10003150:	d102      	bne.n	10003158 <dcd_edpt0_status_complete+0xc>
10003152:	784b      	ldrb	r3, [r1, #1]
10003154:	2b05      	cmp	r3, #5
10003156:	d000      	beq.n	1000315a <dcd_edpt0_status_complete+0xe>
10003158:	4770      	bx	lr
1000315a:	788a      	ldrb	r2, [r1, #2]
1000315c:	4b01      	ldr	r3, [pc, #4]	; (10003164 <dcd_edpt0_status_complete+0x18>)
1000315e:	601a      	str	r2, [r3, #0]
10003160:	e7fa      	b.n	10003158 <dcd_edpt0_status_complete+0xc>
10003162:	46c0      	nop			; (mov r8, r8)
10003164:	50110000 	.word	0x50110000

10003168 <dcd_edpt_open>:
10003168:	b5f0      	push	{r4, r5, r6, r7, lr}
1000316a:	4647      	mov	r7, r8
1000316c:	46ce      	mov	lr, r9
1000316e:	b580      	push	{r7, lr}
10003170:	794b      	ldrb	r3, [r1, #5]
10003172:	790a      	ldrb	r2, [r1, #4]
10003174:	b083      	sub	sp, #12
10003176:	021b      	lsls	r3, r3, #8
10003178:	7888      	ldrb	r0, [r1, #2]
1000317a:	4313      	orrs	r3, r2
1000317c:	78ca      	ldrb	r2, [r1, #3]
1000317e:	4669      	mov	r1, sp
10003180:	0792      	lsls	r2, r2, #30
10003182:	0f92      	lsrs	r2, r2, #30
10003184:	71ca      	strb	r2, [r1, #7]
10003186:	4694      	mov	ip, r2
10003188:	227f      	movs	r2, #127	; 0x7f
1000318a:	79cf      	ldrb	r7, [r1, #7]
1000318c:	b241      	sxtb	r1, r0
1000318e:	4688      	mov	r8, r1
10003190:	4002      	ands	r2, r0
10003192:	0fce      	lsrs	r6, r1, #31
10003194:	0055      	lsls	r5, r2, #1
10003196:	4c36      	ldr	r4, [pc, #216]	; (10003270 <dcd_edpt_open+0x108>)
10003198:	19a9      	adds	r1, r5, r6
1000319a:	0149      	lsls	r1, r1, #5
1000319c:	1861      	adds	r1, r4, r1
1000319e:	7088      	strb	r0, [r1, #2]
100031a0:	4640      	mov	r0, r8
100031a2:	43c0      	mvns	r0, r0
100031a4:	0fc0      	lsrs	r0, r0, #31
100031a6:	7048      	strb	r0, [r1, #1]
100031a8:	2000      	movs	r0, #0
100031aa:	70c8      	strb	r0, [r1, #3]
100031ac:	4681      	mov	r9, r0
100031ae:	4660      	mov	r0, ip
100031b0:	055b      	lsls	r3, r3, #21
100031b2:	0d5b      	lsrs	r3, r3, #21
100031b4:	830b      	strh	r3, [r1, #24]
100031b6:	76c8      	strb	r0, [r1, #27]
100031b8:	4641      	mov	r1, r8
100031ba:	2900      	cmp	r1, #0
100031bc:	db3c      	blt.n	10003238 <dcd_edpt_open+0xd0>
100031be:	482d      	ldr	r0, [pc, #180]	; (10003274 <dcd_edpt_open+0x10c>)
100031c0:	00d1      	lsls	r1, r2, #3
100031c2:	4684      	mov	ip, r0
100031c4:	0190      	lsls	r0, r2, #6
100031c6:	4461      	add	r1, ip
100031c8:	4684      	mov	ip, r0
100031ca:	44a4      	add	ip, r4
100031cc:	4660      	mov	r0, ip
100031ce:	6081      	str	r1, [r0, #8]
100031d0:	4648      	mov	r0, r9
100031d2:	6008      	str	r0, [r1, #0]
100031d4:	2a00      	cmp	r2, #0
100031d6:	d03c      	beq.n	10003252 <dcd_edpt_open+0xea>
100031d8:	4927      	ldr	r1, [pc, #156]	; (10003278 <dcd_edpt_open+0x110>)
100031da:	00d2      	lsls	r2, r2, #3
100031dc:	468c      	mov	ip, r1
100031de:	4462      	add	r2, ip
100031e0:	19a9      	adds	r1, r5, r6
100031e2:	0149      	lsls	r1, r1, #5
100031e4:	1861      	adds	r1, r4, r1
100031e6:	604a      	str	r2, [r1, #4]
100031e8:	223f      	movs	r2, #63	; 0x3f
100031ea:	333f      	adds	r3, #63	; 0x3f
100031ec:	4393      	bics	r3, r2
100031ee:	2f02      	cmp	r7, #2
100031f0:	d03b      	beq.n	1000326a <dcd_edpt_open+0x102>
100031f2:	4822      	ldr	r0, [pc, #136]	; (1000327c <dcd_edpt_open+0x114>)
100031f4:	19aa      	adds	r2, r5, r6
100031f6:	6801      	ldr	r1, [r0, #0]
100031f8:	0152      	lsls	r2, r2, #5
100031fa:	18a2      	adds	r2, r4, r2
100031fc:	60d1      	str	r1, [r2, #12]
100031fe:	4a20      	ldr	r2, [pc, #128]	; (10003280 <dcd_edpt_open+0x118>)
10003200:	18cb      	adds	r3, r1, r3
10003202:	6003      	str	r3, [r0, #0]
10003204:	4051      	eors	r1, r2
10003206:	4053      	eors	r3, r2
10003208:	2280      	movs	r2, #128	; 0x80
1000320a:	4688      	mov	r8, r1
1000320c:	0152      	lsls	r2, r2, #5
1000320e:	4293      	cmp	r3, r2
10003210:	d901      	bls.n	10003216 <dcd_edpt_open+0xae>
10003212:	f7ff f891 	bl	10002338 <hard_assertion_failure>
10003216:	2380      	movs	r3, #128	; 0x80
10003218:	4642      	mov	r2, r8
1000321a:	19ad      	adds	r5, r5, r6
1000321c:	061b      	lsls	r3, r3, #24
1000321e:	016d      	lsls	r5, r5, #5
10003220:	4313      	orrs	r3, r2
10003222:	06bf      	lsls	r7, r7, #26
10003224:	1964      	adds	r4, r4, r5
10003226:	431f      	orrs	r7, r3
10003228:	6863      	ldr	r3, [r4, #4]
1000322a:	601f      	str	r7, [r3, #0]
1000322c:	2001      	movs	r0, #1
1000322e:	b003      	add	sp, #12
10003230:	bc0c      	pop	{r2, r3}
10003232:	4690      	mov	r8, r2
10003234:	4699      	mov	r9, r3
10003236:	bdf0      	pop	{r4, r5, r6, r7, pc}
10003238:	4812      	ldr	r0, [pc, #72]	; (10003284 <dcd_edpt_open+0x11c>)
1000323a:	00d1      	lsls	r1, r2, #3
1000323c:	4684      	mov	ip, r0
1000323e:	0190      	lsls	r0, r2, #6
10003240:	4461      	add	r1, ip
10003242:	4684      	mov	ip, r0
10003244:	44a4      	add	ip, r4
10003246:	4660      	mov	r0, ip
10003248:	6281      	str	r1, [r0, #40]	; 0x28
1000324a:	4648      	mov	r0, r9
1000324c:	6008      	str	r0, [r1, #0]
1000324e:	2a00      	cmp	r2, #0
10003250:	d106      	bne.n	10003260 <dcd_edpt_open+0xf8>
10003252:	2300      	movs	r3, #0
10003254:	0176      	lsls	r6, r6, #5
10003256:	19a4      	adds	r4, r4, r6
10003258:	6063      	str	r3, [r4, #4]
1000325a:	4b0b      	ldr	r3, [pc, #44]	; (10003288 <dcd_edpt_open+0x120>)
1000325c:	60e3      	str	r3, [r4, #12]
1000325e:	e7e5      	b.n	1000322c <dcd_edpt_open+0xc4>
10003260:	4907      	ldr	r1, [pc, #28]	; (10003280 <dcd_edpt_open+0x118>)
10003262:	00d2      	lsls	r2, r2, #3
10003264:	468c      	mov	ip, r1
10003266:	4462      	add	r2, ip
10003268:	e7ba      	b.n	100031e0 <dcd_edpt_open+0x78>
1000326a:	005b      	lsls	r3, r3, #1
1000326c:	e7c1      	b.n	100031f2 <dcd_edpt_open+0x8a>
1000326e:	46c0      	nop			; (mov r8, r8)
10003270:	20001df8 	.word	0x20001df8
10003274:	50100084 	.word	0x50100084
10003278:	50100004 	.word	0x50100004
1000327c:	20002200 	.word	0x20002200
10003280:	50100000 	.word	0x50100000
10003284:	50100080 	.word	0x50100080
10003288:	50100100 	.word	0x50100100

1000328c <dcd_edpt_close_all>:
1000328c:	b510      	push	{r4, lr}
1000328e:	f002 fe7b 	bl	10005f88 <__reset_non_control_endpoints_veneer>
10003292:	bd10      	pop	{r4, pc}

10003294 <dcd_edpt_xfer>:
10003294:	207f      	movs	r0, #127	; 0x7f
10003296:	b570      	push	{r4, r5, r6, lr}
10003298:	0015      	movs	r5, r2
1000329a:	4008      	ands	r0, r1
1000329c:	0040      	lsls	r0, r0, #1
1000329e:	09c9      	lsrs	r1, r1, #7
100032a0:	4c04      	ldr	r4, [pc, #16]	; (100032b4 <dcd_edpt_xfer+0x20>)
100032a2:	1840      	adds	r0, r0, r1
100032a4:	0140      	lsls	r0, r0, #5
100032a6:	1820      	adds	r0, r4, r0
100032a8:	0029      	movs	r1, r5
100032aa:	001a      	movs	r2, r3
100032ac:	f000 f85c 	bl	10003368 <hw_endpoint_xfer_start>
100032b0:	2001      	movs	r0, #1
100032b2:	bd70      	pop	{r4, r5, r6, pc}
100032b4:	20001df8 	.word	0x20001df8

100032b8 <dcd_edpt_stall>:
100032b8:	207f      	movs	r0, #127	; 0x7f
100032ba:	b510      	push	{r4, lr}
100032bc:	4008      	ands	r0, r1
100032be:	b249      	sxtb	r1, r1
100032c0:	2800      	cmp	r0, #0
100032c2:	d104      	bne.n	100032ce <dcd_edpt_stall+0x16>
100032c4:	43cb      	mvns	r3, r1
100032c6:	4a08      	ldr	r2, [pc, #32]	; (100032e8 <dcd_edpt_stall+0x30>)
100032c8:	0fdb      	lsrs	r3, r3, #31
100032ca:	3301      	adds	r3, #1
100032cc:	6693      	str	r3, [r2, #104]	; 0x68
100032ce:	2280      	movs	r2, #128	; 0x80
100032d0:	0fc9      	lsrs	r1, r1, #31
100032d2:	0040      	lsls	r0, r0, #1
100032d4:	1840      	adds	r0, r0, r1
100032d6:	4905      	ldr	r1, [pc, #20]	; (100032ec <dcd_edpt_stall+0x34>)
100032d8:	0140      	lsls	r0, r0, #5
100032da:	1808      	adds	r0, r1, r0
100032dc:	0112      	lsls	r2, r2, #4
100032de:	2100      	movs	r1, #0
100032e0:	f002 fe62 	bl	10005fa8 <___hw_endpoint_buffer_control_update32_veneer>
100032e4:	bd10      	pop	{r4, pc}
100032e6:	46c0      	nop			; (mov r8, r8)
100032e8:	50112000 	.word	0x50112000
100032ec:	20001df8 	.word	0x20001df8

100032f0 <dcd_edpt_clear_stall>:
100032f0:	237f      	movs	r3, #127	; 0x7f
100032f2:	b510      	push	{r4, lr}
100032f4:	400b      	ands	r3, r1
100032f6:	d00b      	beq.n	10003310 <dcd_edpt_clear_stall+0x20>
100032f8:	09c9      	lsrs	r1, r1, #7
100032fa:	0058      	lsls	r0, r3, #1
100032fc:	1840      	adds	r0, r0, r1
100032fe:	4b05      	ldr	r3, [pc, #20]	; (10003314 <dcd_edpt_clear_stall+0x24>)
10003300:	0140      	lsls	r0, r0, #5
10003302:	1818      	adds	r0, r3, r0
10003304:	2300      	movs	r3, #0
10003306:	2200      	movs	r2, #0
10003308:	70c3      	strb	r3, [r0, #3]
1000330a:	4903      	ldr	r1, [pc, #12]	; (10003318 <dcd_edpt_clear_stall+0x28>)
1000330c:	f002 fe4c 	bl	10005fa8 <___hw_endpoint_buffer_control_update32_veneer>
10003310:	bd10      	pop	{r4, pc}
10003312:	46c0      	nop			; (mov r8, r8)
10003314:	20001df8 	.word	0x20001df8
10003318:	fffff7ff 	.word	0xfffff7ff

1000331c <rp2040_usb_init>:
1000331c:	2280      	movs	r2, #128	; 0x80
1000331e:	4b0d      	ldr	r3, [pc, #52]	; (10003354 <rp2040_usb_init+0x38>)
10003320:	0452      	lsls	r2, r2, #17
10003322:	b510      	push	{r4, lr}
10003324:	601a      	str	r2, [r3, #0]
10003326:	4b0c      	ldr	r3, [pc, #48]	; (10003358 <rp2040_usb_init+0x3c>)
10003328:	490c      	ldr	r1, [pc, #48]	; (1000335c <rp2040_usb_init+0x40>)
1000332a:	601a      	str	r2, [r3, #0]
1000332c:	0010      	movs	r0, r2
1000332e:	688b      	ldr	r3, [r1, #8]
10003330:	4398      	bics	r0, r3
10003332:	d1fb      	bne.n	1000332c <rp2040_usb_init+0x10>
10003334:	4c0a      	ldr	r4, [pc, #40]	; (10003360 <rp2040_usb_init+0x44>)
10003336:	229c      	movs	r2, #156	; 0x9c
10003338:	2100      	movs	r1, #0
1000333a:	0020      	movs	r0, r4
1000333c:	f7ff f94a 	bl	100025d4 <__wrap_memset>
10003340:	2280      	movs	r2, #128	; 0x80
10003342:	2100      	movs	r1, #0
10003344:	0152      	lsls	r2, r2, #5
10003346:	4807      	ldr	r0, [pc, #28]	; (10003364 <rp2040_usb_init+0x48>)
10003348:	f7ff f944 	bl	100025d4 <__wrap_memset>
1000334c:	2309      	movs	r3, #9
1000334e:	6763      	str	r3, [r4, #116]	; 0x74
10003350:	bd10      	pop	{r4, pc}
10003352:	46c0      	nop			; (mov r8, r8)
10003354:	4000e000 	.word	0x4000e000
10003358:	4000f000 	.word	0x4000f000
1000335c:	4000c000 	.word	0x4000c000
10003360:	50110000 	.word	0x50110000
10003364:	50100000 	.word	0x50100000

10003368 <hw_endpoint_xfer_start>:
10003368:	b570      	push	{r4, r5, r6, lr}
1000336a:	7e83      	ldrb	r3, [r0, #26]
1000336c:	0004      	movs	r4, r0
1000336e:	000d      	movs	r5, r1
10003370:	0016      	movs	r6, r2
10003372:	2b00      	cmp	r3, #0
10003374:	d11d      	bne.n	100033b2 <hw_endpoint_xfer_start+0x4a>
10003376:	2300      	movs	r3, #0
10003378:	0021      	movs	r1, r4
1000337a:	82e3      	strh	r3, [r4, #22]
1000337c:	3301      	adds	r3, #1
1000337e:	82a6      	strh	r6, [r4, #20]
10003380:	76a3      	strb	r3, [r4, #26]
10003382:	6125      	str	r5, [r4, #16]
10003384:	1ca0      	adds	r0, r4, #2
10003386:	311b      	adds	r1, #27
10003388:	f002 fe06 	bl	10005f98 <__e15_is_bulkin_ep.isra.0_veneer>
1000338c:	2800      	cmp	r0, #0
1000338e:	d004      	beq.n	1000339a <hw_endpoint_xfer_start+0x32>
10003390:	2180      	movs	r1, #128	; 0x80
10003392:	2390      	movs	r3, #144	; 0x90
10003394:	4a08      	ldr	r2, [pc, #32]	; (100033b8 <hw_endpoint_xfer_start+0x50>)
10003396:	0289      	lsls	r1, r1, #10
10003398:	50d1      	str	r1, [r2, r3]
1000339a:	0020      	movs	r0, r4
1000339c:	f002 fe0c 	bl	10005fb8 <__e15_is_critical_frame_period_veneer>
100033a0:	2800      	cmp	r0, #0
100033a2:	d002      	beq.n	100033aa <hw_endpoint_xfer_start+0x42>
100033a4:	2301      	movs	r3, #1
100033a6:	7723      	strb	r3, [r4, #28]
100033a8:	bd70      	pop	{r4, r5, r6, pc}
100033aa:	0020      	movs	r0, r4
100033ac:	f002 fddc 	bl	10005f68 <__hw_endpoint_start_next_buffer_veneer>
100033b0:	e7fa      	b.n	100033a8 <hw_endpoint_xfer_start+0x40>
100033b2:	f002 fde1 	bl	10005f78 <__hw_endpoint_reset_transfer_veneer>
100033b6:	e7de      	b.n	10003376 <hw_endpoint_xfer_start+0xe>
100033b8:	50112000 	.word	0x50112000

100033bc <tud_mounted>:
100033bc:	4b02      	ldr	r3, [pc, #8]	; (100033c8 <tud_mounted+0xc>)
100033be:	7858      	ldrb	r0, [r3, #1]
100033c0:	1e43      	subs	r3, r0, #1
100033c2:	4198      	sbcs	r0, r3
100033c4:	b2c0      	uxtb	r0, r0
100033c6:	4770      	bx	lr
100033c8:	20001be0 	.word	0x20001be0

100033cc <tud_suspended>:
100033cc:	4b02      	ldr	r3, [pc, #8]	; (100033d8 <tud_suspended+0xc>)
100033ce:	7818      	ldrb	r0, [r3, #0]
100033d0:	0740      	lsls	r0, r0, #29
100033d2:	0fc0      	lsrs	r0, r0, #31
100033d4:	4770      	bx	lr
100033d6:	46c0      	nop			; (mov r8, r8)
100033d8:	20001be0 	.word	0x20001be0

100033dc <tud_inited>:
100033dc:	4b03      	ldr	r3, [pc, #12]	; (100033ec <tud_inited+0x10>)
100033de:	7818      	ldrb	r0, [r3, #0]
100033e0:	38ff      	subs	r0, #255	; 0xff
100033e2:	1e43      	subs	r3, r0, #1
100033e4:	4198      	sbcs	r0, r3
100033e6:	b2c0      	uxtb	r0, r0
100033e8:	4770      	bx	lr
100033ea:	46c0      	nop			; (mov r8, r8)
100033ec:	20000efc 	.word	0x20000efc

100033f0 <tud_init>:
100033f0:	b5f8      	push	{r3, r4, r5, r6, r7, lr}
100033f2:	4647      	mov	r7, r8
100033f4:	46ce      	mov	lr, r9
100033f6:	b580      	push	{r7, lr}
100033f8:	4e2a      	ldr	r6, [pc, #168]	; (100034a4 <tud_init+0xb4>)
100033fa:	0007      	movs	r7, r0
100033fc:	7833      	ldrb	r3, [r6, #0]
100033fe:	2001      	movs	r0, #1
10003400:	2bff      	cmp	r3, #255	; 0xff
10003402:	d003      	beq.n	1000340c <tud_init+0x1c>
10003404:	bc0c      	pop	{r2, r3}
10003406:	4690      	mov	r8, r2
10003408:	4699      	mov	r9, r3
1000340a:	bdf8      	pop	{r3, r4, r5, r6, r7, pc}
1000340c:	2253      	movs	r2, #83	; 0x53
1000340e:	2100      	movs	r1, #0
10003410:	4825      	ldr	r0, [pc, #148]	; (100034a8 <tud_init+0xb8>)
10003412:	f7ff f8df 	bl	100025d4 <__wrap_memset>
10003416:	4c25      	ldr	r4, [pc, #148]	; (100034ac <tud_init+0xbc>)
10003418:	0020      	movs	r0, r4
1000341a:	f7fd fb3f 	bl	10000a9c <mutex_init>
1000341e:	4b24      	ldr	r3, [pc, #144]	; (100034b0 <tud_init+0xc0>)
10003420:	601c      	str	r4, [r3, #0]
10003422:	4c24      	ldr	r4, [pc, #144]	; (100034b4 <tud_init+0xc4>)
10003424:	0020      	movs	r0, r4
10003426:	3014      	adds	r0, #20
10003428:	f7fd fb56 	bl	10000ad8 <critical_section_init>
1000342c:	0020      	movs	r0, r4
1000342e:	f001 fc75 	bl	10004d1c <tu_fifo_clear>
10003432:	4b21      	ldr	r3, [pc, #132]	; (100034b8 <tud_init+0xc8>)
10003434:	601c      	str	r4, [r3, #0]
10003436:	4b21      	ldr	r3, [pc, #132]	; (100034bc <tud_init+0xcc>)
10003438:	2b00      	cmp	r3, #0
1000343a:	d020      	beq.n	1000347e <tud_init+0x8e>
1000343c:	4d20      	ldr	r5, [pc, #128]	; (100034c0 <tud_init+0xd0>)
1000343e:	2400      	movs	r4, #0
10003440:	0028      	movs	r0, r5
10003442:	f7ff faeb 	bl	10002a1c <usbd_app_driver_get_cb>
10003446:	4b1f      	ldr	r3, [pc, #124]	; (100034c4 <tud_init+0xd4>)
10003448:	4a1f      	ldr	r2, [pc, #124]	; (100034c8 <tud_init+0xd8>)
1000344a:	4699      	mov	r9, r3
1000344c:	6018      	str	r0, [r3, #0]
1000344e:	4690      	mov	r8, r2
10003450:	782b      	ldrb	r3, [r5, #0]
10003452:	e00f      	b.n	10003474 <tud_init+0x84>
10003454:	464a      	mov	r2, r9
10003456:	6812      	ldr	r2, [r2, #0]
10003458:	0063      	lsls	r3, r4, #1
1000345a:	4694      	mov	ip, r2
1000345c:	191b      	adds	r3, r3, r4
1000345e:	00db      	lsls	r3, r3, #3
10003460:	4463      	add	r3, ip
10003462:	2b00      	cmp	r3, #0
10003464:	d01b      	beq.n	1000349e <tud_init+0xae>
10003466:	681b      	ldr	r3, [r3, #0]
10003468:	4798      	blx	r3
1000346a:	3401      	adds	r4, #1
1000346c:	782b      	ldrb	r3, [r5, #0]
1000346e:	b2e4      	uxtb	r4, r4
10003470:	42a3      	cmp	r3, r4
10003472:	db0b      	blt.n	1000348c <tud_init+0x9c>
10003474:	42a3      	cmp	r3, r4
10003476:	d8ed      	bhi.n	10003454 <tud_init+0x64>
10003478:	d111      	bne.n	1000349e <tud_init+0xae>
1000347a:	4643      	mov	r3, r8
1000347c:	e7f4      	b.n	10003468 <tud_init+0x78>
1000347e:	f000 ff9f 	bl	100043c0 <cdcd_init>
10003482:	4b0f      	ldr	r3, [pc, #60]	; (100034c0 <tud_init+0xd0>)
10003484:	2000      	movs	r0, #0
10003486:	781b      	ldrb	r3, [r3, #0]
10003488:	2b00      	cmp	r3, #0
1000348a:	d1bb      	bne.n	10003404 <tud_init+0x14>
1000348c:	0038      	movs	r0, r7
1000348e:	7037      	strb	r7, [r6, #0]
10003490:	f7ff fe10 	bl	100030b4 <dcd_init>
10003494:	0038      	movs	r0, r7
10003496:	f7ff fdf5 	bl	10003084 <dcd_int_enable>
1000349a:	2001      	movs	r0, #1
1000349c:	e7b2      	b.n	10003404 <tud_init+0x14>
1000349e:	2000      	movs	r0, #0
100034a0:	e7b0      	b.n	10003404 <tud_init+0x14>
100034a2:	46c0      	nop			; (mov r8, r8)
100034a4:	20000efc 	.word	0x20000efc
100034a8:	20001be0 	.word	0x20001be0
100034ac:	20001b98 	.word	0x20001b98
100034b0:	20001c34 	.word	0x20001c34
100034b4:	20000ee0 	.word	0x20000ee0
100034b8:	20001c38 	.word	0x20001c38
100034bc:	10002a1d 	.word	0x10002a1d
100034c0:	20002255 	.word	0x20002255
100034c4:	200018b8 	.word	0x200018b8
100034c8:	100043c1 	.word	0x100043c1

100034cc <usbd_open_edpt_pair>:
100034cc:	b5f8      	push	{r3, r4, r5, r6, r7, lr}
100034ce:	46de      	mov	lr, fp
100034d0:	4657      	mov	r7, sl
100034d2:	464e      	mov	r6, r9
100034d4:	4645      	mov	r5, r8
100034d6:	000c      	movs	r4, r1
100034d8:	b5e0      	push	{r5, r6, r7, lr}
100034da:	2a00      	cmp	r2, #0
100034dc:	d04d      	beq.n	1000357a <usbd_open_edpt_pair+0xae>
100034de:	7849      	ldrb	r1, [r1, #1]
100034e0:	2905      	cmp	r1, #5
100034e2:	d109      	bne.n	100034f8 <usbd_open_edpt_pair+0x2c>
100034e4:	78e6      	ldrb	r6, [r4, #3]
100034e6:	07b6      	lsls	r6, r6, #30
100034e8:	0fb6      	lsrs	r6, r6, #30
100034ea:	42b3      	cmp	r3, r6
100034ec:	d104      	bne.n	100034f8 <usbd_open_edpt_pair+0x2c>
100034ee:	237f      	movs	r3, #127	; 0x7f
100034f0:	78a1      	ldrb	r1, [r4, #2]
100034f2:	400b      	ands	r3, r1
100034f4:	2b0f      	cmp	r3, #15
100034f6:	d906      	bls.n	10003506 <usbd_open_edpt_pair+0x3a>
100034f8:	2000      	movs	r0, #0
100034fa:	bc3c      	pop	{r2, r3, r4, r5}
100034fc:	4690      	mov	r8, r2
100034fe:	4699      	mov	r9, r3
10003500:	46a2      	mov	sl, r4
10003502:	46ab      	mov	fp, r5
10003504:	bdf8      	pop	{r3, r4, r5, r6, r7, pc}
10003506:	4b1e      	ldr	r3, [pc, #120]	; (10003580 <usbd_open_edpt_pair+0xb4>)
10003508:	1e57      	subs	r7, r2, #1
1000350a:	4699      	mov	r9, r3
1000350c:	781b      	ldrb	r3, [r3, #0]
1000350e:	2500      	movs	r5, #0
10003510:	469a      	mov	sl, r3
10003512:	4b1c      	ldr	r3, [pc, #112]	; (10003584 <usbd_open_edpt_pair+0xb8>)
10003514:	469b      	mov	fp, r3
10003516:	237f      	movs	r3, #127	; 0x7f
10003518:	4698      	mov	r8, r3
1000351a:	e002      	b.n	10003522 <usbd_open_edpt_pair+0x56>
1000351c:	464b      	mov	r3, r9
1000351e:	781b      	ldrb	r3, [r3, #0]
10003520:	469a      	mov	sl, r3
10003522:	465b      	mov	r3, fp
10003524:	0020      	movs	r0, r4
10003526:	7899      	ldrb	r1, [r3, #2]
10003528:	f001 f994 	bl	10004854 <tu_edpt_validate>
1000352c:	2800      	cmp	r0, #0
1000352e:	d0e3      	beq.n	100034f8 <usbd_open_edpt_pair+0x2c>
10003530:	0021      	movs	r1, r4
10003532:	4650      	mov	r0, sl
10003534:	f7ff fe18 	bl	10003168 <dcd_edpt_open>
10003538:	2800      	cmp	r0, #0
1000353a:	d0dd      	beq.n	100034f8 <usbd_open_edpt_pair+0x2c>
1000353c:	78a3      	ldrb	r3, [r4, #2]
1000353e:	b25a      	sxtb	r2, r3
10003540:	2a00      	cmp	r2, #0
10003542:	db14      	blt.n	1000356e <usbd_open_edpt_pair+0xa2>
10003544:	9a0a      	ldr	r2, [sp, #40]	; 0x28
10003546:	7013      	strb	r3, [r2, #0]
10003548:	7823      	ldrb	r3, [r4, #0]
1000354a:	18e4      	adds	r4, r4, r3
1000354c:	42bd      	cmp	r5, r7
1000354e:	d014      	beq.n	1000357a <usbd_open_edpt_pair+0xae>
10003550:	7863      	ldrb	r3, [r4, #1]
10003552:	2b05      	cmp	r3, #5
10003554:	d1d0      	bne.n	100034f8 <usbd_open_edpt_pair+0x2c>
10003556:	78e3      	ldrb	r3, [r4, #3]
10003558:	079b      	lsls	r3, r3, #30
1000355a:	0f9b      	lsrs	r3, r3, #30
1000355c:	42b3      	cmp	r3, r6
1000355e:	d1cb      	bne.n	100034f8 <usbd_open_edpt_pair+0x2c>
10003560:	4642      	mov	r2, r8
10003562:	78a3      	ldrb	r3, [r4, #2]
10003564:	3501      	adds	r5, #1
10003566:	4013      	ands	r3, r2
10003568:	2b0f      	cmp	r3, #15
1000356a:	d8c5      	bhi.n	100034f8 <usbd_open_edpt_pair+0x2c>
1000356c:	e7d6      	b.n	1000351c <usbd_open_edpt_pair+0x50>
1000356e:	9a0b      	ldr	r2, [sp, #44]	; 0x2c
10003570:	7013      	strb	r3, [r2, #0]
10003572:	7823      	ldrb	r3, [r4, #0]
10003574:	18e4      	adds	r4, r4, r3
10003576:	42bd      	cmp	r5, r7
10003578:	d1ea      	bne.n	10003550 <usbd_open_edpt_pair+0x84>
1000357a:	2001      	movs	r0, #1
1000357c:	e7bd      	b.n	100034fa <usbd_open_edpt_pair+0x2e>
1000357e:	46c0      	nop			; (mov r8, r8)
10003580:	20000efc 	.word	0x20000efc
10003584:	20001be0 	.word	0x20001be0

10003588 <usbd_defer_func>:
10003588:	b570      	push	{r4, r5, r6, lr}
1000358a:	b084      	sub	sp, #16
1000358c:	ac01      	add	r4, sp, #4
1000358e:	0006      	movs	r6, r0
10003590:	000d      	movs	r5, r1
10003592:	220c      	movs	r2, #12
10003594:	2100      	movs	r1, #0
10003596:	0020      	movs	r0, r4
10003598:	f7ff f81c 	bl	100025d4 <__wrap_memset>
1000359c:	2308      	movs	r3, #8
1000359e:	7063      	strb	r3, [r4, #1]
100035a0:	4b0d      	ldr	r3, [pc, #52]	; (100035d8 <usbd_defer_func+0x50>)
100035a2:	60a5      	str	r5, [r4, #8]
100035a4:	681d      	ldr	r5, [r3, #0]
100035a6:	6066      	str	r6, [r4, #4]
100035a8:	696a      	ldr	r2, [r5, #20]
100035aa:	f3ef 8310 	mrs	r3, PRIMASK
100035ae:	b672      	cpsid	i
100035b0:	6811      	ldr	r1, [r2, #0]
100035b2:	2900      	cmp	r1, #0
100035b4:	d0fc      	beq.n	100035b0 <usbd_defer_func+0x28>
100035b6:	f3bf 8f5f 	dmb	sy
100035ba:	61ab      	str	r3, [r5, #24]
100035bc:	0021      	movs	r1, r4
100035be:	0028      	movs	r0, r5
100035c0:	f001 facc 	bl	10004b5c <tu_fifo_write>
100035c4:	696a      	ldr	r2, [r5, #20]
100035c6:	69ab      	ldr	r3, [r5, #24]
100035c8:	f3bf 8f5f 	dmb	sy
100035cc:	2100      	movs	r1, #0
100035ce:	6011      	str	r1, [r2, #0]
100035d0:	f383 8810 	msr	PRIMASK, r3
100035d4:	b004      	add	sp, #16
100035d6:	bd70      	pop	{r4, r5, r6, pc}
100035d8:	20001c38 	.word	0x20001c38

100035dc <usbd_edpt_open>:
100035dc:	237f      	movs	r3, #127	; 0x7f
100035de:	b570      	push	{r4, r5, r6, lr}
100035e0:	788a      	ldrb	r2, [r1, #2]
100035e2:	000c      	movs	r4, r1
100035e4:	4013      	ands	r3, r2
100035e6:	2b0f      	cmp	r3, #15
100035e8:	d901      	bls.n	100035ee <usbd_edpt_open+0x12>
100035ea:	2000      	movs	r0, #0
100035ec:	bd70      	pop	{r4, r5, r6, pc}
100035ee:	4b07      	ldr	r3, [pc, #28]	; (1000360c <usbd_edpt_open+0x30>)
100035f0:	0020      	movs	r0, r4
100035f2:	781d      	ldrb	r5, [r3, #0]
100035f4:	4b06      	ldr	r3, [pc, #24]	; (10003610 <usbd_edpt_open+0x34>)
100035f6:	7899      	ldrb	r1, [r3, #2]
100035f8:	f001 f92c 	bl	10004854 <tu_edpt_validate>
100035fc:	2800      	cmp	r0, #0
100035fe:	d0f4      	beq.n	100035ea <usbd_edpt_open+0xe>
10003600:	0021      	movs	r1, r4
10003602:	0028      	movs	r0, r5
10003604:	f7ff fdb0 	bl	10003168 <dcd_edpt_open>
10003608:	e7f0      	b.n	100035ec <usbd_edpt_open+0x10>
1000360a:	46c0      	nop			; (mov r8, r8)
1000360c:	20000efc 	.word	0x20000efc
10003610:	20001be0 	.word	0x20001be0

10003614 <usbd_edpt_claim>:
10003614:	207f      	movs	r0, #127	; 0x7f
10003616:	4b07      	ldr	r3, [pc, #28]	; (10003634 <usbd_edpt_claim+0x20>)
10003618:	b510      	push	{r4, lr}
1000361a:	4008      	ands	r0, r1
1000361c:	0040      	lsls	r0, r0, #1
1000361e:	09c9      	lsrs	r1, r1, #7
10003620:	681a      	ldr	r2, [r3, #0]
10003622:	1840      	adds	r0, r0, r1
10003624:	4b04      	ldr	r3, [pc, #16]	; (10003638 <usbd_edpt_claim+0x24>)
10003626:	3033      	adds	r0, #51	; 0x33
10003628:	1818      	adds	r0, r3, r0
1000362a:	0011      	movs	r1, r2
1000362c:	f001 f8d4 	bl	100047d8 <tu_edpt_claim>
10003630:	bd10      	pop	{r4, pc}
10003632:	46c0      	nop			; (mov r8, r8)
10003634:	20001c34 	.word	0x20001c34
10003638:	20001be0 	.word	0x20001be0

1000363c <usbd_edpt_release>:
1000363c:	207f      	movs	r0, #127	; 0x7f
1000363e:	4b07      	ldr	r3, [pc, #28]	; (1000365c <usbd_edpt_release+0x20>)
10003640:	b510      	push	{r4, lr}
10003642:	4008      	ands	r0, r1
10003644:	0040      	lsls	r0, r0, #1
10003646:	09c9      	lsrs	r1, r1, #7
10003648:	681a      	ldr	r2, [r3, #0]
1000364a:	1840      	adds	r0, r0, r1
1000364c:	4b04      	ldr	r3, [pc, #16]	; (10003660 <usbd_edpt_release+0x24>)
1000364e:	3033      	adds	r0, #51	; 0x33
10003650:	1818      	adds	r0, r3, r0
10003652:	0011      	movs	r1, r2
10003654:	f001 f8e4 	bl	10004820 <tu_edpt_release>
10003658:	bd10      	pop	{r4, pc}
1000365a:	46c0      	nop			; (mov r8, r8)
1000365c:	20001c34 	.word	0x20001c34
10003660:	20001be0 	.word	0x20001be0

10003664 <usbd_edpt_xfer>:
10003664:	b570      	push	{r4, r5, r6, lr}
10003666:	247f      	movs	r4, #127	; 0x7f
10003668:	400c      	ands	r4, r1
1000366a:	0060      	lsls	r0, r4, #1
1000366c:	4c0e      	ldr	r4, [pc, #56]	; (100036a8 <usbd_edpt_xfer+0x44>)
1000366e:	09cd      	lsrs	r5, r1, #7
10003670:	1824      	adds	r4, r4, r0
10003672:	1964      	adds	r4, r4, r5
10003674:	3430      	adds	r4, #48	; 0x30
10003676:	78e5      	ldrb	r5, [r4, #3]
10003678:	2000      	movs	r0, #0
1000367a:	07ed      	lsls	r5, r5, #31
1000367c:	d500      	bpl.n	10003680 <usbd_edpt_xfer+0x1c>
1000367e:	bd70      	pop	{r4, r5, r6, pc}
10003680:	2601      	movs	r6, #1
10003682:	78e5      	ldrb	r5, [r4, #3]
10003684:	4809      	ldr	r0, [pc, #36]	; (100036ac <usbd_edpt_xfer+0x48>)
10003686:	4335      	orrs	r5, r6
10003688:	7800      	ldrb	r0, [r0, #0]
1000368a:	70e5      	strb	r5, [r4, #3]
1000368c:	f7ff fe02 	bl	10003294 <dcd_edpt_xfer>
10003690:	2800      	cmp	r0, #0
10003692:	d1f4      	bne.n	1000367e <usbd_edpt_xfer+0x1a>
10003694:	2201      	movs	r2, #1
10003696:	78e3      	ldrb	r3, [r4, #3]
10003698:	4393      	bics	r3, r2
1000369a:	70e3      	strb	r3, [r4, #3]
1000369c:	78e3      	ldrb	r3, [r4, #3]
1000369e:	3203      	adds	r2, #3
100036a0:	4393      	bics	r3, r2
100036a2:	70e3      	strb	r3, [r4, #3]
100036a4:	e7eb      	b.n	1000367e <usbd_edpt_xfer+0x1a>
100036a6:	46c0      	nop			; (mov r8, r8)
100036a8:	20001be0 	.word	0x20001be0
100036ac:	20000efc 	.word	0x20000efc

100036b0 <usbd_edpt_clear_stall>:
100036b0:	b510      	push	{r4, lr}
100036b2:	247f      	movs	r4, #127	; 0x7f
100036b4:	400c      	ands	r4, r1
100036b6:	0063      	lsls	r3, r4, #1
100036b8:	4c0a      	ldr	r4, [pc, #40]	; (100036e4 <usbd_edpt_clear_stall+0x34>)
100036ba:	09ca      	lsrs	r2, r1, #7
100036bc:	18e4      	adds	r4, r4, r3
100036be:	18a4      	adds	r4, r4, r2
100036c0:	3430      	adds	r4, #48	; 0x30
100036c2:	78e3      	ldrb	r3, [r4, #3]
100036c4:	079b      	lsls	r3, r3, #30
100036c6:	d50b      	bpl.n	100036e0 <usbd_edpt_clear_stall+0x30>
100036c8:	4b07      	ldr	r3, [pc, #28]	; (100036e8 <usbd_edpt_clear_stall+0x38>)
100036ca:	7818      	ldrb	r0, [r3, #0]
100036cc:	f7ff fe10 	bl	100032f0 <dcd_edpt_clear_stall>
100036d0:	2202      	movs	r2, #2
100036d2:	78e3      	ldrb	r3, [r4, #3]
100036d4:	4393      	bics	r3, r2
100036d6:	70e3      	strb	r3, [r4, #3]
100036d8:	78e3      	ldrb	r3, [r4, #3]
100036da:	3a01      	subs	r2, #1
100036dc:	4393      	bics	r3, r2
100036de:	70e3      	strb	r3, [r4, #3]
100036e0:	bd10      	pop	{r4, pc}
100036e2:	46c0      	nop			; (mov r8, r8)
100036e4:	20001be0 	.word	0x20001be0
100036e8:	20000efc 	.word	0x20000efc

100036ec <tud_task_ext>:
100036ec:	b5f0      	push	{r4, r5, r6, r7, lr}
100036ee:	46de      	mov	lr, fp
100036f0:	4657      	mov	r7, sl
100036f2:	464e      	mov	r6, r9
100036f4:	4645      	mov	r5, r8
100036f6:	b5e0      	push	{r5, r6, r7, lr}
100036f8:	b08b      	sub	sp, #44	; 0x2c
100036fa:	f001 f869 	bl	100047d0 <tusb_inited>
100036fe:	2800      	cmp	r0, #0
10003700:	d100      	bne.n	10003704 <tud_task_ext+0x18>
10003702:	e156      	b.n	100039b2 <tud_task_ext+0x2c6>
10003704:	4bc6      	ldr	r3, [pc, #792]	; (10003a20 <tud_task_ext+0x334>)
10003706:	4ec7      	ldr	r6, [pc, #796]	; (10003a24 <tud_task_ext+0x338>)
10003708:	469b      	mov	fp, r3
1000370a:	ad07      	add	r5, sp, #28
1000370c:	6834      	ldr	r4, [r6, #0]
1000370e:	6962      	ldr	r2, [r4, #20]
10003710:	f3ef 8110 	mrs	r1, PRIMASK
10003714:	b672      	cpsid	i
10003716:	6813      	ldr	r3, [r2, #0]
10003718:	2b00      	cmp	r3, #0
1000371a:	d0fc      	beq.n	10003716 <tud_task_ext+0x2a>
1000371c:	f3bf 8f5f 	dmb	sy
10003720:	61a1      	str	r1, [r4, #24]
10003722:	0020      	movs	r0, r4
10003724:	0029      	movs	r1, r5
10003726:	f001 f955 	bl	100049d4 <tu_fifo_read>
1000372a:	6962      	ldr	r2, [r4, #20]
1000372c:	69a3      	ldr	r3, [r4, #24]
1000372e:	f3bf 8f5f 	dmb	sy
10003732:	2100      	movs	r1, #0
10003734:	6011      	str	r1, [r2, #0]
10003736:	f383 8810 	msr	PRIMASK, r3
1000373a:	2800      	cmp	r0, #0
1000373c:	d100      	bne.n	10003740 <tud_task_ext+0x54>
1000373e:	e138      	b.n	100039b2 <tud_task_ext+0x2c6>
10003740:	786b      	ldrb	r3, [r5, #1]
10003742:	2b08      	cmp	r3, #8
10003744:	d8e2      	bhi.n	1000370c <tud_task_ext+0x20>
10003746:	4ab8      	ldr	r2, [pc, #736]	; (10003a28 <tud_task_ext+0x33c>)
10003748:	009b      	lsls	r3, r3, #2
1000374a:	58d3      	ldr	r3, [r2, r3]
1000374c:	469f      	mov	pc, r3
1000374e:	686b      	ldr	r3, [r5, #4]
10003750:	2b00      	cmp	r3, #0
10003752:	d0db      	beq.n	1000370c <tud_task_ext+0x20>
10003754:	68a8      	ldr	r0, [r5, #8]
10003756:	4798      	blx	r3
10003758:	e7d8      	b.n	1000370c <tud_task_ext+0x20>
1000375a:	237f      	movs	r3, #127	; 0x7f
1000375c:	7929      	ldrb	r1, [r5, #4]
1000375e:	4cb3      	ldr	r4, [pc, #716]	; (10003a2c <tud_task_ext+0x340>)
10003760:	400b      	ands	r3, r1
10003762:	0058      	lsls	r0, r3, #1
10003764:	09ca      	lsrs	r2, r1, #7
10003766:	1824      	adds	r4, r4, r0
10003768:	18a4      	adds	r4, r4, r2
1000376a:	0022      	movs	r2, r4
1000376c:	2701      	movs	r7, #1
1000376e:	3230      	adds	r2, #48	; 0x30
10003770:	78d0      	ldrb	r0, [r2, #3]
10003772:	43b8      	bics	r0, r7
10003774:	70d0      	strb	r0, [r2, #3]
10003776:	78d0      	ldrb	r0, [r2, #3]
10003778:	3703      	adds	r7, #3
1000377a:	43b8      	bics	r0, r7
1000377c:	70d0      	strb	r0, [r2, #3]
1000377e:	2b00      	cmp	r3, #0
10003780:	d100      	bne.n	10003784 <tud_task_ext+0x98>
10003782:	e13f      	b.n	10003a04 <tud_task_ext+0x318>
10003784:	4aaa      	ldr	r2, [pc, #680]	; (10003a30 <tud_task_ext+0x344>)
10003786:	7ce3      	ldrb	r3, [r4, #19]
10003788:	2a00      	cmp	r2, #0
1000378a:	d100      	bne.n	1000378e <tud_task_ext+0xa2>
1000378c:	e126      	b.n	100039dc <tud_task_ext+0x2f0>
1000378e:	4aa9      	ldr	r2, [pc, #676]	; (10003a34 <tud_task_ext+0x348>)
10003790:	7812      	ldrb	r2, [r2, #0]
10003792:	4293      	cmp	r3, r2
10003794:	d300      	bcc.n	10003798 <tud_task_ext+0xac>
10003796:	e11f      	b.n	100039d8 <tud_task_ext+0x2ec>
10003798:	005a      	lsls	r2, r3, #1
1000379a:	18d3      	adds	r3, r2, r3
1000379c:	4aa6      	ldr	r2, [pc, #664]	; (10003a38 <tud_task_ext+0x34c>)
1000379e:	00db      	lsls	r3, r3, #3
100037a0:	6812      	ldr	r2, [r2, #0]
100037a2:	18d3      	adds	r3, r2, r3
100037a4:	2b00      	cmp	r3, #0
100037a6:	d100      	bne.n	100037aa <tud_task_ext+0xbe>
100037a8:	e103      	b.n	100039b2 <tud_task_ext+0x2c6>
100037aa:	691c      	ldr	r4, [r3, #16]
100037ac:	e119      	b.n	100039e2 <tud_task_ext+0x2f6>
100037ae:	2201      	movs	r2, #1
100037b0:	4c9e      	ldr	r4, [pc, #632]	; (10003a2c <tud_task_ext+0x340>)
100037b2:	2101      	movs	r1, #1
100037b4:	7823      	ldrb	r3, [r4, #0]
100037b6:	2004      	movs	r0, #4
100037b8:	4313      	orrs	r3, r2
100037ba:	7023      	strb	r3, [r4, #0]
100037bc:	2333      	movs	r3, #51	; 0x33
100037be:	5ce2      	ldrb	r2, [r4, r3]
100037c0:	438a      	bics	r2, r1
100037c2:	54e2      	strb	r2, [r4, r3]
100037c4:	5ce2      	ldrb	r2, [r4, r3]
100037c6:	4382      	bics	r2, r0
100037c8:	54e2      	strb	r2, [r4, r3]
100037ca:	3301      	adds	r3, #1
100037cc:	5ce2      	ldrb	r2, [r4, r3]
100037ce:	438a      	bics	r2, r1
100037d0:	54e2      	strb	r2, [r4, r3]
100037d2:	5ce2      	ldrb	r2, [r4, r3]
100037d4:	4382      	bics	r2, r0
100037d6:	54e2      	strb	r2, [r4, r3]
100037d8:	782b      	ldrb	r3, [r5, #0]
100037da:	2000      	movs	r0, #0
100037dc:	469a      	mov	sl, r3
100037de:	f000 fc6f 	bl	100040c0 <usbd_control_set_complete_callback>
100037e2:	792b      	ldrb	r3, [r5, #4]
100037e4:	065a      	lsls	r2, r3, #25
100037e6:	0f92      	lsrs	r2, r2, #30
100037e8:	2a03      	cmp	r2, #3
100037ea:	d100      	bne.n	100037ee <tud_task_ext+0x102>
100037ec:	e101      	b.n	100039f2 <tud_task_ext+0x306>
100037ee:	2260      	movs	r2, #96	; 0x60
100037f0:	401a      	ands	r2, r3
100037f2:	2a40      	cmp	r2, #64	; 0x40
100037f4:	d100      	bne.n	100037f8 <tud_task_ext+0x10c>
100037f6:	e0f9      	b.n	100039ec <tud_task_ext+0x300>
100037f8:	06db      	lsls	r3, r3, #27
100037fa:	0edb      	lsrs	r3, r3, #27
100037fc:	2b01      	cmp	r3, #1
100037fe:	d100      	bne.n	10003802 <tud_task_ext+0x116>
10003800:	e133      	b.n	10003a6a <tud_task_ext+0x37e>
10003802:	2b00      	cmp	r3, #0
10003804:	d100      	bne.n	10003808 <tud_task_ext+0x11c>
10003806:	e146      	b.n	10003a96 <tud_task_ext+0x3aa>
10003808:	2b02      	cmp	r3, #2
1000380a:	d000      	beq.n	1000380e <tud_task_ext+0x122>
1000380c:	e0f1      	b.n	100039f2 <tud_task_ext+0x306>
1000380e:	237f      	movs	r3, #127	; 0x7f
10003810:	8928      	ldrh	r0, [r5, #8]
10003812:	b2c1      	uxtb	r1, r0
10003814:	400b      	ands	r3, r1
10003816:	2b0f      	cmp	r3, #15
10003818:	d900      	bls.n	1000381c <tud_task_ext+0x130>
1000381a:	e0ea      	b.n	100039f2 <tud_task_ext+0x306>
1000381c:	005b      	lsls	r3, r3, #1
1000381e:	b240      	sxtb	r0, r0
10003820:	18e7      	adds	r7, r4, r3
10003822:	0fc0      	lsrs	r0, r0, #31
10003824:	4698      	mov	r8, r3
10003826:	4b82      	ldr	r3, [pc, #520]	; (10003a30 <tud_task_ext+0x344>)
10003828:	183f      	adds	r7, r7, r0
1000382a:	7cff      	ldrb	r7, [r7, #19]
1000382c:	2b00      	cmp	r3, #0
1000382e:	d100      	bne.n	10003832 <tud_task_ext+0x146>
10003830:	e162      	b.n	10003af8 <tud_task_ext+0x40c>
10003832:	4b80      	ldr	r3, [pc, #512]	; (10003a34 <tud_task_ext+0x348>)
10003834:	781b      	ldrb	r3, [r3, #0]
10003836:	429f      	cmp	r7, r3
10003838:	d300      	bcc.n	1000383c <tud_task_ext+0x150>
1000383a:	e15b      	b.n	10003af4 <tud_task_ext+0x408>
1000383c:	007b      	lsls	r3, r7, #1
1000383e:	469c      	mov	ip, r3
10003840:	4b7d      	ldr	r3, [pc, #500]	; (10003a38 <tud_task_ext+0x34c>)
10003842:	4467      	add	r7, ip
10003844:	681b      	ldr	r3, [r3, #0]
10003846:	00ff      	lsls	r7, r7, #3
10003848:	469c      	mov	ip, r3
1000384a:	4467      	add	r7, ip
1000384c:	2a00      	cmp	r2, #0
1000384e:	d100      	bne.n	10003852 <tud_task_ext+0x166>
10003850:	e158      	b.n	10003b04 <tud_task_ext+0x418>
10003852:	2f00      	cmp	r7, #0
10003854:	d100      	bne.n	10003858 <tud_task_ext+0x16c>
10003856:	e0cc      	b.n	100039f2 <tud_task_ext+0x306>
10003858:	68f8      	ldr	r0, [r7, #12]
1000385a:	f000 fc31 	bl	100040c0 <usbd_control_set_complete_callback>
1000385e:	68fb      	ldr	r3, [r7, #12]
10003860:	aa08      	add	r2, sp, #32
10003862:	2101      	movs	r1, #1
10003864:	4650      	mov	r0, sl
10003866:	4798      	blx	r3
10003868:	e0fb      	b.n	10003a62 <tud_task_ext+0x376>
1000386a:	4c70      	ldr	r4, [pc, #448]	; (10003a2c <tud_task_ext+0x340>)
1000386c:	7823      	ldrb	r3, [r4, #0]
1000386e:	07db      	lsls	r3, r3, #31
10003870:	d400      	bmi.n	10003874 <tud_task_ext+0x188>
10003872:	e74b      	b.n	1000370c <tud_task_ext+0x20>
10003874:	4b71      	ldr	r3, [pc, #452]	; (10003a3c <tud_task_ext+0x350>)
10003876:	2b00      	cmp	r3, #0
10003878:	d100      	bne.n	1000387c <tud_task_ext+0x190>
1000387a:	e747      	b.n	1000370c <tud_task_ext+0x20>
1000387c:	e000      	b.n	10003880 <tud_task_ext+0x194>
1000387e:	bf00      	nop
10003880:	e744      	b.n	1000370c <tud_task_ext+0x20>
10003882:	4c6a      	ldr	r4, [pc, #424]	; (10003a2c <tud_task_ext+0x340>)
10003884:	7823      	ldrb	r3, [r4, #0]
10003886:	07db      	lsls	r3, r3, #31
10003888:	d400      	bmi.n	1000388c <tud_task_ext+0x1a0>
1000388a:	e73f      	b.n	1000370c <tud_task_ext+0x20>
1000388c:	4b6c      	ldr	r3, [pc, #432]	; (10003a40 <tud_task_ext+0x354>)
1000388e:	2b00      	cmp	r3, #0
10003890:	d100      	bne.n	10003894 <tud_task_ext+0x1a8>
10003892:	e73b      	b.n	1000370c <tud_task_ext+0x20>
10003894:	7820      	ldrb	r0, [r4, #0]
10003896:	0700      	lsls	r0, r0, #28
10003898:	0fc0      	lsrs	r0, r0, #31
1000389a:	e000      	b.n	1000389e <tud_task_ext+0x1b2>
1000389c:	bf00      	nop
1000389e:	e735      	b.n	1000370c <tud_task_ext+0x20>
100038a0:	782b      	ldrb	r3, [r5, #0]
100038a2:	4f64      	ldr	r7, [pc, #400]	; (10003a34 <tud_task_ext+0x348>)
100038a4:	4a62      	ldr	r2, [pc, #392]	; (10003a30 <tud_task_ext+0x344>)
100038a6:	4698      	mov	r8, r3
100038a8:	2400      	movs	r4, #0
100038aa:	783b      	ldrb	r3, [r7, #0]
100038ac:	2a00      	cmp	r2, #0
100038ae:	d100      	bne.n	100038b2 <tud_task_ext+0x1c6>
100038b0:	e0ae      	b.n	10003a10 <tud_task_ext+0x324>
100038b2:	4a61      	ldr	r2, [pc, #388]	; (10003a38 <tud_task_ext+0x34c>)
100038b4:	4692      	mov	sl, r2
100038b6:	4a63      	ldr	r2, [pc, #396]	; (10003a44 <tud_task_ext+0x358>)
100038b8:	4691      	mov	r9, r2
100038ba:	003a      	movs	r2, r7
100038bc:	4647      	mov	r7, r8
100038be:	4690      	mov	r8, r2
100038c0:	e011      	b.n	100038e6 <tud_task_ext+0x1fa>
100038c2:	4652      	mov	r2, sl
100038c4:	6812      	ldr	r2, [r2, #0]
100038c6:	0063      	lsls	r3, r4, #1
100038c8:	4694      	mov	ip, r2
100038ca:	191b      	adds	r3, r3, r4
100038cc:	00db      	lsls	r3, r3, #3
100038ce:	4463      	add	r3, ip
100038d0:	2b00      	cmp	r3, #0
100038d2:	d025      	beq.n	10003920 <tud_task_ext+0x234>
100038d4:	685b      	ldr	r3, [r3, #4]
100038d6:	0038      	movs	r0, r7
100038d8:	4798      	blx	r3
100038da:	4643      	mov	r3, r8
100038dc:	3401      	adds	r4, #1
100038de:	781b      	ldrb	r3, [r3, #0]
100038e0:	b2e4      	uxtb	r4, r4
100038e2:	42a3      	cmp	r3, r4
100038e4:	db0b      	blt.n	100038fe <tud_task_ext+0x212>
100038e6:	42a3      	cmp	r3, r4
100038e8:	d8eb      	bhi.n	100038c2 <tud_task_ext+0x1d6>
100038ea:	d119      	bne.n	10003920 <tud_task_ext+0x234>
100038ec:	464b      	mov	r3, r9
100038ee:	0038      	movs	r0, r7
100038f0:	4798      	blx	r3
100038f2:	4643      	mov	r3, r8
100038f4:	3401      	adds	r4, #1
100038f6:	781b      	ldrb	r3, [r3, #0]
100038f8:	b2e4      	uxtb	r4, r4
100038fa:	42a3      	cmp	r3, r4
100038fc:	daf3      	bge.n	100038e6 <tud_task_ext+0x1fa>
100038fe:	4c4b      	ldr	r4, [pc, #300]	; (10003a2c <tud_task_ext+0x340>)
10003900:	2253      	movs	r2, #83	; 0x53
10003902:	2100      	movs	r1, #0
10003904:	0020      	movs	r0, r4
10003906:	f7fe fe65 	bl	100025d4 <__wrap_memset>
1000390a:	2210      	movs	r2, #16
1000390c:	21ff      	movs	r1, #255	; 0xff
1000390e:	1ce0      	adds	r0, r4, #3
10003910:	f7fe fe60 	bl	100025d4 <__wrap_memset>
10003914:	0020      	movs	r0, r4
10003916:	2220      	movs	r2, #32
10003918:	3013      	adds	r0, #19
1000391a:	21ff      	movs	r1, #255	; 0xff
1000391c:	f7fe fe5a 	bl	100025d4 <__wrap_memset>
10003920:	f000 fbc4 	bl	100040ac <usbd_control_reset>
10003924:	4b48      	ldr	r3, [pc, #288]	; (10003a48 <tud_task_ext+0x35c>)
10003926:	2b00      	cmp	r3, #0
10003928:	d100      	bne.n	1000392c <tud_task_ext+0x240>
1000392a:	e6ef      	b.n	1000370c <tud_task_ext+0x20>
1000392c:	e000      	b.n	10003930 <tud_task_ext+0x244>
1000392e:	bf00      	nop
10003930:	e6ec      	b.n	1000370c <tud_task_ext+0x20>
10003932:	782b      	ldrb	r3, [r5, #0]
10003934:	4f3f      	ldr	r7, [pc, #252]	; (10003a34 <tud_task_ext+0x348>)
10003936:	4a3e      	ldr	r2, [pc, #248]	; (10003a30 <tud_task_ext+0x344>)
10003938:	4698      	mov	r8, r3
1000393a:	2400      	movs	r4, #0
1000393c:	783b      	ldrb	r3, [r7, #0]
1000393e:	2a00      	cmp	r2, #0
10003940:	d03e      	beq.n	100039c0 <tud_task_ext+0x2d4>
10003942:	4a3d      	ldr	r2, [pc, #244]	; (10003a38 <tud_task_ext+0x34c>)
10003944:	4692      	mov	sl, r2
10003946:	4a3f      	ldr	r2, [pc, #252]	; (10003a44 <tud_task_ext+0x358>)
10003948:	4691      	mov	r9, r2
1000394a:	003a      	movs	r2, r7
1000394c:	4647      	mov	r7, r8
1000394e:	4690      	mov	r8, r2
10003950:	e011      	b.n	10003976 <tud_task_ext+0x28a>
10003952:	4652      	mov	r2, sl
10003954:	6812      	ldr	r2, [r2, #0]
10003956:	0063      	lsls	r3, r4, #1
10003958:	4694      	mov	ip, r2
1000395a:	191b      	adds	r3, r3, r4
1000395c:	00db      	lsls	r3, r3, #3
1000395e:	4463      	add	r3, ip
10003960:	2b00      	cmp	r3, #0
10003962:	d033      	beq.n	100039cc <tud_task_ext+0x2e0>
10003964:	685b      	ldr	r3, [r3, #4]
10003966:	0038      	movs	r0, r7
10003968:	4798      	blx	r3
1000396a:	4643      	mov	r3, r8
1000396c:	3401      	adds	r4, #1
1000396e:	781b      	ldrb	r3, [r3, #0]
10003970:	b2e4      	uxtb	r4, r4
10003972:	42a3      	cmp	r3, r4
10003974:	db0b      	blt.n	1000398e <tud_task_ext+0x2a2>
10003976:	42a3      	cmp	r3, r4
10003978:	d8eb      	bhi.n	10003952 <tud_task_ext+0x266>
1000397a:	d127      	bne.n	100039cc <tud_task_ext+0x2e0>
1000397c:	464b      	mov	r3, r9
1000397e:	0038      	movs	r0, r7
10003980:	4798      	blx	r3
10003982:	4643      	mov	r3, r8
10003984:	3401      	adds	r4, #1
10003986:	781b      	ldrb	r3, [r3, #0]
10003988:	b2e4      	uxtb	r4, r4
1000398a:	42a3      	cmp	r3, r4
1000398c:	daf3      	bge.n	10003976 <tud_task_ext+0x28a>
1000398e:	4c27      	ldr	r4, [pc, #156]	; (10003a2c <tud_task_ext+0x340>)
10003990:	2253      	movs	r2, #83	; 0x53
10003992:	2100      	movs	r1, #0
10003994:	0020      	movs	r0, r4
10003996:	f7fe fe1d 	bl	100025d4 <__wrap_memset>
1000399a:	1ce0      	adds	r0, r4, #3
1000399c:	2210      	movs	r2, #16
1000399e:	21ff      	movs	r1, #255	; 0xff
100039a0:	f7fe fe18 	bl	100025d4 <__wrap_memset>
100039a4:	0020      	movs	r0, r4
100039a6:	2220      	movs	r2, #32
100039a8:	21ff      	movs	r1, #255	; 0xff
100039aa:	3013      	adds	r0, #19
100039ac:	f7fe fe12 	bl	100025d4 <__wrap_memset>
100039b0:	e00d      	b.n	100039ce <tud_task_ext+0x2e2>
100039b2:	b00b      	add	sp, #44	; 0x2c
100039b4:	bc3c      	pop	{r2, r3, r4, r5}
100039b6:	4690      	mov	r8, r2
100039b8:	4699      	mov	r9, r3
100039ba:	46a2      	mov	sl, r4
100039bc:	46ab      	mov	fp, r5
100039be:	bdf0      	pop	{r4, r5, r6, r7, pc}
100039c0:	4640      	mov	r0, r8
100039c2:	f000 fd3b 	bl	1000443c <cdcd_reset>
100039c6:	783b      	ldrb	r3, [r7, #0]
100039c8:	2b00      	cmp	r3, #0
100039ca:	d0e0      	beq.n	1000398e <tud_task_ext+0x2a2>
100039cc:	4c17      	ldr	r4, [pc, #92]	; (10003a2c <tud_task_ext+0x340>)
100039ce:	f000 fb6d 	bl	100040ac <usbd_control_reset>
100039d2:	792b      	ldrb	r3, [r5, #4]
100039d4:	70a3      	strb	r3, [r4, #2]
100039d6:	e699      	b.n	1000370c <tud_task_ext+0x20>
100039d8:	1a9b      	subs	r3, r3, r2
100039da:	b2db      	uxtb	r3, r3
100039dc:	2b00      	cmp	r3, #0
100039de:	d1e8      	bne.n	100039b2 <tud_task_ext+0x2c6>
100039e0:	4c1a      	ldr	r4, [pc, #104]	; (10003a4c <tud_task_ext+0x360>)
100039e2:	796a      	ldrb	r2, [r5, #5]
100039e4:	7828      	ldrb	r0, [r5, #0]
100039e6:	68ab      	ldr	r3, [r5, #8]
100039e8:	47a0      	blx	r4
100039ea:	e68f      	b.n	1000370c <tud_task_ext+0x20>
100039ec:	4818      	ldr	r0, [pc, #96]	; (10003a50 <tud_task_ext+0x364>)
100039ee:	2800      	cmp	r0, #0
100039f0:	d130      	bne.n	10003a54 <tud_task_ext+0x368>
100039f2:	7828      	ldrb	r0, [r5, #0]
100039f4:	2100      	movs	r1, #0
100039f6:	f7ff fc5f 	bl	100032b8 <dcd_edpt_stall>
100039fa:	7828      	ldrb	r0, [r5, #0]
100039fc:	2180      	movs	r1, #128	; 0x80
100039fe:	f7ff fc5b 	bl	100032b8 <dcd_edpt_stall>
10003a02:	e683      	b.n	1000370c <tud_task_ext+0x20>
10003a04:	796a      	ldrb	r2, [r5, #5]
10003a06:	7828      	ldrb	r0, [r5, #0]
10003a08:	68ab      	ldr	r3, [r5, #8]
10003a0a:	f000 fb6d 	bl	100040e8 <usbd_control_xfer_cb>
10003a0e:	e67d      	b.n	1000370c <tud_task_ext+0x20>
10003a10:	4640      	mov	r0, r8
10003a12:	f000 fd13 	bl	1000443c <cdcd_reset>
10003a16:	783b      	ldrb	r3, [r7, #0]
10003a18:	2b00      	cmp	r3, #0
10003a1a:	d000      	beq.n	10003a1e <tud_task_ext+0x332>
10003a1c:	e780      	b.n	10003920 <tud_task_ext+0x234>
10003a1e:	e76e      	b.n	100038fe <tud_task_ext+0x212>
10003a20:	100062a0 	.word	0x100062a0
10003a24:	20001c38 	.word	0x20001c38
10003a28:	10006214 	.word	0x10006214
10003a2c:	20001be0 	.word	0x20001be0
10003a30:	10002a1d 	.word	0x10002a1d
10003a34:	20002255 	.word	0x20002255
10003a38:	200018b8 	.word	0x200018b8
	...
10003a44:	1000443d 	.word	0x1000443d
10003a48:	00000000 	.word	0x00000000
10003a4c:	10004631 	.word	0x10004631
10003a50:	00000000 	.word	0x00000000
10003a54:	f000 fb34 	bl	100040c0 <usbd_control_set_complete_callback>
10003a58:	aa08      	add	r2, sp, #32
10003a5a:	2101      	movs	r1, #1
10003a5c:	4650      	mov	r0, sl
10003a5e:	e000      	b.n	10003a62 <tud_task_ext+0x376>
10003a60:	bf00      	nop
10003a62:	2800      	cmp	r0, #0
10003a64:	d000      	beq.n	10003a68 <tud_task_ext+0x37c>
10003a66:	e651      	b.n	1000370c <tud_task_ext+0x20>
10003a68:	e7c3      	b.n	100039f2 <tud_task_ext+0x306>
10003a6a:	7a28      	ldrb	r0, [r5, #8]
10003a6c:	280f      	cmp	r0, #15
10003a6e:	d8c0      	bhi.n	100039f2 <tud_task_ext+0x306>
10003a70:	4ab8      	ldr	r2, [pc, #736]	; (10003d54 <tud_task_ext+0x668>)
10003a72:	1820      	adds	r0, r4, r0
10003a74:	78c3      	ldrb	r3, [r0, #3]
10003a76:	2a00      	cmp	r2, #0
10003a78:	d01b      	beq.n	10003ab2 <tud_task_ext+0x3c6>
10003a7a:	4ab7      	ldr	r2, [pc, #732]	; (10003d58 <tud_task_ext+0x66c>)
10003a7c:	7812      	ldrb	r2, [r2, #0]
10003a7e:	4293      	cmp	r3, r2
10003a80:	d215      	bcs.n	10003aae <tud_task_ext+0x3c2>
10003a82:	4ab6      	ldr	r2, [pc, #728]	; (10003d5c <tud_task_ext+0x670>)
10003a84:	005c      	lsls	r4, r3, #1
10003a86:	18e3      	adds	r3, r4, r3
10003a88:	6814      	ldr	r4, [r2, #0]
10003a8a:	00db      	lsls	r3, r3, #3
10003a8c:	18e4      	adds	r4, r4, r3
10003a8e:	2c00      	cmp	r4, #0
10003a90:	d0af      	beq.n	100039f2 <tud_task_ext+0x306>
10003a92:	68e0      	ldr	r0, [r4, #12]
10003a94:	e011      	b.n	10003aba <tud_task_ext+0x3ce>
10003a96:	2a20      	cmp	r2, #32
10003a98:	d100      	bne.n	10003a9c <tud_task_ext+0x3b0>
10003a9a:	e11d      	b.n	10003cd8 <tud_task_ext+0x5ec>
10003a9c:	2a00      	cmp	r2, #0
10003a9e:	d1a8      	bne.n	100039f2 <tud_task_ext+0x306>
10003aa0:	796b      	ldrb	r3, [r5, #5]
10003aa2:	2b09      	cmp	r3, #9
10003aa4:	d8a5      	bhi.n	100039f2 <tud_task_ext+0x306>
10003aa6:	4aae      	ldr	r2, [pc, #696]	; (10003d60 <tud_task_ext+0x674>)
10003aa8:	009b      	lsls	r3, r3, #2
10003aaa:	58d3      	ldr	r3, [r2, r3]
10003aac:	469f      	mov	pc, r3
10003aae:	1a9b      	subs	r3, r3, r2
10003ab0:	b2db      	uxtb	r3, r3
10003ab2:	2b00      	cmp	r3, #0
10003ab4:	d19d      	bne.n	100039f2 <tud_task_ext+0x306>
10003ab6:	48ab      	ldr	r0, [pc, #684]	; (10003d64 <tud_task_ext+0x678>)
10003ab8:	4cab      	ldr	r4, [pc, #684]	; (10003d68 <tud_task_ext+0x67c>)
10003aba:	f000 fb01 	bl	100040c0 <usbd_control_set_complete_callback>
10003abe:	68e3      	ldr	r3, [r4, #12]
10003ac0:	aa08      	add	r2, sp, #32
10003ac2:	2101      	movs	r1, #1
10003ac4:	4650      	mov	r0, sl
10003ac6:	4798      	blx	r3
10003ac8:	2800      	cmp	r0, #0
10003aca:	d000      	beq.n	10003ace <tud_task_ext+0x3e2>
10003acc:	e61e      	b.n	1000370c <tud_task_ext+0x20>
10003ace:	2460      	movs	r4, #96	; 0x60
10003ad0:	792b      	ldrb	r3, [r5, #4]
10003ad2:	401c      	ands	r4, r3
10003ad4:	d18d      	bne.n	100039f2 <tud_task_ext+0x306>
10003ad6:	796b      	ldrb	r3, [r5, #5]
10003ad8:	3b0a      	subs	r3, #10
10003ada:	2b01      	cmp	r3, #1
10003adc:	d889      	bhi.n	100039f2 <tud_task_ext+0x306>
10003ade:	f000 faef 	bl	100040c0 <usbd_control_set_complete_callback>
10003ae2:	796b      	ldrb	r3, [r5, #5]
10003ae4:	2b0a      	cmp	r3, #10
10003ae6:	d100      	bne.n	10003aea <tud_task_ext+0x3fe>
10003ae8:	e12a      	b.n	10003d40 <tud_task_ext+0x654>
10003aea:	a908      	add	r1, sp, #32
10003aec:	4650      	mov	r0, sl
10003aee:	f000 fa6f 	bl	10003fd0 <tud_control_status>
10003af2:	e60b      	b.n	1000370c <tud_task_ext+0x20>
10003af4:	1aff      	subs	r7, r7, r3
10003af6:	b2ff      	uxtb	r7, r7
10003af8:	2f00      	cmp	r7, #0
10003afa:	d03f      	beq.n	10003b7c <tud_task_ext+0x490>
10003afc:	2700      	movs	r7, #0
10003afe:	2a00      	cmp	r2, #0
10003b00:	d000      	beq.n	10003b04 <tud_task_ext+0x418>
10003b02:	e776      	b.n	100039f2 <tud_task_ext+0x306>
10003b04:	796a      	ldrb	r2, [r5, #5]
10003b06:	2a01      	cmp	r2, #1
10003b08:	d005      	beq.n	10003b16 <tud_task_ext+0x42a>
10003b0a:	2a00      	cmp	r2, #0
10003b0c:	d100      	bne.n	10003b10 <tud_task_ext+0x424>
10003b0e:	e102      	b.n	10003d16 <tud_task_ext+0x62a>
10003b10:	2a03      	cmp	r2, #3
10003b12:	d000      	beq.n	10003b16 <tud_task_ext+0x42a>
10003b14:	e76d      	b.n	100039f2 <tud_task_ext+0x306>
10003b16:	88eb      	ldrh	r3, [r5, #6]
10003b18:	2b00      	cmp	r3, #0
10003b1a:	d11b      	bne.n	10003b54 <tud_task_ext+0x468>
10003b1c:	2a01      	cmp	r2, #1
10003b1e:	d100      	bne.n	10003b22 <tud_task_ext+0x436>
10003b20:	e199      	b.n	10003e56 <tud_task_ext+0x76a>
10003b22:	4643      	mov	r3, r8
10003b24:	18e3      	adds	r3, r4, r3
10003b26:	1818      	adds	r0, r3, r0
10003b28:	2330      	movs	r3, #48	; 0x30
10003b2a:	4698      	mov	r8, r3
10003b2c:	4480      	add	r8, r0
10003b2e:	4643      	mov	r3, r8
10003b30:	78db      	ldrb	r3, [r3, #3]
10003b32:	079b      	lsls	r3, r3, #30
10003b34:	d40e      	bmi.n	10003b54 <tud_task_ext+0x468>
10003b36:	4b8d      	ldr	r3, [pc, #564]	; (10003d6c <tud_task_ext+0x680>)
10003b38:	7818      	ldrb	r0, [r3, #0]
10003b3a:	f7ff fbbd 	bl	100032b8 <dcd_edpt_stall>
10003b3e:	4643      	mov	r3, r8
10003b40:	2202      	movs	r2, #2
10003b42:	78db      	ldrb	r3, [r3, #3]
10003b44:	4313      	orrs	r3, r2
10003b46:	4642      	mov	r2, r8
10003b48:	70d3      	strb	r3, [r2, #3]
10003b4a:	78d3      	ldrb	r3, [r2, #3]
10003b4c:	2201      	movs	r2, #1
10003b4e:	4313      	orrs	r3, r2
10003b50:	4642      	mov	r2, r8
10003b52:	70d3      	strb	r3, [r2, #3]
10003b54:	2f00      	cmp	r7, #0
10003b56:	d100      	bne.n	10003b5a <tud_task_ext+0x46e>
10003b58:	e5d8      	b.n	1000370c <tud_task_ext+0x20>
10003b5a:	68f8      	ldr	r0, [r7, #12]
10003b5c:	f000 fab0 	bl	100040c0 <usbd_control_set_complete_callback>
10003b60:	68fb      	ldr	r3, [r7, #12]
10003b62:	aa08      	add	r2, sp, #32
10003b64:	2101      	movs	r1, #1
10003b66:	4650      	mov	r0, sl
10003b68:	4798      	blx	r3
10003b6a:	2000      	movs	r0, #0
10003b6c:	f000 faa8 	bl	100040c0 <usbd_control_set_complete_callback>
10003b70:	2334      	movs	r3, #52	; 0x34
10003b72:	5ce3      	ldrb	r3, [r4, r3]
10003b74:	07db      	lsls	r3, r3, #31
10003b76:	d500      	bpl.n	10003b7a <tud_task_ext+0x48e>
10003b78:	e5c8      	b.n	1000370c <tud_task_ext+0x20>
10003b7a:	e7b6      	b.n	10003aea <tud_task_ext+0x3fe>
10003b7c:	2a00      	cmp	r2, #0
10003b7e:	d000      	beq.n	10003b82 <tud_task_ext+0x496>
10003b80:	e0db      	b.n	10003d3a <tud_task_ext+0x64e>
10003b82:	4f79      	ldr	r7, [pc, #484]	; (10003d68 <tud_task_ext+0x67c>)
10003b84:	e7be      	b.n	10003b04 <tud_task_ext+0x418>
10003b86:	79ab      	ldrb	r3, [r5, #6]
10003b88:	9301      	str	r3, [sp, #4]
10003b8a:	001a      	movs	r2, r3
10003b8c:	7863      	ldrb	r3, [r4, #1]
10003b8e:	429a      	cmp	r2, r3
10003b90:	d007      	beq.n	10003ba2 <tud_task_ext+0x4b6>
10003b92:	7863      	ldrb	r3, [r4, #1]
10003b94:	2b00      	cmp	r3, #0
10003b96:	d000      	beq.n	10003b9a <tud_task_ext+0x4ae>
10003b98:	e161      	b.n	10003e5e <tud_task_ext+0x772>
10003b9a:	9b01      	ldr	r3, [sp, #4]
10003b9c:	2b00      	cmp	r3, #0
10003b9e:	d000      	beq.n	10003ba2 <tud_task_ext+0x4b6>
10003ba0:	e0ee      	b.n	10003d80 <tud_task_ext+0x694>
10003ba2:	466b      	mov	r3, sp
10003ba4:	791b      	ldrb	r3, [r3, #4]
10003ba6:	a908      	add	r1, sp, #32
10003ba8:	4650      	mov	r0, sl
10003baa:	7063      	strb	r3, [r4, #1]
10003bac:	f000 fa10 	bl	10003fd0 <tud_control_status>
10003bb0:	e5ac      	b.n	1000370c <tud_task_ext+0x20>
10003bb2:	7863      	ldrb	r3, [r4, #1]
10003bb4:	aa06      	add	r2, sp, #24
10003bb6:	3202      	adds	r2, #2
10003bb8:	7013      	strb	r3, [r2, #0]
10003bba:	a908      	add	r1, sp, #32
10003bbc:	2301      	movs	r3, #1
10003bbe:	4650      	mov	r0, sl
10003bc0:	f000 fa1e 	bl	10004000 <tud_control_xfer>
10003bc4:	e5a2      	b.n	1000370c <tud_task_ext+0x20>
10003bc6:	7823      	ldrb	r3, [r4, #0]
10003bc8:	aa06      	add	r2, sp, #24
10003bca:	0699      	lsls	r1, r3, #26
10003bcc:	071b      	lsls	r3, r3, #28
10003bce:	0fdb      	lsrs	r3, r3, #31
10003bd0:	0fc9      	lsrs	r1, r1, #31
10003bd2:	005b      	lsls	r3, r3, #1
10003bd4:	3202      	adds	r2, #2
10003bd6:	430b      	orrs	r3, r1
10003bd8:	8013      	strh	r3, [r2, #0]
10003bda:	a908      	add	r1, sp, #32
10003bdc:	2302      	movs	r3, #2
10003bde:	4650      	mov	r0, sl
10003be0:	f000 fa0e 	bl	10004000 <tud_control_xfer>
10003be4:	e592      	b.n	1000370c <tud_task_ext+0x20>
10003be6:	88e8      	ldrh	r0, [r5, #6]
10003be8:	0a03      	lsrs	r3, r0, #8
10003bea:	b2c0      	uxtb	r0, r0
10003bec:	2b0f      	cmp	r3, #15
10003bee:	d900      	bls.n	10003bf2 <tud_task_ext+0x506>
10003bf0:	e6ff      	b.n	100039f2 <tud_task_ext+0x306>
10003bf2:	495f      	ldr	r1, [pc, #380]	; (10003d70 <tud_task_ext+0x684>)
10003bf4:	009a      	lsls	r2, r3, #2
10003bf6:	588a      	ldr	r2, [r1, r2]
10003bf8:	4697      	mov	pc, r2
10003bfa:	a808      	add	r0, sp, #32
10003bfc:	f000 fa66 	bl	100040cc <usbd_control_set_request>
10003c00:	79a9      	ldrb	r1, [r5, #6]
10003c02:	4650      	mov	r0, sl
10003c04:	f7ff fa44 	bl	10003090 <dcd_set_address>
10003c08:	2202      	movs	r2, #2
10003c0a:	7823      	ldrb	r3, [r4, #0]
10003c0c:	4313      	orrs	r3, r2
10003c0e:	7023      	strb	r3, [r4, #0]
10003c10:	e57c      	b.n	1000370c <tud_task_ext+0x20>
10003c12:	88eb      	ldrh	r3, [r5, #6]
10003c14:	2b01      	cmp	r3, #1
10003c16:	d000      	beq.n	10003c1a <tud_task_ext+0x52e>
10003c18:	e6eb      	b.n	100039f2 <tud_task_ext+0x306>
10003c1a:	2208      	movs	r2, #8
10003c1c:	7823      	ldrb	r3, [r4, #0]
10003c1e:	a908      	add	r1, sp, #32
10003c20:	4313      	orrs	r3, r2
10003c22:	4650      	mov	r0, sl
10003c24:	7023      	strb	r3, [r4, #0]
10003c26:	f000 f9d3 	bl	10003fd0 <tud_control_status>
10003c2a:	e56f      	b.n	1000370c <tud_task_ext+0x20>
10003c2c:	88eb      	ldrh	r3, [r5, #6]
10003c2e:	2b01      	cmp	r3, #1
10003c30:	d000      	beq.n	10003c34 <tud_task_ext+0x548>
10003c32:	e6de      	b.n	100039f2 <tud_task_ext+0x306>
10003c34:	2208      	movs	r2, #8
10003c36:	7823      	ldrb	r3, [r4, #0]
10003c38:	a908      	add	r1, sp, #32
10003c3a:	4393      	bics	r3, r2
10003c3c:	4650      	mov	r0, sl
10003c3e:	7023      	strb	r3, [r4, #0]
10003c40:	f000 f9c6 	bl	10003fd0 <tud_control_status>
10003c44:	e562      	b.n	1000370c <tud_task_ext+0x20>
10003c46:	4b4b      	ldr	r3, [pc, #300]	; (10003d74 <tud_task_ext+0x688>)
10003c48:	2b00      	cmp	r3, #0
10003c4a:	d100      	bne.n	10003c4e <tud_task_ext+0x562>
10003c4c:	e6d1      	b.n	100039f2 <tud_task_ext+0x306>
10003c4e:	e000      	b.n	10003c52 <tud_task_ext+0x566>
10003c50:	bf00      	nop
10003c52:	1e02      	subs	r2, r0, #0
10003c54:	d100      	bne.n	10003c58 <tud_task_ext+0x56c>
10003c56:	e6cc      	b.n	100039f2 <tud_task_ext+0x306>
10003c58:	78c3      	ldrb	r3, [r0, #3]
10003c5a:	7881      	ldrb	r1, [r0, #2]
10003c5c:	021b      	lsls	r3, r3, #8
10003c5e:	430b      	orrs	r3, r1
10003c60:	4650      	mov	r0, sl
10003c62:	a908      	add	r1, sp, #32
10003c64:	f000 f9cc 	bl	10004000 <tud_control_xfer>
10003c68:	2800      	cmp	r0, #0
10003c6a:	d000      	beq.n	10003c6e <tud_task_ext+0x582>
10003c6c:	e54e      	b.n	1000370c <tud_task_ext+0x20>
10003c6e:	e6c0      	b.n	100039f2 <tud_task_ext+0x306>
10003c70:	4b41      	ldr	r3, [pc, #260]	; (10003d78 <tud_task_ext+0x68c>)
10003c72:	2b00      	cmp	r3, #0
10003c74:	d100      	bne.n	10003c78 <tud_task_ext+0x58c>
10003c76:	e6bc      	b.n	100039f2 <tud_task_ext+0x306>
10003c78:	e000      	b.n	10003c7c <tud_task_ext+0x590>
10003c7a:	bf00      	nop
10003c7c:	1e02      	subs	r2, r0, #0
10003c7e:	d100      	bne.n	10003c82 <tud_task_ext+0x596>
10003c80:	e6b7      	b.n	100039f2 <tud_task_ext+0x306>
10003c82:	7813      	ldrb	r3, [r2, #0]
10003c84:	a908      	add	r1, sp, #32
10003c86:	4650      	mov	r0, sl
10003c88:	f000 f9ba 	bl	10004000 <tud_control_xfer>
10003c8c:	e6e9      	b.n	10003a62 <tud_task_ext+0x376>
10003c8e:	8929      	ldrh	r1, [r5, #8]
10003c90:	f7ff f8ba 	bl	10002e08 <tud_descriptor_string_cb>
10003c94:	1e02      	subs	r2, r0, #0
10003c96:	d1f4      	bne.n	10003c82 <tud_task_ext+0x596>
10003c98:	e6ab      	b.n	100039f2 <tud_task_ext+0x306>
10003c9a:	2b02      	cmp	r3, #2
10003c9c:	d100      	bne.n	10003ca0 <tud_task_ext+0x5b4>
10003c9e:	e185      	b.n	10003fac <tud_task_ext+0x8c0>
10003ca0:	4b36      	ldr	r3, [pc, #216]	; (10003d7c <tud_task_ext+0x690>)
10003ca2:	2b00      	cmp	r3, #0
10003ca4:	d100      	bne.n	10003ca8 <tud_task_ext+0x5bc>
10003ca6:	e6a4      	b.n	100039f2 <tud_task_ext+0x306>
10003ca8:	e000      	b.n	10003cac <tud_task_ext+0x5c0>
10003caa:	bf00      	nop
10003cac:	2800      	cmp	r0, #0
10003cae:	d100      	bne.n	10003cb2 <tud_task_ext+0x5c6>
10003cb0:	e69f      	b.n	100039f2 <tud_task_ext+0x306>
10003cb2:	78c3      	ldrb	r3, [r0, #3]
10003cb4:	7882      	ldrb	r2, [r0, #2]
10003cb6:	021b      	lsls	r3, r3, #8
10003cb8:	4313      	orrs	r3, r2
10003cba:	a908      	add	r1, sp, #32
10003cbc:	0002      	movs	r2, r0
10003cbe:	4650      	mov	r0, sl
10003cc0:	f000 f99e 	bl	10004000 <tud_control_xfer>
10003cc4:	e6cd      	b.n	10003a62 <tud_task_ext+0x376>
10003cc6:	f7ff f897 	bl	10002df8 <tud_descriptor_device_cb>
10003cca:	2312      	movs	r3, #18
10003ccc:	0002      	movs	r2, r0
10003cce:	a908      	add	r1, sp, #32
10003cd0:	4650      	mov	r0, sl
10003cd2:	f000 f995 	bl	10004000 <tud_control_xfer>
10003cd6:	e6c4      	b.n	10003a62 <tud_task_ext+0x376>
10003cd8:	7a2b      	ldrb	r3, [r5, #8]
10003cda:	2b0f      	cmp	r3, #15
10003cdc:	d900      	bls.n	10003ce0 <tud_task_ext+0x5f4>
10003cde:	e688      	b.n	100039f2 <tud_task_ext+0x306>
10003ce0:	4a1c      	ldr	r2, [pc, #112]	; (10003d54 <tud_task_ext+0x668>)
10003ce2:	18e4      	adds	r4, r4, r3
10003ce4:	78e3      	ldrb	r3, [r4, #3]
10003ce6:	2a00      	cmp	r2, #0
10003ce8:	d021      	beq.n	10003d2e <tud_task_ext+0x642>
10003cea:	4a1b      	ldr	r2, [pc, #108]	; (10003d58 <tud_task_ext+0x66c>)
10003cec:	7812      	ldrb	r2, [r2, #0]
10003cee:	4293      	cmp	r3, r2
10003cf0:	d21b      	bcs.n	10003d2a <tud_task_ext+0x63e>
10003cf2:	4a1a      	ldr	r2, [pc, #104]	; (10003d5c <tud_task_ext+0x670>)
10003cf4:	005c      	lsls	r4, r3, #1
10003cf6:	18e3      	adds	r3, r4, r3
10003cf8:	6814      	ldr	r4, [r2, #0]
10003cfa:	00db      	lsls	r3, r3, #3
10003cfc:	18e4      	adds	r4, r4, r3
10003cfe:	2c00      	cmp	r4, #0
10003d00:	d100      	bne.n	10003d04 <tud_task_ext+0x618>
10003d02:	e676      	b.n	100039f2 <tud_task_ext+0x306>
10003d04:	68e0      	ldr	r0, [r4, #12]
10003d06:	f000 f9db 	bl	100040c0 <usbd_control_set_complete_callback>
10003d0a:	68e3      	ldr	r3, [r4, #12]
10003d0c:	aa08      	add	r2, sp, #32
10003d0e:	2101      	movs	r1, #1
10003d10:	4650      	mov	r0, sl
10003d12:	4798      	blx	r3
10003d14:	e6a5      	b.n	10003a62 <tud_task_ext+0x376>
10003d16:	0023      	movs	r3, r4
10003d18:	4443      	add	r3, r8
10003d1a:	1818      	adds	r0, r3, r0
10003d1c:	3030      	adds	r0, #48	; 0x30
10003d1e:	78c3      	ldrb	r3, [r0, #3]
10003d20:	aa06      	add	r2, sp, #24
10003d22:	079b      	lsls	r3, r3, #30
10003d24:	0fdb      	lsrs	r3, r3, #31
10003d26:	3202      	adds	r2, #2
10003d28:	e756      	b.n	10003bd8 <tud_task_ext+0x4ec>
10003d2a:	1a9b      	subs	r3, r3, r2
10003d2c:	b2db      	uxtb	r3, r3
10003d2e:	2b00      	cmp	r3, #0
10003d30:	d000      	beq.n	10003d34 <tud_task_ext+0x648>
10003d32:	e65e      	b.n	100039f2 <tud_task_ext+0x306>
10003d34:	480b      	ldr	r0, [pc, #44]	; (10003d64 <tud_task_ext+0x678>)
10003d36:	4c0c      	ldr	r4, [pc, #48]	; (10003d68 <tud_task_ext+0x67c>)
10003d38:	e7e5      	b.n	10003d06 <tud_task_ext+0x61a>
10003d3a:	480a      	ldr	r0, [pc, #40]	; (10003d64 <tud_task_ext+0x678>)
10003d3c:	4f0a      	ldr	r7, [pc, #40]	; (10003d68 <tud_task_ext+0x67c>)
10003d3e:	e58c      	b.n	1000385a <tud_task_ext+0x16e>
10003d40:	ab06      	add	r3, sp, #24
10003d42:	1c9a      	adds	r2, r3, #2
10003d44:	a908      	add	r1, sp, #32
10003d46:	2301      	movs	r3, #1
10003d48:	4650      	mov	r0, sl
10003d4a:	7014      	strb	r4, [r2, #0]
10003d4c:	f000 f958 	bl	10004000 <tud_control_xfer>
10003d50:	e4dc      	b.n	1000370c <tud_task_ext+0x20>
10003d52:	46c0      	nop			; (mov r8, r8)
10003d54:	10002a1d 	.word	0x10002a1d
10003d58:	20002255 	.word	0x20002255
10003d5c:	200018b8 	.word	0x200018b8
10003d60:	10006238 	.word	0x10006238
10003d64:	10004551 	.word	0x10004551
10003d68:	100062a0 	.word	0x100062a0
10003d6c:	20000efc 	.word	0x20000efc
10003d70:	10006260 	.word	0x10006260
	...
10003d80:	1e58      	subs	r0, r3, #1
10003d82:	b2c0      	uxtb	r0, r0
10003d84:	f7ff f83c 	bl	10002e00 <tud_descriptor_configuration_cb>
10003d88:	2800      	cmp	r0, #0
10003d8a:	d100      	bne.n	10003d8e <tud_task_ext+0x6a2>
10003d8c:	e631      	b.n	100039f2 <tud_task_ext+0x306>
10003d8e:	7843      	ldrb	r3, [r0, #1]
10003d90:	2b02      	cmp	r3, #2
10003d92:	d000      	beq.n	10003d96 <tud_task_ext+0x6aa>
10003d94:	e62d      	b.n	100039f2 <tud_task_ext+0x306>
10003d96:	2201      	movs	r2, #1
10003d98:	79c1      	ldrb	r1, [r0, #7]
10003d9a:	4691      	mov	r9, r2
10003d9c:	094b      	lsrs	r3, r1, #5
10003d9e:	4013      	ands	r3, r2
10003da0:	011f      	lsls	r7, r3, #4
10003da2:	7823      	ldrb	r3, [r4, #0]
10003da4:	0989      	lsrs	r1, r1, #6
10003da6:	4698      	mov	r8, r3
10003da8:	2310      	movs	r3, #16
10003daa:	4642      	mov	r2, r8
10003dac:	439a      	bics	r2, r3
10003dae:	0013      	movs	r3, r2
10003db0:	464a      	mov	r2, r9
10003db2:	400a      	ands	r2, r1
10003db4:	2120      	movs	r1, #32
10003db6:	433b      	orrs	r3, r7
10003db8:	0152      	lsls	r2, r2, #5
10003dba:	438b      	bics	r3, r1
10003dbc:	4313      	orrs	r3, r2
10003dbe:	7023      	strb	r3, [r4, #0]
10003dc0:	2309      	movs	r3, #9
10003dc2:	4699      	mov	r9, r3
10003dc4:	78c3      	ldrb	r3, [r0, #3]
10003dc6:	7882      	ldrb	r2, [r0, #2]
10003dc8:	021b      	lsls	r3, r3, #8
10003dca:	4313      	orrs	r3, r2
10003dcc:	18c3      	adds	r3, r0, r3
10003dce:	4481      	add	r9, r0
10003dd0:	9304      	str	r3, [sp, #16]
10003dd2:	4599      	cmp	r9, r3
10003dd4:	d300      	bcc.n	10003dd8 <tud_task_ext+0x6ec>
10003dd6:	e0c1      	b.n	10003f5c <tud_task_ext+0x870>
10003dd8:	464f      	mov	r7, r9
10003dda:	46d1      	mov	r9, sl
10003ddc:	46a2      	mov	sl, r4
10003dde:	2201      	movs	r2, #1
10003de0:	787b      	ldrb	r3, [r7, #1]
10003de2:	9200      	str	r2, [sp, #0]
10003de4:	2b0b      	cmp	r3, #11
10003de6:	d100      	bne.n	10003dea <tud_task_ext+0x6fe>
10003de8:	e0bf      	b.n	10003f6a <tud_task_ext+0x87e>
10003dea:	2b04      	cmp	r3, #4
10003dec:	d000      	beq.n	10003df0 <tud_task_ext+0x704>
10003dee:	e600      	b.n	100039f2 <tud_task_ext+0x306>
10003df0:	9b04      	ldr	r3, [sp, #16]
10003df2:	4a70      	ldr	r2, [pc, #448]	; (10003fb4 <tud_task_ext+0x8c8>)
10003df4:	1bdb      	subs	r3, r3, r7
10003df6:	b29b      	uxth	r3, r3
10003df8:	9302      	str	r3, [sp, #8]
10003dfa:	4b6f      	ldr	r3, [pc, #444]	; (10003fb8 <tud_task_ext+0x8cc>)
10003dfc:	781b      	ldrb	r3, [r3, #0]
10003dfe:	2a00      	cmp	r2, #0
10003e00:	d100      	bne.n	10003e04 <tud_task_ext+0x718>
10003e02:	e0c0      	b.n	10003f86 <tud_task_ext+0x89a>
10003e04:	2200      	movs	r2, #0
10003e06:	2400      	movs	r4, #0
10003e08:	9203      	str	r2, [sp, #12]
10003e0a:	46b8      	mov	r8, r7
10003e0c:	e01c      	b.n	10003e48 <tud_task_ext+0x75c>
10003e0e:	4b6b      	ldr	r3, [pc, #428]	; (10003fbc <tud_task_ext+0x8d0>)
10003e10:	0067      	lsls	r7, r4, #1
10003e12:	681b      	ldr	r3, [r3, #0]
10003e14:	193f      	adds	r7, r7, r4
10003e16:	469c      	mov	ip, r3
10003e18:	00ff      	lsls	r7, r7, #3
10003e1a:	4467      	add	r7, ip
10003e1c:	9305      	str	r3, [sp, #20]
10003e1e:	2f00      	cmp	r7, #0
10003e20:	d100      	bne.n	10003e24 <tud_task_ext+0x738>
10003e22:	e5e6      	b.n	100039f2 <tud_task_ext+0x306>
10003e24:	68bb      	ldr	r3, [r7, #8]
10003e26:	9a02      	ldr	r2, [sp, #8]
10003e28:	4641      	mov	r1, r8
10003e2a:	4648      	mov	r0, r9
10003e2c:	4798      	blx	r3
10003e2e:	2808      	cmp	r0, #8
10003e30:	d902      	bls.n	10003e38 <tud_task_ext+0x74c>
10003e32:	9b02      	ldr	r3, [sp, #8]
10003e34:	4283      	cmp	r3, r0
10003e36:	d257      	bcs.n	10003ee8 <tud_task_ext+0x7fc>
10003e38:	4b5f      	ldr	r3, [pc, #380]	; (10003fb8 <tud_task_ext+0x8cc>)
10003e3a:	3401      	adds	r4, #1
10003e3c:	781b      	ldrb	r3, [r3, #0]
10003e3e:	b2e4      	uxtb	r4, r4
10003e40:	9403      	str	r4, [sp, #12]
10003e42:	42a3      	cmp	r3, r4
10003e44:	da00      	bge.n	10003e48 <tud_task_ext+0x75c>
10003e46:	e5d4      	b.n	100039f2 <tud_task_ext+0x306>
10003e48:	42a3      	cmp	r3, r4
10003e4a:	d8e0      	bhi.n	10003e0e <tud_task_ext+0x722>
10003e4c:	d000      	beq.n	10003e50 <tud_task_ext+0x764>
10003e4e:	e5d0      	b.n	100039f2 <tud_task_ext+0x306>
10003e50:	4b5b      	ldr	r3, [pc, #364]	; (10003fc0 <tud_task_ext+0x8d4>)
10003e52:	465f      	mov	r7, fp
10003e54:	e7e7      	b.n	10003e26 <tud_task_ext+0x73a>
10003e56:	4650      	mov	r0, sl
10003e58:	f7ff fc2a 	bl	100036b0 <usbd_edpt_clear_stall>
10003e5c:	e67a      	b.n	10003b54 <tud_task_ext+0x468>
10003e5e:	4650      	mov	r0, sl
10003e60:	f7ff fa14 	bl	1000328c <dcd_edpt_close_all>
10003e64:	78a3      	ldrb	r3, [r4, #2]
10003e66:	4f54      	ldr	r7, [pc, #336]	; (10003fb8 <tud_task_ext+0x8cc>)
10003e68:	4a52      	ldr	r2, [pc, #328]	; (10003fb4 <tud_task_ext+0x8c8>)
10003e6a:	9300      	str	r3, [sp, #0]
10003e6c:	2100      	movs	r1, #0
10003e6e:	783b      	ldrb	r3, [r7, #0]
10003e70:	2a00      	cmp	r2, #0
10003e72:	d032      	beq.n	10003eda <tud_task_ext+0x7ee>
10003e74:	4a51      	ldr	r2, [pc, #324]	; (10003fbc <tud_task_ext+0x8d0>)
10003e76:	4691      	mov	r9, r2
10003e78:	0022      	movs	r2, r4
10003e7a:	000c      	movs	r4, r1
10003e7c:	4690      	mov	r8, r2
10003e7e:	e010      	b.n	10003ea2 <tud_task_ext+0x7b6>
10003e80:	464a      	mov	r2, r9
10003e82:	6812      	ldr	r2, [r2, #0]
10003e84:	0063      	lsls	r3, r4, #1
10003e86:	4694      	mov	ip, r2
10003e88:	191b      	adds	r3, r3, r4
10003e8a:	00db      	lsls	r3, r3, #3
10003e8c:	4463      	add	r3, ip
10003e8e:	2b00      	cmp	r3, #0
10003e90:	d021      	beq.n	10003ed6 <tud_task_ext+0x7ea>
10003e92:	685b      	ldr	r3, [r3, #4]
10003e94:	4650      	mov	r0, sl
10003e96:	4798      	blx	r3
10003e98:	3401      	adds	r4, #1
10003e9a:	783b      	ldrb	r3, [r7, #0]
10003e9c:	b2e4      	uxtb	r4, r4
10003e9e:	42a3      	cmp	r3, r4
10003ea0:	db04      	blt.n	10003eac <tud_task_ext+0x7c0>
10003ea2:	42a3      	cmp	r3, r4
10003ea4:	d8ec      	bhi.n	10003e80 <tud_task_ext+0x794>
10003ea6:	d116      	bne.n	10003ed6 <tud_task_ext+0x7ea>
10003ea8:	4b46      	ldr	r3, [pc, #280]	; (10003fc4 <tud_task_ext+0x8d8>)
10003eaa:	e7f3      	b.n	10003e94 <tud_task_ext+0x7a8>
10003eac:	4644      	mov	r4, r8
10003eae:	2253      	movs	r2, #83	; 0x53
10003eb0:	2100      	movs	r1, #0
10003eb2:	0020      	movs	r0, r4
10003eb4:	f7fe fb8e 	bl	100025d4 <__wrap_memset>
10003eb8:	2210      	movs	r2, #16
10003eba:	21ff      	movs	r1, #255	; 0xff
10003ebc:	1ce0      	adds	r0, r4, #3
10003ebe:	f7fe fb89 	bl	100025d4 <__wrap_memset>
10003ec2:	0020      	movs	r0, r4
10003ec4:	2220      	movs	r2, #32
10003ec6:	3013      	adds	r0, #19
10003ec8:	21ff      	movs	r1, #255	; 0xff
10003eca:	f7fe fb83 	bl	100025d4 <__wrap_memset>
10003ece:	466b      	mov	r3, sp
10003ed0:	781b      	ldrb	r3, [r3, #0]
10003ed2:	70a3      	strb	r3, [r4, #2]
10003ed4:	e661      	b.n	10003b9a <tud_task_ext+0x4ae>
10003ed6:	4644      	mov	r4, r8
10003ed8:	e7f9      	b.n	10003ece <tud_task_ext+0x7e2>
10003eda:	4650      	mov	r0, sl
10003edc:	f000 faae 	bl	1000443c <cdcd_reset>
10003ee0:	783b      	ldrb	r3, [r7, #0]
10003ee2:	2b00      	cmp	r3, #0
10003ee4:	d1f3      	bne.n	10003ece <tud_task_ext+0x7e2>
10003ee6:	e7e2      	b.n	10003eae <tud_task_ext+0x7c2>
10003ee8:	4643      	mov	r3, r8
10003eea:	46b8      	mov	r8, r7
10003eec:	001f      	movs	r7, r3
10003eee:	9002      	str	r0, [sp, #8]
10003ef0:	9b00      	ldr	r3, [sp, #0]
10003ef2:	2b01      	cmp	r3, #1
10003ef4:	d03f      	beq.n	10003f76 <tud_task_ext+0x88a>
10003ef6:	2b00      	cmp	r3, #0
10003ef8:	d01a      	beq.n	10003f30 <tud_task_ext+0x844>
10003efa:	4652      	mov	r2, sl
10003efc:	78b9      	ldrb	r1, [r7, #2]
10003efe:	1852      	adds	r2, r2, r1
10003f00:	78d2      	ldrb	r2, [r2, #3]
10003f02:	000b      	movs	r3, r1
10003f04:	2aff      	cmp	r2, #255	; 0xff
10003f06:	d000      	beq.n	10003f0a <tud_task_ext+0x81e>
10003f08:	e573      	b.n	100039f2 <tud_task_ext+0x306>
10003f0a:	2200      	movs	r2, #0
10003f0c:	4688      	mov	r8, r1
10003f0e:	4650      	mov	r0, sl
10003f10:	18c3      	adds	r3, r0, r3
10003f12:	70dc      	strb	r4, [r3, #3]
10003f14:	3201      	adds	r2, #1
10003f16:	9b00      	ldr	r3, [sp, #0]
10003f18:	b2d2      	uxtb	r2, r2
10003f1a:	429a      	cmp	r2, r3
10003f1c:	d207      	bcs.n	10003f2e <tud_task_ext+0x842>
10003f1e:	4643      	mov	r3, r8
10003f20:	18d3      	adds	r3, r2, r3
10003f22:	b2db      	uxtb	r3, r3
10003f24:	18c1      	adds	r1, r0, r3
10003f26:	78c9      	ldrb	r1, [r1, #3]
10003f28:	29ff      	cmp	r1, #255	; 0xff
10003f2a:	d0f1      	beq.n	10003f10 <tud_task_ext+0x824>
10003f2c:	e561      	b.n	100039f2 <tud_task_ext+0x306>
10003f2e:	4682      	mov	sl, r0
10003f30:	4650      	mov	r0, sl
10003f32:	0023      	movs	r3, r4
10003f34:	9a02      	ldr	r2, [sp, #8]
10003f36:	3013      	adds	r0, #19
10003f38:	0039      	movs	r1, r7
10003f3a:	f000 fcc3 	bl	100048c4 <tu_edpt_bind_driver>
10003f3e:	4b1e      	ldr	r3, [pc, #120]	; (10003fb8 <tud_task_ext+0x8cc>)
10003f40:	9a03      	ldr	r2, [sp, #12]
10003f42:	781b      	ldrb	r3, [r3, #0]
10003f44:	4293      	cmp	r3, r2
10003f46:	da00      	bge.n	10003f4a <tud_task_ext+0x85e>
10003f48:	e553      	b.n	100039f2 <tud_task_ext+0x306>
10003f4a:	9b02      	ldr	r3, [sp, #8]
10003f4c:	469c      	mov	ip, r3
10003f4e:	9b04      	ldr	r3, [sp, #16]
10003f50:	4467      	add	r7, ip
10003f52:	42bb      	cmp	r3, r7
10003f54:	d900      	bls.n	10003f58 <tud_task_ext+0x86c>
10003f56:	e742      	b.n	10003dde <tud_task_ext+0x6f2>
10003f58:	4654      	mov	r4, sl
10003f5a:	46ca      	mov	sl, r9
10003f5c:	4b1a      	ldr	r3, [pc, #104]	; (10003fc8 <tud_task_ext+0x8dc>)
10003f5e:	2b00      	cmp	r3, #0
10003f60:	d100      	bne.n	10003f64 <tud_task_ext+0x878>
10003f62:	e61e      	b.n	10003ba2 <tud_task_ext+0x4b6>
10003f64:	e000      	b.n	10003f68 <tud_task_ext+0x87c>
10003f66:	bf00      	nop
10003f68:	e61b      	b.n	10003ba2 <tud_task_ext+0x4b6>
10003f6a:	78fb      	ldrb	r3, [r7, #3]
10003f6c:	9300      	str	r3, [sp, #0]
10003f6e:	783b      	ldrb	r3, [r7, #0]
10003f70:	18ff      	adds	r7, r7, r3
10003f72:	787b      	ldrb	r3, [r7, #1]
10003f74:	e739      	b.n	10003dea <tud_task_ext+0x6fe>
10003f76:	4642      	mov	r2, r8
10003f78:	4b11      	ldr	r3, [pc, #68]	; (10003fc0 <tud_task_ext+0x8d4>)
10003f7a:	6892      	ldr	r2, [r2, #8]
10003f7c:	429a      	cmp	r2, r3
10003f7e:	d1bc      	bne.n	10003efa <tud_task_ext+0x80e>
10003f80:	2302      	movs	r3, #2
10003f82:	9300      	str	r3, [sp, #0]
10003f84:	e7b9      	b.n	10003efa <tud_task_ext+0x80e>
10003f86:	9c02      	ldr	r4, [sp, #8]
10003f88:	0039      	movs	r1, r7
10003f8a:	0022      	movs	r2, r4
10003f8c:	4648      	mov	r0, r9
10003f8e:	f000 fa6b 	bl	10004468 <cdcd_open>
10003f92:	9002      	str	r0, [sp, #8]
10003f94:	2808      	cmp	r0, #8
10003f96:	d800      	bhi.n	10003f9a <tud_task_ext+0x8ae>
10003f98:	e52b      	b.n	100039f2 <tud_task_ext+0x306>
10003f9a:	4284      	cmp	r4, r0
10003f9c:	d200      	bcs.n	10003fa0 <tud_task_ext+0x8b4>
10003f9e:	e528      	b.n	100039f2 <tud_task_ext+0x306>
10003fa0:	4b0a      	ldr	r3, [pc, #40]	; (10003fcc <tud_task_ext+0x8e0>)
10003fa2:	2400      	movs	r4, #0
10003fa4:	4698      	mov	r8, r3
10003fa6:	2300      	movs	r3, #0
10003fa8:	9303      	str	r3, [sp, #12]
10003faa:	e7a1      	b.n	10003ef0 <tud_task_ext+0x804>
10003fac:	f7fe ff28 	bl	10002e00 <tud_descriptor_configuration_cb>
10003fb0:	e67c      	b.n	10003cac <tud_task_ext+0x5c0>
10003fb2:	46c0      	nop			; (mov r8, r8)
10003fb4:	10002a1d 	.word	0x10002a1d
10003fb8:	20002255 	.word	0x20002255
10003fbc:	200018b8 	.word	0x200018b8
10003fc0:	10004469 	.word	0x10004469
10003fc4:	1000443d 	.word	0x1000443d
10003fc8:	00000000 	.word	0x00000000
10003fcc:	100062a0 	.word	0x100062a0

10003fd0 <tud_control_status>:
10003fd0:	b570      	push	{r4, r5, r6, lr}
10003fd2:	4c0a      	ldr	r4, [pc, #40]	; (10003ffc <tud_control_status+0x2c>)
10003fd4:	0006      	movs	r6, r0
10003fd6:	2208      	movs	r2, #8
10003fd8:	0020      	movs	r0, r4
10003fda:	000d      	movs	r5, r1
10003fdc:	f7fe fb00 	bl	100025e0 <__wrap___aeabi_memcpy>
10003fe0:	2300      	movs	r3, #0
10003fe2:	2100      	movs	r1, #0
10003fe4:	60a3      	str	r3, [r4, #8]
10003fe6:	81e3      	strh	r3, [r4, #14]
10003fe8:	81a3      	strh	r3, [r4, #12]
10003fea:	5669      	ldrsb	r1, [r5, r1]
10003fec:	0030      	movs	r0, r6
10003fee:	43c9      	mvns	r1, r1
10003ff0:	0fc9      	lsrs	r1, r1, #31
10003ff2:	01c9      	lsls	r1, r1, #7
10003ff4:	2200      	movs	r2, #0
10003ff6:	f7ff fb35 	bl	10003664 <usbd_edpt_xfer>
10003ffa:	bd70      	pop	{r4, r5, r6, pc}
10003ffc:	20001b84 	.word	0x20001b84

10004000 <tud_control_xfer>:
10004000:	b5f0      	push	{r4, r5, r6, r7, lr}
10004002:	46c6      	mov	lr, r8
10004004:	4690      	mov	r8, r2
10004006:	4c27      	ldr	r4, [pc, #156]	; (100040a4 <tud_control_xfer+0xa4>)
10004008:	2208      	movs	r2, #8
1000400a:	b500      	push	{lr}
1000400c:	0006      	movs	r6, r0
1000400e:	0020      	movs	r0, r4
10004010:	000d      	movs	r5, r1
10004012:	001f      	movs	r7, r3
10004014:	f7fe fae4 	bl	100025e0 <__wrap___aeabi_memcpy>
10004018:	4643      	mov	r3, r8
1000401a:	60a3      	str	r3, [r4, #8]
1000401c:	2300      	movs	r3, #0
1000401e:	81e3      	strh	r3, [r4, #14]
10004020:	79eb      	ldrb	r3, [r5, #7]
10004022:	79aa      	ldrb	r2, [r5, #6]
10004024:	021b      	lsls	r3, r3, #8
10004026:	4313      	orrs	r3, r2
10004028:	1c1a      	adds	r2, r3, #0
1000402a:	42bb      	cmp	r3, r7
1000402c:	d900      	bls.n	10004030 <tud_control_xfer+0x30>
1000402e:	1c3a      	adds	r2, r7, #0
10004030:	b297      	uxth	r7, r2
10004032:	81a2      	strh	r2, [r4, #12]
10004034:	2b00      	cmp	r3, #0
10004036:	d012      	beq.n	1000405e <tud_control_xfer+0x5e>
10004038:	2f00      	cmp	r7, #0
1000403a:	d01f      	beq.n	1000407c <tud_control_xfer+0x7c>
1000403c:	4643      	mov	r3, r8
1000403e:	2b00      	cmp	r3, #0
10004040:	d02e      	beq.n	100040a0 <tud_control_xfer+0xa0>
10004042:	1c3b      	adds	r3, r7, #0
10004044:	2f40      	cmp	r7, #64	; 0x40
10004046:	d817      	bhi.n	10004078 <tud_control_xfer+0x78>
10004048:	b29f      	uxth	r7, r3
1000404a:	7823      	ldrb	r3, [r4, #0]
1000404c:	2b7f      	cmp	r3, #127	; 0x7f
1000404e:	d81e      	bhi.n	1000408e <tud_control_xfer+0x8e>
10004050:	2100      	movs	r1, #0
10004052:	4a15      	ldr	r2, [pc, #84]	; (100040a8 <tud_control_xfer+0xa8>)
10004054:	003b      	movs	r3, r7
10004056:	0030      	movs	r0, r6
10004058:	f7ff fb04 	bl	10003664 <usbd_edpt_xfer>
1000405c:	e009      	b.n	10004072 <tud_control_xfer+0x72>
1000405e:	2100      	movs	r1, #0
10004060:	5669      	ldrsb	r1, [r5, r1]
10004062:	2300      	movs	r3, #0
10004064:	43c9      	mvns	r1, r1
10004066:	0fc9      	lsrs	r1, r1, #31
10004068:	01c9      	lsls	r1, r1, #7
1000406a:	2200      	movs	r2, #0
1000406c:	0030      	movs	r0, r6
1000406e:	f7ff faf9 	bl	10003664 <usbd_edpt_xfer>
10004072:	bc04      	pop	{r2}
10004074:	4690      	mov	r8, r2
10004076:	bdf0      	pop	{r4, r5, r6, r7, pc}
10004078:	2340      	movs	r3, #64	; 0x40
1000407a:	e7e5      	b.n	10004048 <tud_control_xfer+0x48>
1000407c:	7823      	ldrb	r3, [r4, #0]
1000407e:	2b7f      	cmp	r3, #127	; 0x7f
10004080:	d802      	bhi.n	10004088 <tud_control_xfer+0x88>
10004082:	2100      	movs	r1, #0
10004084:	2200      	movs	r2, #0
10004086:	e7e5      	b.n	10004054 <tud_control_xfer+0x54>
10004088:	2180      	movs	r1, #128	; 0x80
1000408a:	2200      	movs	r2, #0
1000408c:	e7e2      	b.n	10004054 <tud_control_xfer+0x54>
1000408e:	4c06      	ldr	r4, [pc, #24]	; (100040a8 <tud_control_xfer+0xa8>)
10004090:	003a      	movs	r2, r7
10004092:	4641      	mov	r1, r8
10004094:	0020      	movs	r0, r4
10004096:	f7fe faa3 	bl	100025e0 <__wrap___aeabi_memcpy>
1000409a:	2180      	movs	r1, #128	; 0x80
1000409c:	0022      	movs	r2, r4
1000409e:	e7d9      	b.n	10004054 <tud_control_xfer+0x54>
100040a0:	2000      	movs	r0, #0
100040a2:	e7e6      	b.n	10004072 <tud_control_xfer+0x72>
100040a4:	20001b84 	.word	0x20001b84
100040a8:	20001ba0 	.word	0x20001ba0

100040ac <usbd_control_reset>:
100040ac:	b510      	push	{r4, lr}
100040ae:	2214      	movs	r2, #20
100040b0:	2100      	movs	r1, #0
100040b2:	4802      	ldr	r0, [pc, #8]	; (100040bc <usbd_control_reset+0x10>)
100040b4:	f7fe fa8e 	bl	100025d4 <__wrap_memset>
100040b8:	bd10      	pop	{r4, pc}
100040ba:	46c0      	nop			; (mov r8, r8)
100040bc:	20001b84 	.word	0x20001b84

100040c0 <usbd_control_set_complete_callback>:
100040c0:	4b01      	ldr	r3, [pc, #4]	; (100040c8 <usbd_control_set_complete_callback+0x8>)
100040c2:	6118      	str	r0, [r3, #16]
100040c4:	4770      	bx	lr
100040c6:	46c0      	nop			; (mov r8, r8)
100040c8:	20001b84 	.word	0x20001b84

100040cc <usbd_control_set_request>:
100040cc:	b510      	push	{r4, lr}
100040ce:	4c05      	ldr	r4, [pc, #20]	; (100040e4 <usbd_control_set_request+0x18>)
100040d0:	0001      	movs	r1, r0
100040d2:	2208      	movs	r2, #8
100040d4:	0020      	movs	r0, r4
100040d6:	f7fe fa83 	bl	100025e0 <__wrap___aeabi_memcpy>
100040da:	2300      	movs	r3, #0
100040dc:	60a3      	str	r3, [r4, #8]
100040de:	81e3      	strh	r3, [r4, #14]
100040e0:	81a3      	strh	r3, [r4, #12]
100040e2:	bd10      	pop	{r4, pc}
100040e4:	20001b84 	.word	0x20001b84

100040e8 <usbd_control_xfer_cb>:
100040e8:	b570      	push	{r4, r5, r6, lr}
100040ea:	4c3a      	ldr	r4, [pc, #232]	; (100041d4 <usbd_control_xfer_cb+0xec>)
100040ec:	001d      	movs	r5, r3
100040ee:	7823      	ldrb	r3, [r4, #0]
100040f0:	0006      	movs	r6, r0
100040f2:	09da      	lsrs	r2, r3, #7
100040f4:	09c9      	lsrs	r1, r1, #7
100040f6:	428a      	cmp	r2, r1
100040f8:	d012      	beq.n	10004120 <usbd_control_xfer_cb+0x38>
100040fa:	2000      	movs	r0, #0
100040fc:	2d00      	cmp	r5, #0
100040fe:	d10e      	bne.n	1000411e <usbd_control_xfer_cb+0x36>
10004100:	4b35      	ldr	r3, [pc, #212]	; (100041d8 <usbd_control_xfer_cb+0xf0>)
10004102:	2b00      	cmp	r3, #0
10004104:	d003      	beq.n	1000410e <usbd_control_xfer_cb+0x26>
10004106:	0021      	movs	r1, r4
10004108:	0030      	movs	r0, r6
1000410a:	f7ff f81f 	bl	1000314c <dcd_edpt0_status_complete>
1000410e:	6923      	ldr	r3, [r4, #16]
10004110:	2b00      	cmp	r3, #0
10004112:	d02e      	beq.n	10004172 <usbd_control_xfer_cb+0x8a>
10004114:	0022      	movs	r2, r4
10004116:	2103      	movs	r1, #3
10004118:	0030      	movs	r0, r6
1000411a:	4798      	blx	r3
1000411c:	2001      	movs	r0, #1
1000411e:	bd70      	pop	{r4, r5, r6, pc}
10004120:	2b7f      	cmp	r3, #127	; 0x7f
10004122:	d806      	bhi.n	10004132 <usbd_control_xfer_cb+0x4a>
10004124:	68a0      	ldr	r0, [r4, #8]
10004126:	2800      	cmp	r0, #0
10004128:	d025      	beq.n	10004176 <usbd_control_xfer_cb+0x8e>
1000412a:	002a      	movs	r2, r5
1000412c:	492b      	ldr	r1, [pc, #172]	; (100041dc <usbd_control_xfer_cb+0xf4>)
1000412e:	f7fe fa57 	bl	100025e0 <__wrap___aeabi_memcpy>
10004132:	68a2      	ldr	r2, [r4, #8]
10004134:	89e3      	ldrh	r3, [r4, #14]
10004136:	1951      	adds	r1, r2, r5
10004138:	195b      	adds	r3, r3, r5
1000413a:	88e2      	ldrh	r2, [r4, #6]
1000413c:	b29b      	uxth	r3, r3
1000413e:	81e3      	strh	r3, [r4, #14]
10004140:	60a1      	str	r1, [r4, #8]
10004142:	429a      	cmp	r2, r3
10004144:	d001      	beq.n	1000414a <usbd_control_xfer_cb+0x62>
10004146:	2d3f      	cmp	r5, #63	; 0x3f
10004148:	d817      	bhi.n	1000417a <usbd_control_xfer_cb+0x92>
1000414a:	6923      	ldr	r3, [r4, #16]
1000414c:	2b00      	cmp	r3, #0
1000414e:	d005      	beq.n	1000415c <usbd_control_xfer_cb+0x74>
10004150:	0022      	movs	r2, r4
10004152:	2102      	movs	r1, #2
10004154:	0030      	movs	r0, r6
10004156:	4798      	blx	r3
10004158:	2800      	cmp	r0, #0
1000415a:	d024      	beq.n	100041a6 <usbd_control_xfer_cb+0xbe>
1000415c:	2100      	movs	r1, #0
1000415e:	5661      	ldrsb	r1, [r4, r1]
10004160:	2300      	movs	r3, #0
10004162:	43c9      	mvns	r1, r1
10004164:	0fc9      	lsrs	r1, r1, #31
10004166:	01c9      	lsls	r1, r1, #7
10004168:	2200      	movs	r2, #0
1000416a:	0030      	movs	r0, r6
1000416c:	f7ff fa7a 	bl	10003664 <usbd_edpt_xfer>
10004170:	e7d5      	b.n	1000411e <usbd_control_xfer_cb+0x36>
10004172:	2001      	movs	r0, #1
10004174:	e7d3      	b.n	1000411e <usbd_control_xfer_cb+0x36>
10004176:	2000      	movs	r0, #0
10004178:	e7d1      	b.n	1000411e <usbd_control_xfer_cb+0x36>
1000417a:	89a2      	ldrh	r2, [r4, #12]
1000417c:	1ad3      	subs	r3, r2, r3
1000417e:	1c1d      	adds	r5, r3, #0
10004180:	b29b      	uxth	r3, r3
10004182:	2b40      	cmp	r3, #64	; 0x40
10004184:	d900      	bls.n	10004188 <usbd_control_xfer_cb+0xa0>
10004186:	2540      	movs	r5, #64	; 0x40
10004188:	7823      	ldrb	r3, [r4, #0]
1000418a:	b2ad      	uxth	r5, r5
1000418c:	2b7f      	cmp	r3, #127	; 0x7f
1000418e:	d814      	bhi.n	100041ba <usbd_control_xfer_cb+0xd2>
10004190:	2100      	movs	r1, #0
10004192:	2d00      	cmp	r5, #0
10004194:	d105      	bne.n	100041a2 <usbd_control_xfer_cb+0xba>
10004196:	2200      	movs	r2, #0
10004198:	002b      	movs	r3, r5
1000419a:	0030      	movs	r0, r6
1000419c:	f7ff fa62 	bl	10003664 <usbd_edpt_xfer>
100041a0:	e7bd      	b.n	1000411e <usbd_control_xfer_cb+0x36>
100041a2:	4a0e      	ldr	r2, [pc, #56]	; (100041dc <usbd_control_xfer_cb+0xf4>)
100041a4:	e7f8      	b.n	10004198 <usbd_control_xfer_cb+0xb0>
100041a6:	2100      	movs	r1, #0
100041a8:	0030      	movs	r0, r6
100041aa:	f7ff f885 	bl	100032b8 <dcd_edpt_stall>
100041ae:	0030      	movs	r0, r6
100041b0:	2180      	movs	r1, #128	; 0x80
100041b2:	f7ff f881 	bl	100032b8 <dcd_edpt_stall>
100041b6:	2001      	movs	r0, #1
100041b8:	e7b1      	b.n	1000411e <usbd_control_xfer_cb+0x36>
100041ba:	2d00      	cmp	r5, #0
100041bc:	d101      	bne.n	100041c2 <usbd_control_xfer_cb+0xda>
100041be:	2180      	movs	r1, #128	; 0x80
100041c0:	e7e9      	b.n	10004196 <usbd_control_xfer_cb+0xae>
100041c2:	4c06      	ldr	r4, [pc, #24]	; (100041dc <usbd_control_xfer_cb+0xf4>)
100041c4:	002a      	movs	r2, r5
100041c6:	0020      	movs	r0, r4
100041c8:	f7fe fa0a 	bl	100025e0 <__wrap___aeabi_memcpy>
100041cc:	2180      	movs	r1, #128	; 0x80
100041ce:	0022      	movs	r2, r4
100041d0:	e7e2      	b.n	10004198 <usbd_control_xfer_cb+0xb0>
100041d2:	46c0      	nop			; (mov r8, r8)
100041d4:	20001b84 	.word	0x20001b84
100041d8:	1000314d 	.word	0x1000314d
100041dc:	20001ba0 	.word	0x20001ba0

100041e0 <tud_cdc_n_connected>:
100041e0:	b510      	push	{r4, lr}
100041e2:	0004      	movs	r4, r0
100041e4:	f7ff f8ea 	bl	100033bc <tud_mounted>
100041e8:	2800      	cmp	r0, #0
100041ea:	d101      	bne.n	100041f0 <tud_cdc_n_connected+0x10>
100041ec:	2000      	movs	r0, #0
100041ee:	bd10      	pop	{r4, pc}
100041f0:	f7ff f8ec 	bl	100033cc <tud_suspended>
100041f4:	2800      	cmp	r0, #0
100041f6:	d1f9      	bne.n	100041ec <tud_cdc_n_connected+0xc>
100041f8:	20b2      	movs	r0, #178	; 0xb2
100041fa:	0080      	lsls	r0, r0, #2
100041fc:	4344      	muls	r4, r0
100041fe:	4803      	ldr	r0, [pc, #12]	; (1000420c <tud_cdc_n_connected+0x2c>)
10004200:	1900      	adds	r0, r0, r4
10004202:	7903      	ldrb	r3, [r0, #4]
10004204:	2001      	movs	r0, #1
10004206:	4018      	ands	r0, r3
10004208:	e7f1      	b.n	100041ee <tud_cdc_n_connected+0xe>
1000420a:	46c0      	nop			; (mov r8, r8)
1000420c:	200018bc 	.word	0x200018bc

10004210 <tud_cdc_n_available>:
10004210:	0003      	movs	r3, r0
10004212:	20b2      	movs	r0, #178	; 0xb2
10004214:	0080      	lsls	r0, r0, #2
10004216:	4358      	muls	r0, r3
10004218:	b510      	push	{r4, lr}
1000421a:	4b03      	ldr	r3, [pc, #12]	; (10004228 <tud_cdc_n_available+0x18>)
1000421c:	3010      	adds	r0, #16
1000421e:	1818      	adds	r0, r3, r0
10004220:	f000 fba8 	bl	10004974 <tu_fifo_count>
10004224:	bd10      	pop	{r4, pc}
10004226:	46c0      	nop			; (mov r8, r8)
10004228:	200018bc 	.word	0x200018bc

1000422c <tud_cdc_n_read>:
1000422c:	b5f0      	push	{r4, r5, r6, r7, lr}
1000422e:	25b2      	movs	r5, #178	; 0xb2
10004230:	00ad      	lsls	r5, r5, #2
10004232:	4345      	muls	r5, r0
10004234:	002c      	movs	r4, r5
10004236:	46c6      	mov	lr, r8
10004238:	4e17      	ldr	r6, [pc, #92]	; (10004298 <tud_cdc_n_read+0x6c>)
1000423a:	3410      	adds	r4, #16
1000423c:	1934      	adds	r4, r6, r4
1000423e:	b500      	push	{lr}
10004240:	b292      	uxth	r2, r2
10004242:	0020      	movs	r0, r4
10004244:	f000 fc16 	bl	10004a74 <tu_fifo_read_n>
10004248:	0007      	movs	r7, r0
1000424a:	0020      	movs	r0, r4
1000424c:	f000 fbae 	bl	100049ac <tu_fifo_remaining>
10004250:	283f      	cmp	r0, #63	; 0x3f
10004252:	d803      	bhi.n	1000425c <tud_cdc_n_read+0x30>
10004254:	0038      	movs	r0, r7
10004256:	bc04      	pop	{r2}
10004258:	4690      	mov	r8, r2
1000425a:	bdf0      	pop	{r4, r5, r6, r7, pc}
1000425c:	1973      	adds	r3, r6, r5
1000425e:	78d9      	ldrb	r1, [r3, #3]
10004260:	2000      	movs	r0, #0
10004262:	4698      	mov	r8, r3
10004264:	f7ff f9d6 	bl	10003614 <usbd_edpt_claim>
10004268:	2800      	cmp	r0, #0
1000426a:	d0f3      	beq.n	10004254 <tud_cdc_n_read+0x28>
1000426c:	0020      	movs	r0, r4
1000426e:	f000 fb9d 	bl	100049ac <tu_fifo_remaining>
10004272:	283f      	cmp	r0, #63	; 0x3f
10004274:	d805      	bhi.n	10004282 <tud_cdc_n_read+0x56>
10004276:	4643      	mov	r3, r8
10004278:	2000      	movs	r0, #0
1000427a:	78d9      	ldrb	r1, [r3, #3]
1000427c:	f7ff f9de 	bl	1000363c <usbd_edpt_release>
10004280:	e7e8      	b.n	10004254 <tud_cdc_n_read+0x28>
10004282:	2392      	movs	r3, #146	; 0x92
10004284:	009b      	lsls	r3, r3, #2
10004286:	18ea      	adds	r2, r5, r3
10004288:	4643      	mov	r3, r8
1000428a:	18b2      	adds	r2, r6, r2
1000428c:	78d9      	ldrb	r1, [r3, #3]
1000428e:	2000      	movs	r0, #0
10004290:	2340      	movs	r3, #64	; 0x40
10004292:	f7ff f9e7 	bl	10003664 <usbd_edpt_xfer>
10004296:	e7dd      	b.n	10004254 <tud_cdc_n_read+0x28>
10004298:	200018bc 	.word	0x200018bc

1000429c <tud_cdc_n_write>:
1000429c:	b5f0      	push	{r4, r5, r6, r7, lr}
1000429e:	25b2      	movs	r5, #178	; 0xb2
100042a0:	00ad      	lsls	r5, r5, #2
100042a2:	4345      	muls	r5, r0
100042a4:	002c      	movs	r4, r5
100042a6:	46c6      	mov	lr, r8
100042a8:	4e1f      	ldr	r6, [pc, #124]	; (10004328 <tud_cdc_n_write+0x8c>)
100042aa:	3424      	adds	r4, #36	; 0x24
100042ac:	1934      	adds	r4, r6, r4
100042ae:	b500      	push	{lr}
100042b0:	b292      	uxth	r2, r2
100042b2:	0020      	movs	r0, r4
100042b4:	f000 fc98 	bl	10004be8 <tu_fifo_write_n>
100042b8:	0007      	movs	r7, r0
100042ba:	0020      	movs	r0, r4
100042bc:	f000 fb5a 	bl	10004974 <tu_fifo_count>
100042c0:	283f      	cmp	r0, #63	; 0x3f
100042c2:	d803      	bhi.n	100042cc <tud_cdc_n_write+0x30>
100042c4:	0038      	movs	r0, r7
100042c6:	bc04      	pop	{r2}
100042c8:	4690      	mov	r8, r2
100042ca:	bdf0      	pop	{r4, r5, r6, r7, pc}
100042cc:	f7ff f876 	bl	100033bc <tud_mounted>
100042d0:	2800      	cmp	r0, #0
100042d2:	d0f7      	beq.n	100042c4 <tud_cdc_n_write+0x28>
100042d4:	f7ff f87a 	bl	100033cc <tud_suspended>
100042d8:	2800      	cmp	r0, #0
100042da:	d1f3      	bne.n	100042c4 <tud_cdc_n_write+0x28>
100042dc:	0020      	movs	r0, r4
100042de:	f000 fb49 	bl	10004974 <tu_fifo_count>
100042e2:	2800      	cmp	r0, #0
100042e4:	d0ee      	beq.n	100042c4 <tud_cdc_n_write+0x28>
100042e6:	1973      	adds	r3, r6, r5
100042e8:	7899      	ldrb	r1, [r3, #2]
100042ea:	2000      	movs	r0, #0
100042ec:	4698      	mov	r8, r3
100042ee:	f7ff f991 	bl	10003614 <usbd_edpt_claim>
100042f2:	2800      	cmp	r0, #0
100042f4:	d0e6      	beq.n	100042c4 <tud_cdc_n_write+0x28>
100042f6:	23a2      	movs	r3, #162	; 0xa2
100042f8:	009b      	lsls	r3, r3, #2
100042fa:	469c      	mov	ip, r3
100042fc:	4465      	add	r5, ip
100042fe:	1976      	adds	r6, r6, r5
10004300:	0031      	movs	r1, r6
10004302:	2240      	movs	r2, #64	; 0x40
10004304:	0020      	movs	r0, r4
10004306:	f000 fbb5 	bl	10004a74 <tu_fifo_read_n>
1000430a:	4643      	mov	r3, r8
1000430c:	7899      	ldrb	r1, [r3, #2]
1000430e:	2800      	cmp	r0, #0
10004310:	d005      	beq.n	1000431e <tud_cdc_n_write+0x82>
10004312:	0003      	movs	r3, r0
10004314:	0032      	movs	r2, r6
10004316:	2000      	movs	r0, #0
10004318:	f7ff f9a4 	bl	10003664 <usbd_edpt_xfer>
1000431c:	e7d2      	b.n	100042c4 <tud_cdc_n_write+0x28>
1000431e:	2000      	movs	r0, #0
10004320:	f7ff f98c 	bl	1000363c <usbd_edpt_release>
10004324:	e7ce      	b.n	100042c4 <tud_cdc_n_write+0x28>
10004326:	46c0      	nop			; (mov r8, r8)
10004328:	200018bc 	.word	0x200018bc

1000432c <tud_cdc_n_write_flush>:
1000432c:	b5f8      	push	{r3, r4, r5, r6, r7, lr}
1000432e:	0005      	movs	r5, r0
10004330:	f7ff f844 	bl	100033bc <tud_mounted>
10004334:	2800      	cmp	r0, #0
10004336:	d101      	bne.n	1000433c <tud_cdc_n_write_flush+0x10>
10004338:	2000      	movs	r0, #0
1000433a:	bdf8      	pop	{r3, r4, r5, r6, r7, pc}
1000433c:	f7ff f846 	bl	100033cc <tud_suspended>
10004340:	2800      	cmp	r0, #0
10004342:	d1f9      	bne.n	10004338 <tud_cdc_n_write_flush+0xc>
10004344:	24b2      	movs	r4, #178	; 0xb2
10004346:	00a4      	lsls	r4, r4, #2
10004348:	4365      	muls	r5, r4
1000434a:	002e      	movs	r6, r5
1000434c:	4f14      	ldr	r7, [pc, #80]	; (100043a0 <tud_cdc_n_write_flush+0x74>)
1000434e:	3624      	adds	r6, #36	; 0x24
10004350:	19be      	adds	r6, r7, r6
10004352:	0030      	movs	r0, r6
10004354:	f000 fb0e 	bl	10004974 <tu_fifo_count>
10004358:	2800      	cmp	r0, #0
1000435a:	d0ed      	beq.n	10004338 <tud_cdc_n_write_flush+0xc>
1000435c:	197c      	adds	r4, r7, r5
1000435e:	78a1      	ldrb	r1, [r4, #2]
10004360:	2000      	movs	r0, #0
10004362:	f7ff f957 	bl	10003614 <usbd_edpt_claim>
10004366:	2800      	cmp	r0, #0
10004368:	d0e6      	beq.n	10004338 <tud_cdc_n_write_flush+0xc>
1000436a:	23a2      	movs	r3, #162	; 0xa2
1000436c:	009b      	lsls	r3, r3, #2
1000436e:	469c      	mov	ip, r3
10004370:	4465      	add	r5, ip
10004372:	197d      	adds	r5, r7, r5
10004374:	0029      	movs	r1, r5
10004376:	0030      	movs	r0, r6
10004378:	2240      	movs	r2, #64	; 0x40
1000437a:	f000 fb7b 	bl	10004a74 <tu_fifo_read_n>
1000437e:	78a1      	ldrb	r1, [r4, #2]
10004380:	1e06      	subs	r6, r0, #0
10004382:	d008      	beq.n	10004396 <tud_cdc_n_write_flush+0x6a>
10004384:	0003      	movs	r3, r0
10004386:	002a      	movs	r2, r5
10004388:	2000      	movs	r0, #0
1000438a:	f7ff f96b 	bl	10003664 <usbd_edpt_xfer>
1000438e:	2800      	cmp	r0, #0
10004390:	d0d2      	beq.n	10004338 <tud_cdc_n_write_flush+0xc>
10004392:	0030      	movs	r0, r6
10004394:	e7d1      	b.n	1000433a <tud_cdc_n_write_flush+0xe>
10004396:	2000      	movs	r0, #0
10004398:	f7ff f950 	bl	1000363c <usbd_edpt_release>
1000439c:	e7cc      	b.n	10004338 <tud_cdc_n_write_flush+0xc>
1000439e:	46c0      	nop			; (mov r8, r8)
100043a0:	200018bc 	.word	0x200018bc

100043a4 <tud_cdc_n_write_available>:
100043a4:	0003      	movs	r3, r0
100043a6:	20b2      	movs	r0, #178	; 0xb2
100043a8:	0080      	lsls	r0, r0, #2
100043aa:	4358      	muls	r0, r3
100043ac:	b510      	push	{r4, lr}
100043ae:	4b03      	ldr	r3, [pc, #12]	; (100043bc <tud_cdc_n_write_available+0x18>)
100043b0:	3024      	adds	r0, #36	; 0x24
100043b2:	1818      	adds	r0, r3, r0
100043b4:	f000 fafa 	bl	100049ac <tu_fifo_remaining>
100043b8:	bd10      	pop	{r4, pc}
100043ba:	46c0      	nop			; (mov r8, r8)
100043bc:	200018bc 	.word	0x200018bc

100043c0 <cdcd_init>:
100043c0:	22b2      	movs	r2, #178	; 0xb2
100043c2:	b5f0      	push	{r4, r5, r6, r7, lr}
100043c4:	4c1b      	ldr	r4, [pc, #108]	; (10004434 <cdcd_init+0x74>)
100043c6:	b083      	sub	sp, #12
100043c8:	0092      	lsls	r2, r2, #2
100043ca:	2100      	movs	r1, #0
100043cc:	0020      	movs	r0, r4
100043ce:	f7fe f901 	bl	100025d4 <__wrap_memset>
100043d2:	23ff      	movs	r3, #255	; 0xff
100043d4:	7163      	strb	r3, [r4, #5]
100043d6:	4b18      	ldr	r3, [pc, #96]	; (10004438 <cdcd_init+0x78>)
100043d8:	2680      	movs	r6, #128	; 0x80
100043da:	2500      	movs	r5, #0
100043dc:	80e3      	strh	r3, [r4, #6]
100043de:	2701      	movs	r7, #1
100043e0:	2308      	movs	r3, #8
100043e2:	0021      	movs	r1, r4
100043e4:	0020      	movs	r0, r4
100043e6:	0076      	lsls	r6, r6, #1
100043e8:	7323      	strb	r3, [r4, #12]
100043ea:	8127      	strh	r7, [r4, #8]
100043ec:	0032      	movs	r2, r6
100043ee:	3138      	adds	r1, #56	; 0x38
100043f0:	9500      	str	r5, [sp, #0]
100043f2:	3b07      	subs	r3, #7
100043f4:	3010      	adds	r0, #16
100043f6:	f000 fa7f 	bl	100048f8 <tu_fifo_config>
100043fa:	0021      	movs	r1, r4
100043fc:	0020      	movs	r0, r4
100043fe:	3139      	adds	r1, #57	; 0x39
10004400:	0032      	movs	r2, r6
10004402:	31ff      	adds	r1, #255	; 0xff
10004404:	9700      	str	r7, [sp, #0]
10004406:	2301      	movs	r3, #1
10004408:	3024      	adds	r0, #36	; 0x24
1000440a:	f000 fa75 	bl	100048f8 <tu_fifo_config>
1000440e:	238e      	movs	r3, #142	; 0x8e
10004410:	009b      	lsls	r3, r3, #2
10004412:	18e6      	adds	r6, r4, r3
10004414:	0030      	movs	r0, r6
10004416:	f7fc fb41 	bl	10000a9c <mutex_init>
1000441a:	2390      	movs	r3, #144	; 0x90
1000441c:	009b      	lsls	r3, r3, #2
1000441e:	6226      	str	r6, [r4, #32]
10004420:	18e6      	adds	r6, r4, r3
10004422:	61e5      	str	r5, [r4, #28]
10004424:	0030      	movs	r0, r6
10004426:	f7fc fb39 	bl	10000a9c <mutex_init>
1000442a:	6326      	str	r6, [r4, #48]	; 0x30
1000442c:	6365      	str	r5, [r4, #52]	; 0x34
1000442e:	b003      	add	sp, #12
10004430:	bdf0      	pop	{r4, r5, r6, r7, pc}
10004432:	46c0      	nop			; (mov r8, r8)
10004434:	200018bc 	.word	0x200018bc
10004438:	ffffc200 	.word	0xffffc200

1000443c <cdcd_reset>:
1000443c:	b510      	push	{r4, lr}
1000443e:	4c09      	ldr	r4, [pc, #36]	; (10004464 <cdcd_reset+0x28>)
10004440:	2205      	movs	r2, #5
10004442:	2100      	movs	r1, #0
10004444:	0020      	movs	r0, r4
10004446:	f7fe f8c5 	bl	100025d4 <__wrap_memset>
1000444a:	0020      	movs	r0, r4
1000444c:	3424      	adds	r4, #36	; 0x24
1000444e:	3010      	adds	r0, #16
10004450:	f000 fc64 	bl	10004d1c <tu_fifo_clear>
10004454:	0020      	movs	r0, r4
10004456:	f000 fc61 	bl	10004d1c <tu_fifo_clear>
1000445a:	2101      	movs	r1, #1
1000445c:	0020      	movs	r0, r4
1000445e:	f000 fc7d 	bl	10004d5c <tu_fifo_set_overwritable>
10004462:	bd10      	pop	{r4, pc}
10004464:	200018bc 	.word	0x200018bc

10004468 <cdcd_open>:
10004468:	b5f0      	push	{r4, r5, r6, r7, lr}
1000446a:	46c6      	mov	lr, r8
1000446c:	b500      	push	{lr}
1000446e:	794b      	ldrb	r3, [r1, #5]
10004470:	b082      	sub	sp, #8
10004472:	0007      	movs	r7, r0
10004474:	2b02      	cmp	r3, #2
10004476:	d005      	beq.n	10004484 <cdcd_open+0x1c>
10004478:	2400      	movs	r4, #0
1000447a:	0020      	movs	r0, r4
1000447c:	b002      	add	sp, #8
1000447e:	bc04      	pop	{r2}
10004480:	4690      	mov	r8, r2
10004482:	bdf0      	pop	{r4, r5, r6, r7, pc}
10004484:	798b      	ldrb	r3, [r1, #6]
10004486:	2b02      	cmp	r3, #2
10004488:	d1f6      	bne.n	10004478 <cdcd_open+0x10>
1000448a:	4e30      	ldr	r6, [pc, #192]	; (1000454c <cdcd_open+0xe4>)
1000448c:	78b3      	ldrb	r3, [r6, #2]
1000448e:	2b00      	cmp	r3, #0
10004490:	d1f2      	bne.n	10004478 <cdcd_open+0x10>
10004492:	788b      	ldrb	r3, [r1, #2]
10004494:	2409      	movs	r4, #9
10004496:	7033      	strb	r3, [r6, #0]
10004498:	780d      	ldrb	r5, [r1, #0]
1000449a:	194d      	adds	r5, r1, r5
1000449c:	786b      	ldrb	r3, [r5, #1]
1000449e:	2b24      	cmp	r3, #36	; 0x24
100044a0:	d10b      	bne.n	100044ba <cdcd_open+0x52>
100044a2:	2a08      	cmp	r2, #8
100044a4:	d802      	bhi.n	100044ac <cdcd_open+0x44>
100044a6:	e00f      	b.n	100044c8 <cdcd_open+0x60>
100044a8:	42a2      	cmp	r2, r4
100044aa:	d30d      	bcc.n	100044c8 <cdcd_open+0x60>
100044ac:	782b      	ldrb	r3, [r5, #0]
100044ae:	18ed      	adds	r5, r5, r3
100044b0:	18e4      	adds	r4, r4, r3
100044b2:	786b      	ldrb	r3, [r5, #1]
100044b4:	b2a4      	uxth	r4, r4
100044b6:	2b24      	cmp	r3, #36	; 0x24
100044b8:	d0f6      	beq.n	100044a8 <cdcd_open+0x40>
100044ba:	2b05      	cmp	r3, #5
100044bc:	d01b      	beq.n	100044f6 <cdcd_open+0x8e>
100044be:	2b04      	cmp	r3, #4
100044c0:	d102      	bne.n	100044c8 <cdcd_open+0x60>
100044c2:	796b      	ldrb	r3, [r5, #5]
100044c4:	2b0a      	cmp	r3, #10
100044c6:	d024      	beq.n	10004512 <cdcd_open+0xaa>
100044c8:	0035      	movs	r5, r6
100044ca:	3510      	adds	r5, #16
100044cc:	0028      	movs	r0, r5
100044ce:	f000 fa6d 	bl	100049ac <tu_fifo_remaining>
100044d2:	283f      	cmp	r0, #63	; 0x3f
100044d4:	d9d1      	bls.n	1000447a <cdcd_open+0x12>
100044d6:	78f1      	ldrb	r1, [r6, #3]
100044d8:	2000      	movs	r0, #0
100044da:	f7ff f89b 	bl	10003614 <usbd_edpt_claim>
100044de:	2800      	cmp	r0, #0
100044e0:	d0cb      	beq.n	1000447a <cdcd_open+0x12>
100044e2:	0028      	movs	r0, r5
100044e4:	f000 fa62 	bl	100049ac <tu_fifo_remaining>
100044e8:	283f      	cmp	r0, #63	; 0x3f
100044ea:	d825      	bhi.n	10004538 <cdcd_open+0xd0>
100044ec:	78f1      	ldrb	r1, [r6, #3]
100044ee:	2000      	movs	r0, #0
100044f0:	f7ff f8a4 	bl	1000363c <usbd_edpt_release>
100044f4:	e7c1      	b.n	1000447a <cdcd_open+0x12>
100044f6:	0029      	movs	r1, r5
100044f8:	0038      	movs	r0, r7
100044fa:	f7ff f86f 	bl	100035dc <usbd_edpt_open>
100044fe:	2800      	cmp	r0, #0
10004500:	d0ba      	beq.n	10004478 <cdcd_open+0x10>
10004502:	78ab      	ldrb	r3, [r5, #2]
10004504:	7073      	strb	r3, [r6, #1]
10004506:	782b      	ldrb	r3, [r5, #0]
10004508:	18e4      	adds	r4, r4, r3
1000450a:	18ed      	adds	r5, r5, r3
1000450c:	b2a4      	uxth	r4, r4
1000450e:	786b      	ldrb	r3, [r5, #1]
10004510:	e7d5      	b.n	100044be <cdcd_open+0x56>
10004512:	782b      	ldrb	r3, [r5, #0]
10004514:	0029      	movs	r1, r5
10004516:	4698      	mov	r8, r3
10004518:	1cb3      	adds	r3, r6, #2
1000451a:	9301      	str	r3, [sp, #4]
1000451c:	1cf3      	adds	r3, r6, #3
1000451e:	9300      	str	r3, [sp, #0]
10004520:	4441      	add	r1, r8
10004522:	2302      	movs	r3, #2
10004524:	2202      	movs	r2, #2
10004526:	0038      	movs	r0, r7
10004528:	f7fe ffd0 	bl	100034cc <usbd_open_edpt_pair>
1000452c:	2800      	cmp	r0, #0
1000452e:	d0a3      	beq.n	10004478 <cdcd_open+0x10>
10004530:	340e      	adds	r4, #14
10004532:	4444      	add	r4, r8
10004534:	b2a4      	uxth	r4, r4
10004536:	e7c7      	b.n	100044c8 <cdcd_open+0x60>
10004538:	2392      	movs	r3, #146	; 0x92
1000453a:	009b      	lsls	r3, r3, #2
1000453c:	18f2      	adds	r2, r6, r3
1000453e:	78f1      	ldrb	r1, [r6, #3]
10004540:	2340      	movs	r3, #64	; 0x40
10004542:	2000      	movs	r0, #0
10004544:	f7ff f88e 	bl	10003664 <usbd_edpt_xfer>
10004548:	e797      	b.n	1000447a <cdcd_open+0x12>
1000454a:	46c0      	nop			; (mov r8, r8)
1000454c:	200018bc 	.word	0x200018bc

10004550 <cdcd_control_xfer_cb>:
10004550:	b5f8      	push	{r3, r4, r5, r6, r7, lr}
10004552:	2360      	movs	r3, #96	; 0x60
10004554:	0014      	movs	r4, r2
10004556:	7812      	ldrb	r2, [r2, #0]
10004558:	2700      	movs	r7, #0
1000455a:	4013      	ands	r3, r2
1000455c:	2b20      	cmp	r3, #32
1000455e:	d001      	beq.n	10004564 <cdcd_control_xfer_cb+0x14>
10004560:	0038      	movs	r0, r7
10004562:	bdf8      	pop	{r3, r4, r5, r6, r7, pc}
10004564:	4a2e      	ldr	r2, [pc, #184]	; (10004620 <cdcd_control_xfer_cb+0xd0>)
10004566:	7963      	ldrb	r3, [r4, #5]
10004568:	7926      	ldrb	r6, [r4, #4]
1000456a:	7815      	ldrb	r5, [r2, #0]
1000456c:	021b      	lsls	r3, r3, #8
1000456e:	4333      	orrs	r3, r6
10004570:	429d      	cmp	r5, r3
10004572:	d1f5      	bne.n	10004560 <cdcd_control_xfer_cb+0x10>
10004574:	7863      	ldrb	r3, [r4, #1]
10004576:	2b21      	cmp	r3, #33	; 0x21
10004578:	d043      	beq.n	10004602 <cdcd_control_xfer_cb+0xb2>
1000457a:	d909      	bls.n	10004590 <cdcd_control_xfer_cb+0x40>
1000457c:	2b22      	cmp	r3, #34	; 0x22
1000457e:	d024      	beq.n	100045ca <cdcd_control_xfer_cb+0x7a>
10004580:	2b23      	cmp	r3, #35	; 0x23
10004582:	d114      	bne.n	100045ae <cdcd_control_xfer_cb+0x5e>
10004584:	2901      	cmp	r1, #1
10004586:	d045      	beq.n	10004614 <cdcd_control_xfer_cb+0xc4>
10004588:	2903      	cmp	r1, #3
1000458a:	d012      	beq.n	100045b2 <cdcd_control_xfer_cb+0x62>
1000458c:	2701      	movs	r7, #1
1000458e:	e7e7      	b.n	10004560 <cdcd_control_xfer_cb+0x10>
10004590:	2b20      	cmp	r3, #32
10004592:	d10c      	bne.n	100045ae <cdcd_control_xfer_cb+0x5e>
10004594:	2901      	cmp	r1, #1
10004596:	d036      	beq.n	10004606 <cdcd_control_xfer_cb+0xb6>
10004598:	2903      	cmp	r1, #3
1000459a:	d1f7      	bne.n	1000458c <cdcd_control_xfer_cb+0x3c>
1000459c:	4b21      	ldr	r3, [pc, #132]	; (10004624 <cdcd_control_xfer_cb+0xd4>)
1000459e:	2b00      	cmp	r3, #0
100045a0:	d0f4      	beq.n	1000458c <cdcd_control_xfer_cb+0x3c>
100045a2:	1d91      	adds	r1, r2, #6
100045a4:	2000      	movs	r0, #0
100045a6:	f7fe fa3f 	bl	10002a28 <tud_cdc_line_coding_cb>
100045aa:	2701      	movs	r7, #1
100045ac:	e7d8      	b.n	10004560 <cdcd_control_xfer_cb+0x10>
100045ae:	2700      	movs	r7, #0
100045b0:	e7d6      	b.n	10004560 <cdcd_control_xfer_cb+0x10>
100045b2:	4b1d      	ldr	r3, [pc, #116]	; (10004628 <cdcd_control_xfer_cb+0xd8>)
100045b4:	2b00      	cmp	r3, #0
100045b6:	d0e9      	beq.n	1000458c <cdcd_control_xfer_cb+0x3c>
100045b8:	78e1      	ldrb	r1, [r4, #3]
100045ba:	78a3      	ldrb	r3, [r4, #2]
100045bc:	0209      	lsls	r1, r1, #8
100045be:	4319      	orrs	r1, r3
100045c0:	2000      	movs	r0, #0
100045c2:	e000      	b.n	100045c6 <cdcd_control_xfer_cb+0x76>
100045c4:	bf00      	nop
100045c6:	2701      	movs	r7, #1
100045c8:	e7ca      	b.n	10004560 <cdcd_control_xfer_cb+0x10>
100045ca:	2901      	cmp	r1, #1
100045cc:	d022      	beq.n	10004614 <cdcd_control_xfer_cb+0xc4>
100045ce:	2903      	cmp	r1, #3
100045d0:	d1dc      	bne.n	1000458c <cdcd_control_xfer_cb+0x3c>
100045d2:	2501      	movs	r5, #1
100045d4:	78a1      	ldrb	r1, [r4, #2]
100045d6:	78e4      	ldrb	r4, [r4, #3]
100045d8:	0224      	lsls	r4, r4, #8
100045da:	430c      	orrs	r4, r1
100045dc:	0029      	movs	r1, r5
100045de:	7114      	strb	r4, [r2, #4]
100045e0:	3224      	adds	r2, #36	; 0x24
100045e2:	43a1      	bics	r1, r4
100045e4:	0010      	movs	r0, r2
100045e6:	f000 fbb9 	bl	10004d5c <tu_fifo_set_overwritable>
100045ea:	4b10      	ldr	r3, [pc, #64]	; (1000462c <cdcd_control_xfer_cb+0xdc>)
100045ec:	2b00      	cmp	r3, #0
100045ee:	d0cd      	beq.n	1000458c <cdcd_control_xfer_cb+0x3c>
100045f0:	0029      	movs	r1, r5
100045f2:	0862      	lsrs	r2, r4, #1
100045f4:	402a      	ands	r2, r5
100045f6:	4021      	ands	r1, r4
100045f8:	2000      	movs	r0, #0
100045fa:	e000      	b.n	100045fe <cdcd_control_xfer_cb+0xae>
100045fc:	bf00      	nop
100045fe:	2701      	movs	r7, #1
10004600:	e7ae      	b.n	10004560 <cdcd_control_xfer_cb+0x10>
10004602:	2901      	cmp	r1, #1
10004604:	d1c2      	bne.n	1000458c <cdcd_control_xfer_cb+0x3c>
10004606:	3206      	adds	r2, #6
10004608:	2307      	movs	r3, #7
1000460a:	0021      	movs	r1, r4
1000460c:	f7ff fcf8 	bl	10004000 <tud_control_xfer>
10004610:	2701      	movs	r7, #1
10004612:	e7a5      	b.n	10004560 <cdcd_control_xfer_cb+0x10>
10004614:	0021      	movs	r1, r4
10004616:	f7ff fcdb 	bl	10003fd0 <tud_control_status>
1000461a:	2701      	movs	r7, #1
1000461c:	e7a0      	b.n	10004560 <cdcd_control_xfer_cb+0x10>
1000461e:	46c0      	nop			; (mov r8, r8)
10004620:	200018bc 	.word	0x200018bc
10004624:	10002a29 	.word	0x10002a29
	...

10004630 <cdcd_xfer_cb>:
10004630:	b5f0      	push	{r4, r5, r6, r7, lr}
10004632:	4646      	mov	r6, r8
10004634:	464f      	mov	r7, r9
10004636:	46d6      	mov	lr, sl
10004638:	b5c0      	push	{r6, r7, lr}
1000463a:	4d5e      	ldr	r5, [pc, #376]	; (100047b4 <cdcd_xfer_cb+0x184>)
1000463c:	4698      	mov	r8, r3
1000463e:	78eb      	ldrb	r3, [r5, #3]
10004640:	b082      	sub	sp, #8
10004642:	4681      	mov	r9, r0
10004644:	000e      	movs	r6, r1
10004646:	428b      	cmp	r3, r1
10004648:	d100      	bne.n	1000464c <cdcd_xfer_cb+0x1c>
1000464a:	e076      	b.n	1000473a <cdcd_xfer_cb+0x10a>
1000464c:	78ab      	ldrb	r3, [r5, #2]
1000464e:	428b      	cmp	r3, r1
10004650:	d02c      	beq.n	100046ac <cdcd_xfer_cb+0x7c>
10004652:	2400      	movs	r4, #0
10004654:	0020      	movs	r0, r4
10004656:	b002      	add	sp, #8
10004658:	bc1c      	pop	{r2, r3, r4}
1000465a:	4690      	mov	r8, r2
1000465c:	4699      	mov	r9, r3
1000465e:	46a2      	mov	sl, r4
10004660:	bdf0      	pop	{r4, r5, r6, r7, pc}
10004662:	4b55      	ldr	r3, [pc, #340]	; (100047b8 <cdcd_xfer_cb+0x188>)
10004664:	2b00      	cmp	r3, #0
10004666:	d007      	beq.n	10004678 <cdcd_xfer_cb+0x48>
10004668:	0028      	movs	r0, r5
1000466a:	3010      	adds	r0, #16
1000466c:	f000 f996 	bl	1000499c <tu_fifo_empty>
10004670:	2800      	cmp	r0, #0
10004672:	d101      	bne.n	10004678 <cdcd_xfer_cb+0x48>
10004674:	f7fe fb44 	bl	10002d00 <tud_cdc_rx_cb>
10004678:	002c      	movs	r4, r5
1000467a:	3410      	adds	r4, #16
1000467c:	0020      	movs	r0, r4
1000467e:	f000 f995 	bl	100049ac <tu_fifo_remaining>
10004682:	283f      	cmp	r0, #63	; 0x3f
10004684:	d90f      	bls.n	100046a6 <cdcd_xfer_cb+0x76>
10004686:	78e9      	ldrb	r1, [r5, #3]
10004688:	2000      	movs	r0, #0
1000468a:	f7fe ffc3 	bl	10003614 <usbd_edpt_claim>
1000468e:	2800      	cmp	r0, #0
10004690:	d009      	beq.n	100046a6 <cdcd_xfer_cb+0x76>
10004692:	0020      	movs	r0, r4
10004694:	f000 f98a 	bl	100049ac <tu_fifo_remaining>
10004698:	283f      	cmp	r0, #63	; 0x3f
1000469a:	d900      	bls.n	1000469e <cdcd_xfer_cb+0x6e>
1000469c:	e080      	b.n	100047a0 <cdcd_xfer_cb+0x170>
1000469e:	78e9      	ldrb	r1, [r5, #3]
100046a0:	2000      	movs	r0, #0
100046a2:	f7fe ffcb 	bl	1000363c <usbd_edpt_release>
100046a6:	78ab      	ldrb	r3, [r5, #2]
100046a8:	429e      	cmp	r6, r3
100046aa:	d144      	bne.n	10004736 <cdcd_xfer_cb+0x106>
100046ac:	4b43      	ldr	r3, [pc, #268]	; (100047bc <cdcd_xfer_cb+0x18c>)
100046ae:	2b00      	cmp	r3, #0
100046b0:	d002      	beq.n	100046b8 <cdcd_xfer_cb+0x88>
100046b2:	2000      	movs	r0, #0
100046b4:	e000      	b.n	100046b8 <cdcd_xfer_cb+0x88>
100046b6:	bf00      	nop
100046b8:	f7fe fe80 	bl	100033bc <tud_mounted>
100046bc:	2800      	cmp	r0, #0
100046be:	d117      	bne.n	100046f0 <cdcd_xfer_cb+0xc0>
100046c0:	0028      	movs	r0, r5
100046c2:	3024      	adds	r0, #36	; 0x24
100046c4:	f000 f956 	bl	10004974 <tu_fifo_count>
100046c8:	2800      	cmp	r0, #0
100046ca:	d134      	bne.n	10004736 <cdcd_xfer_cb+0x106>
100046cc:	4643      	mov	r3, r8
100046ce:	2b00      	cmp	r3, #0
100046d0:	d031      	beq.n	10004736 <cdcd_xfer_cb+0x106>
100046d2:	069b      	lsls	r3, r3, #26
100046d4:	d12f      	bne.n	10004736 <cdcd_xfer_cb+0x106>
100046d6:	78a9      	ldrb	r1, [r5, #2]
100046d8:	4648      	mov	r0, r9
100046da:	f7fe ff9b 	bl	10003614 <usbd_edpt_claim>
100046de:	1e04      	subs	r4, r0, #0
100046e0:	d029      	beq.n	10004736 <cdcd_xfer_cb+0x106>
100046e2:	78a9      	ldrb	r1, [r5, #2]
100046e4:	2300      	movs	r3, #0
100046e6:	2200      	movs	r2, #0
100046e8:	4648      	mov	r0, r9
100046ea:	f7fe ffbb 	bl	10003664 <usbd_edpt_xfer>
100046ee:	e7b1      	b.n	10004654 <cdcd_xfer_cb+0x24>
100046f0:	f7fe fe6c 	bl	100033cc <tud_suspended>
100046f4:	2800      	cmp	r0, #0
100046f6:	d1e3      	bne.n	100046c0 <cdcd_xfer_cb+0x90>
100046f8:	002c      	movs	r4, r5
100046fa:	3424      	adds	r4, #36	; 0x24
100046fc:	0020      	movs	r0, r4
100046fe:	f000 f939 	bl	10004974 <tu_fifo_count>
10004702:	2800      	cmp	r0, #0
10004704:	d0dc      	beq.n	100046c0 <cdcd_xfer_cb+0x90>
10004706:	78a9      	ldrb	r1, [r5, #2]
10004708:	2000      	movs	r0, #0
1000470a:	f7fe ff83 	bl	10003614 <usbd_edpt_claim>
1000470e:	2800      	cmp	r0, #0
10004710:	d0d6      	beq.n	100046c0 <cdcd_xfer_cb+0x90>
10004712:	23a2      	movs	r3, #162	; 0xa2
10004714:	009b      	lsls	r3, r3, #2
10004716:	18ee      	adds	r6, r5, r3
10004718:	0031      	movs	r1, r6
1000471a:	2240      	movs	r2, #64	; 0x40
1000471c:	0020      	movs	r0, r4
1000471e:	f000 f9a9 	bl	10004a74 <tu_fifo_read_n>
10004722:	78a9      	ldrb	r1, [r5, #2]
10004724:	2800      	cmp	r0, #0
10004726:	d037      	beq.n	10004798 <cdcd_xfer_cb+0x168>
10004728:	0003      	movs	r3, r0
1000472a:	0032      	movs	r2, r6
1000472c:	2000      	movs	r0, #0
1000472e:	f7fe ff99 	bl	10003664 <usbd_edpt_xfer>
10004732:	2800      	cmp	r0, #0
10004734:	d0c4      	beq.n	100046c0 <cdcd_xfer_cb+0x90>
10004736:	2401      	movs	r4, #1
10004738:	e78c      	b.n	10004654 <cdcd_xfer_cb+0x24>
1000473a:	4643      	mov	r3, r8
1000473c:	466a      	mov	r2, sp
1000473e:	80d3      	strh	r3, [r2, #6]
10004740:	2392      	movs	r3, #146	; 0x92
10004742:	009b      	lsls	r3, r3, #2
10004744:	18ec      	adds	r4, r5, r3
10004746:	2310      	movs	r3, #16
10004748:	469a      	mov	sl, r3
1000474a:	44aa      	add	sl, r5
1000474c:	88d2      	ldrh	r2, [r2, #6]
1000474e:	0021      	movs	r1, r4
10004750:	4650      	mov	r0, sl
10004752:	f000 fa49 	bl	10004be8 <tu_fifo_write_n>
10004756:	4b1a      	ldr	r3, [pc, #104]	; (100047c0 <cdcd_xfer_cb+0x190>)
10004758:	2b00      	cmp	r3, #0
1000475a:	d082      	beq.n	10004662 <cdcd_xfer_cb+0x32>
1000475c:	796b      	ldrb	r3, [r5, #5]
1000475e:	2bff      	cmp	r3, #255	; 0xff
10004760:	d100      	bne.n	10004764 <cdcd_xfer_cb+0x134>
10004762:	e77e      	b.n	10004662 <cdcd_xfer_cb+0x32>
10004764:	4642      	mov	r2, r8
10004766:	2a00      	cmp	r2, #0
10004768:	d100      	bne.n	1000476c <cdcd_xfer_cb+0x13c>
1000476a:	e77a      	b.n	10004662 <cdcd_xfer_cb+0x32>
1000476c:	2792      	movs	r7, #146	; 0x92
1000476e:	00bf      	lsls	r7, r7, #2
10004770:	4447      	add	r7, r8
10004772:	19ef      	adds	r7, r5, r7
10004774:	e004      	b.n	10004780 <cdcd_xfer_cb+0x150>
10004776:	3401      	adds	r4, #1
10004778:	42bc      	cmp	r4, r7
1000477a:	d100      	bne.n	1000477e <cdcd_xfer_cb+0x14e>
1000477c:	e771      	b.n	10004662 <cdcd_xfer_cb+0x32>
1000477e:	796b      	ldrb	r3, [r5, #5]
10004780:	7822      	ldrb	r2, [r4, #0]
10004782:	429a      	cmp	r2, r3
10004784:	d1f7      	bne.n	10004776 <cdcd_xfer_cb+0x146>
10004786:	4650      	mov	r0, sl
10004788:	f000 f908 	bl	1000499c <tu_fifo_empty>
1000478c:	2800      	cmp	r0, #0
1000478e:	d1f2      	bne.n	10004776 <cdcd_xfer_cb+0x146>
10004790:	7969      	ldrb	r1, [r5, #5]
10004792:	e000      	b.n	10004796 <cdcd_xfer_cb+0x166>
10004794:	bf00      	nop
10004796:	e7ee      	b.n	10004776 <cdcd_xfer_cb+0x146>
10004798:	2000      	movs	r0, #0
1000479a:	f7fe ff4f 	bl	1000363c <usbd_edpt_release>
1000479e:	e78f      	b.n	100046c0 <cdcd_xfer_cb+0x90>
100047a0:	2392      	movs	r3, #146	; 0x92
100047a2:	009b      	lsls	r3, r3, #2
100047a4:	18ea      	adds	r2, r5, r3
100047a6:	78e9      	ldrb	r1, [r5, #3]
100047a8:	2340      	movs	r3, #64	; 0x40
100047aa:	2000      	movs	r0, #0
100047ac:	f7fe ff5a 	bl	10003664 <usbd_edpt_xfer>
100047b0:	78ab      	ldrb	r3, [r5, #2]
100047b2:	e779      	b.n	100046a8 <cdcd_xfer_cb+0x78>
100047b4:	200018bc 	.word	0x200018bc
100047b8:	10002d01 	.word	0x10002d01
	...

100047c4 <tusb_init>:
100047c4:	b510      	push	{r4, lr}
100047c6:	2000      	movs	r0, #0
100047c8:	f7fe fe12 	bl	100033f0 <tud_init>
100047cc:	bd10      	pop	{r4, pc}
100047ce:	46c0      	nop			; (mov r8, r8)

100047d0 <tusb_inited>:
100047d0:	b510      	push	{r4, lr}
100047d2:	f7fe fe03 	bl	100033dc <tud_inited>
100047d6:	bd10      	pop	{r4, pc}

100047d8 <tu_edpt_claim>:
100047d8:	7803      	ldrb	r3, [r0, #0]
100047da:	b570      	push	{r4, r5, r6, lr}
100047dc:	07db      	lsls	r3, r3, #31
100047de:	0005      	movs	r5, r0
100047e0:	000e      	movs	r6, r1
100047e2:	0fdb      	lsrs	r3, r3, #31
100047e4:	2000      	movs	r0, #0
100047e6:	2b00      	cmp	r3, #0
100047e8:	d103      	bne.n	100047f2 <tu_edpt_claim+0x1a>
100047ea:	782a      	ldrb	r2, [r5, #0]
100047ec:	0018      	movs	r0, r3
100047ee:	0753      	lsls	r3, r2, #29
100047f0:	d500      	bpl.n	100047f4 <tu_edpt_claim+0x1c>
100047f2:	bd70      	pop	{r4, r5, r6, pc}
100047f4:	2101      	movs	r1, #1
100047f6:	0030      	movs	r0, r6
100047f8:	4249      	negs	r1, r1
100047fa:	f001 fba5 	bl	10005f48 <__mutex_enter_timeout_ms_veneer>
100047fe:	782b      	ldrb	r3, [r5, #0]
10004800:	2400      	movs	r4, #0
10004802:	07db      	lsls	r3, r3, #31
10004804:	d407      	bmi.n	10004816 <tu_edpt_claim+0x3e>
10004806:	782b      	ldrb	r3, [r5, #0]
10004808:	075b      	lsls	r3, r3, #29
1000480a:	d404      	bmi.n	10004816 <tu_edpt_claim+0x3e>
1000480c:	2204      	movs	r2, #4
1000480e:	2401      	movs	r4, #1
10004810:	782b      	ldrb	r3, [r5, #0]
10004812:	4313      	orrs	r3, r2
10004814:	702b      	strb	r3, [r5, #0]
10004816:	0030      	movs	r0, r6
10004818:	f001 fb7e 	bl	10005f18 <__mutex_exit_veneer>
1000481c:	0020      	movs	r0, r4
1000481e:	e7e8      	b.n	100047f2 <tu_edpt_claim+0x1a>

10004820 <tu_edpt_release>:
10004820:	b570      	push	{r4, r5, r6, lr}
10004822:	000d      	movs	r5, r1
10004824:	2101      	movs	r1, #1
10004826:	0004      	movs	r4, r0
10004828:	4249      	negs	r1, r1
1000482a:	0028      	movs	r0, r5
1000482c:	f001 fb8c 	bl	10005f48 <__mutex_enter_timeout_ms_veneer>
10004830:	7823      	ldrb	r3, [r4, #0]
10004832:	2600      	movs	r6, #0
10004834:	075b      	lsls	r3, r3, #29
10004836:	d404      	bmi.n	10004842 <tu_edpt_release+0x22>
10004838:	0028      	movs	r0, r5
1000483a:	f001 fb6d 	bl	10005f18 <__mutex_exit_veneer>
1000483e:	0030      	movs	r0, r6
10004840:	bd70      	pop	{r4, r5, r6, pc}
10004842:	7823      	ldrb	r3, [r4, #0]
10004844:	07db      	lsls	r3, r3, #31
10004846:	d4f7      	bmi.n	10004838 <tu_edpt_release+0x18>
10004848:	2204      	movs	r2, #4
1000484a:	7823      	ldrb	r3, [r4, #0]
1000484c:	3601      	adds	r6, #1
1000484e:	4393      	bics	r3, r2
10004850:	7023      	strb	r3, [r4, #0]
10004852:	e7f1      	b.n	10004838 <tu_edpt_release+0x18>

10004854 <tu_edpt_validate>:
10004854:	7943      	ldrb	r3, [r0, #5]
10004856:	7902      	ldrb	r2, [r0, #4]
10004858:	021b      	lsls	r3, r3, #8
1000485a:	4313      	orrs	r3, r2
1000485c:	78c2      	ldrb	r2, [r0, #3]
1000485e:	055b      	lsls	r3, r3, #21
10004860:	0792      	lsls	r2, r2, #30
10004862:	0d5b      	lsrs	r3, r3, #21
10004864:	0f92      	lsrs	r2, r2, #30
10004866:	2a02      	cmp	r2, #2
10004868:	d016      	beq.n	10004898 <tu_edpt_validate+0x44>
1000486a:	d80d      	bhi.n	10004888 <tu_edpt_validate+0x34>
1000486c:	2000      	movs	r0, #0
1000486e:	2a01      	cmp	r2, #1
10004870:	d109      	bne.n	10004886 <tu_edpt_validate+0x32>
10004872:	3902      	subs	r1, #2
10004874:	424a      	negs	r2, r1
10004876:	4151      	adcs	r1, r2
10004878:	4a10      	ldr	r2, [pc, #64]	; (100048bc <tu_edpt_validate+0x68>)
1000487a:	2000      	movs	r0, #0
1000487c:	4694      	mov	ip, r2
1000487e:	4461      	add	r1, ip
10004880:	4299      	cmp	r1, r3
10004882:	4140      	adcs	r0, r0
10004884:	b2c0      	uxtb	r0, r0
10004886:	4770      	bx	lr
10004888:	2902      	cmp	r1, #2
1000488a:	d014      	beq.n	100048b6 <tu_edpt_validate+0x62>
1000488c:	2240      	movs	r2, #64	; 0x40
1000488e:	2000      	movs	r0, #0
10004890:	429a      	cmp	r2, r3
10004892:	4140      	adcs	r0, r0
10004894:	b2c0      	uxtb	r0, r0
10004896:	e7f6      	b.n	10004886 <tu_edpt_validate+0x32>
10004898:	2902      	cmp	r1, #2
1000489a:	d005      	beq.n	100048a8 <tu_edpt_validate+0x54>
1000489c:	2000      	movs	r0, #0
1000489e:	2240      	movs	r2, #64	; 0x40
100048a0:	429a      	cmp	r2, r3
100048a2:	4140      	adcs	r0, r0
100048a4:	b2c0      	uxtb	r0, r0
100048a6:	e7ee      	b.n	10004886 <tu_edpt_validate+0x32>
100048a8:	4a05      	ldr	r2, [pc, #20]	; (100048c0 <tu_edpt_validate+0x6c>)
100048aa:	4694      	mov	ip, r2
100048ac:	4463      	add	r3, ip
100048ae:	4258      	negs	r0, r3
100048b0:	4158      	adcs	r0, r3
100048b2:	b2c0      	uxtb	r0, r0
100048b4:	e7e7      	b.n	10004886 <tu_edpt_validate+0x32>
100048b6:	2280      	movs	r2, #128	; 0x80
100048b8:	00d2      	lsls	r2, r2, #3
100048ba:	e7e8      	b.n	1000488e <tu_edpt_validate+0x3a>
100048bc:	000003ff 	.word	0x000003ff
100048c0:	fffffe00 	.word	0xfffffe00

100048c4 <tu_edpt_bind_driver>:
100048c4:	188a      	adds	r2, r1, r2
100048c6:	b570      	push	{r4, r5, r6, lr}
100048c8:	267f      	movs	r6, #127	; 0x7f
100048ca:	4291      	cmp	r1, r2
100048cc:	d304      	bcc.n	100048d8 <tu_edpt_bind_driver+0x14>
100048ce:	e011      	b.n	100048f4 <tu_edpt_bind_driver+0x30>
100048d0:	780c      	ldrb	r4, [r1, #0]
100048d2:	1909      	adds	r1, r1, r4
100048d4:	428a      	cmp	r2, r1
100048d6:	d90d      	bls.n	100048f4 <tu_edpt_bind_driver+0x30>
100048d8:	784c      	ldrb	r4, [r1, #1]
100048da:	2c05      	cmp	r4, #5
100048dc:	d1f8      	bne.n	100048d0 <tu_edpt_bind_driver+0xc>
100048de:	0034      	movs	r4, r6
100048e0:	788d      	ldrb	r5, [r1, #2]
100048e2:	402c      	ands	r4, r5
100048e4:	0064      	lsls	r4, r4, #1
100048e6:	1904      	adds	r4, r0, r4
100048e8:	09ed      	lsrs	r5, r5, #7
100048ea:	5563      	strb	r3, [r4, r5]
100048ec:	780c      	ldrb	r4, [r1, #0]
100048ee:	1909      	adds	r1, r1, r4
100048f0:	428a      	cmp	r2, r1
100048f2:	d8f1      	bhi.n	100048d8 <tu_edpt_bind_driver+0x14>
100048f4:	bd70      	pop	{r4, r5, r6, pc}
100048f6:	46c0      	nop			; (mov r8, r8)

100048f8 <tu_fifo_config>:
100048f8:	b5f0      	push	{r4, r5, r6, r7, lr}
100048fa:	46c6      	mov	lr, r8
100048fc:	b500      	push	{lr}
100048fe:	001d      	movs	r5, r3
10004900:	ab06      	add	r3, sp, #24
10004902:	781e      	ldrb	r6, [r3, #0]
10004904:	2380      	movs	r3, #128	; 0x80
10004906:	0004      	movs	r4, r0
10004908:	4688      	mov	r8, r1
1000490a:	0017      	movs	r7, r2
1000490c:	021b      	lsls	r3, r3, #8
1000490e:	2000      	movs	r0, #0
10004910:	429a      	cmp	r2, r3
10004912:	d82a      	bhi.n	1000496a <tu_fifo_config+0x72>
10004914:	68e0      	ldr	r0, [r4, #12]
10004916:	2800      	cmp	r0, #0
10004918:	d003      	beq.n	10004922 <tu_fifo_config+0x2a>
1000491a:	2101      	movs	r1, #1
1000491c:	4249      	negs	r1, r1
1000491e:	f001 fb13 	bl	10005f48 <__mutex_enter_timeout_ms_veneer>
10004922:	6920      	ldr	r0, [r4, #16]
10004924:	2800      	cmp	r0, #0
10004926:	d003      	beq.n	10004930 <tu_fifo_config+0x38>
10004928:	2101      	movs	r1, #1
1000492a:	4249      	negs	r1, r1
1000492c:	f001 fb0c 	bl	10005f48 <__mutex_enter_timeout_ms_veneer>
10004930:	4643      	mov	r3, r8
10004932:	6023      	str	r3, [r4, #0]
10004934:	88e3      	ldrh	r3, [r4, #6]
10004936:	046d      	lsls	r5, r5, #17
10004938:	0bdb      	lsrs	r3, r3, #15
1000493a:	0c6d      	lsrs	r5, r5, #17
1000493c:	03db      	lsls	r3, r3, #15
1000493e:	432b      	orrs	r3, r5
10004940:	80e3      	strh	r3, [r4, #6]
10004942:	045b      	lsls	r3, r3, #17
10004944:	01f6      	lsls	r6, r6, #7
10004946:	0e5b      	lsrs	r3, r3, #25
10004948:	4333      	orrs	r3, r6
1000494a:	71e3      	strb	r3, [r4, #7]
1000494c:	2300      	movs	r3, #0
1000494e:	68e0      	ldr	r0, [r4, #12]
10004950:	8163      	strh	r3, [r4, #10]
10004952:	80a7      	strh	r7, [r4, #4]
10004954:	8123      	strh	r3, [r4, #8]
10004956:	2800      	cmp	r0, #0
10004958:	d001      	beq.n	1000495e <tu_fifo_config+0x66>
1000495a:	f001 fadd 	bl	10005f18 <__mutex_exit_veneer>
1000495e:	6920      	ldr	r0, [r4, #16]
10004960:	2800      	cmp	r0, #0
10004962:	d005      	beq.n	10004970 <tu_fifo_config+0x78>
10004964:	f001 fad8 	bl	10005f18 <__mutex_exit_veneer>
10004968:	2001      	movs	r0, #1
1000496a:	bc04      	pop	{r2}
1000496c:	4690      	mov	r8, r2
1000496e:	bdf0      	pop	{r4, r5, r6, r7, pc}
10004970:	2001      	movs	r0, #1
10004972:	e7fa      	b.n	1000496a <tu_fifo_config+0x72>

10004974 <tu_fifo_count>:
10004974:	8903      	ldrh	r3, [r0, #8]
10004976:	8942      	ldrh	r2, [r0, #10]
10004978:	b29b      	uxth	r3, r3
1000497a:	b292      	uxth	r2, r2
1000497c:	8881      	ldrh	r1, [r0, #4]
1000497e:	4293      	cmp	r3, r2
10004980:	d209      	bcs.n	10004996 <tu_fifo_count+0x22>
10004982:	0048      	lsls	r0, r1, #1
10004984:	1a82      	subs	r2, r0, r2
10004986:	189b      	adds	r3, r3, r2
10004988:	b29b      	uxth	r3, r3
1000498a:	1c08      	adds	r0, r1, #0
1000498c:	4299      	cmp	r1, r3
1000498e:	d900      	bls.n	10004992 <tu_fifo_count+0x1e>
10004990:	1c18      	adds	r0, r3, #0
10004992:	b280      	uxth	r0, r0
10004994:	4770      	bx	lr
10004996:	1a9b      	subs	r3, r3, r2
10004998:	b29b      	uxth	r3, r3
1000499a:	e7f6      	b.n	1000498a <tu_fifo_count+0x16>

1000499c <tu_fifo_empty>:
1000499c:	8903      	ldrh	r3, [r0, #8]
1000499e:	8940      	ldrh	r0, [r0, #10]
100049a0:	1a18      	subs	r0, r3, r0
100049a2:	4243      	negs	r3, r0
100049a4:	4158      	adcs	r0, r3
100049a6:	b2c0      	uxtb	r0, r0
100049a8:	4770      	bx	lr
100049aa:	46c0      	nop			; (mov r8, r8)

100049ac <tu_fifo_remaining>:
100049ac:	8903      	ldrh	r3, [r0, #8]
100049ae:	8942      	ldrh	r2, [r0, #10]
100049b0:	b29b      	uxth	r3, r3
100049b2:	b292      	uxth	r2, r2
100049b4:	8881      	ldrh	r1, [r0, #4]
100049b6:	4293      	cmp	r3, r2
100049b8:	d307      	bcc.n	100049ca <tu_fifo_remaining+0x1e>
100049ba:	1a9b      	subs	r3, r3, r2
100049bc:	b29b      	uxth	r3, r3
100049be:	2000      	movs	r0, #0
100049c0:	4299      	cmp	r1, r3
100049c2:	d901      	bls.n	100049c8 <tu_fifo_remaining+0x1c>
100049c4:	1acb      	subs	r3, r1, r3
100049c6:	b298      	uxth	r0, r3
100049c8:	4770      	bx	lr
100049ca:	0048      	lsls	r0, r1, #1
100049cc:	1a82      	subs	r2, r0, r2
100049ce:	189b      	adds	r3, r3, r2
100049d0:	b29b      	uxth	r3, r3
100049d2:	e7f4      	b.n	100049be <tu_fifo_remaining+0x12>

100049d4 <tu_fifo_read>:
100049d4:	b570      	push	{r4, r5, r6, lr}
100049d6:	0004      	movs	r4, r0
100049d8:	6900      	ldr	r0, [r0, #16]
100049da:	000d      	movs	r5, r1
100049dc:	2800      	cmp	r0, #0
100049de:	d003      	beq.n	100049e8 <tu_fifo_read+0x14>
100049e0:	2101      	movs	r1, #1
100049e2:	4249      	negs	r1, r1
100049e4:	f001 fab0 	bl	10005f48 <__mutex_enter_timeout_ms_veneer>
100049e8:	8920      	ldrh	r0, [r4, #8]
100049ea:	8961      	ldrh	r1, [r4, #10]
100049ec:	b280      	uxth	r0, r0
100049ee:	b289      	uxth	r1, r1
100049f0:	88a3      	ldrh	r3, [r4, #4]
100049f2:	4288      	cmp	r0, r1
100049f4:	d334      	bcc.n	10004a60 <tu_fifo_read+0x8c>
100049f6:	1a42      	subs	r2, r0, r1
100049f8:	b292      	uxth	r2, r2
100049fa:	2a00      	cmp	r2, #0
100049fc:	d029      	beq.n	10004a52 <tu_fifo_read+0x7e>
100049fe:	4293      	cmp	r3, r2
10004a00:	d208      	bcs.n	10004a14 <tu_fifo_read+0x40>
10004a02:	4298      	cmp	r0, r3
10004a04:	d331      	bcc.n	10004a6a <tu_fifo_read+0x96>
10004a06:	1ac1      	subs	r1, r0, r3
10004a08:	b289      	uxth	r1, r1
10004a0a:	8161      	strh	r1, [r4, #10]
10004a0c:	428b      	cmp	r3, r1
10004a0e:	d803      	bhi.n	10004a18 <tu_fifo_read+0x44>
10004a10:	1ac9      	subs	r1, r1, r3
10004a12:	b289      	uxth	r1, r1
10004a14:	428b      	cmp	r3, r1
10004a16:	d9fb      	bls.n	10004a10 <tu_fifo_read+0x3c>
10004a18:	6823      	ldr	r3, [r4, #0]
10004a1a:	88e2      	ldrh	r2, [r4, #6]
10004a1c:	469c      	mov	ip, r3
10004a1e:	0452      	lsls	r2, r2, #17
10004a20:	0c52      	lsrs	r2, r2, #17
10004a22:	4351      	muls	r1, r2
10004a24:	0028      	movs	r0, r5
10004a26:	4461      	add	r1, ip
10004a28:	f7fd fdda 	bl	100025e0 <__wrap___aeabi_memcpy>
10004a2c:	8961      	ldrh	r1, [r4, #10]
10004a2e:	88a3      	ldrh	r3, [r4, #4]
10004a30:	b289      	uxth	r1, r1
10004a32:	1c4a      	adds	r2, r1, #1
10004a34:	b292      	uxth	r2, r2
10004a36:	2501      	movs	r5, #1
10004a38:	4291      	cmp	r1, r2
10004a3a:	d90d      	bls.n	10004a58 <tu_fifo_read+0x84>
10004a3c:	005b      	lsls	r3, r3, #1
10004a3e:	1ad2      	subs	r2, r2, r3
10004a40:	b292      	uxth	r2, r2
10004a42:	6920      	ldr	r0, [r4, #16]
10004a44:	8162      	strh	r2, [r4, #10]
10004a46:	2800      	cmp	r0, #0
10004a48:	d001      	beq.n	10004a4e <tu_fifo_read+0x7a>
10004a4a:	f001 fa65 	bl	10005f18 <__mutex_exit_veneer>
10004a4e:	0028      	movs	r0, r5
10004a50:	bd70      	pop	{r4, r5, r6, pc}
10004a52:	2500      	movs	r5, #0
10004a54:	8962      	ldrh	r2, [r4, #10]
10004a56:	b292      	uxth	r2, r2
10004a58:	005b      	lsls	r3, r3, #1
10004a5a:	429a      	cmp	r2, r3
10004a5c:	dbf1      	blt.n	10004a42 <tu_fifo_read+0x6e>
10004a5e:	e7ee      	b.n	10004a3e <tu_fifo_read+0x6a>
10004a60:	005a      	lsls	r2, r3, #1
10004a62:	1a52      	subs	r2, r2, r1
10004a64:	1882      	adds	r2, r0, r2
10004a66:	b292      	uxth	r2, r2
10004a68:	e7c7      	b.n	100049fa <tu_fifo_read+0x26>
10004a6a:	18c0      	adds	r0, r0, r3
10004a6c:	b281      	uxth	r1, r0
10004a6e:	8161      	strh	r1, [r4, #10]
10004a70:	e7cc      	b.n	10004a0c <tu_fifo_read+0x38>
10004a72:	46c0      	nop			; (mov r8, r8)

10004a74 <tu_fifo_read_n>:
10004a74:	b5f8      	push	{r3, r4, r5, r6, r7, lr}
10004a76:	4647      	mov	r7, r8
10004a78:	46ce      	mov	lr, r9
10004a7a:	0005      	movs	r5, r0
10004a7c:	6900      	ldr	r0, [r0, #16]
10004a7e:	b580      	push	{r7, lr}
10004a80:	4690      	mov	r8, r2
10004a82:	000f      	movs	r7, r1
10004a84:	2800      	cmp	r0, #0
10004a86:	d003      	beq.n	10004a90 <tu_fifo_read_n+0x1c>
10004a88:	2101      	movs	r1, #1
10004a8a:	4249      	negs	r1, r1
10004a8c:	f001 fa5c 	bl	10005f48 <__mutex_enter_timeout_ms_veneer>
10004a90:	892e      	ldrh	r6, [r5, #8]
10004a92:	8969      	ldrh	r1, [r5, #10]
10004a94:	b2b6      	uxth	r6, r6
10004a96:	b289      	uxth	r1, r1
10004a98:	88ab      	ldrh	r3, [r5, #4]
10004a9a:	428e      	cmp	r6, r1
10004a9c:	d347      	bcc.n	10004b2e <tu_fifo_read_n+0xba>
10004a9e:	1a74      	subs	r4, r6, r1
10004aa0:	b2a4      	uxth	r4, r4
10004aa2:	2c00      	cmp	r4, #0
10004aa4:	d049      	beq.n	10004b3a <tu_fifo_read_n+0xc6>
10004aa6:	42a3      	cmp	r3, r4
10004aa8:	d205      	bcs.n	10004ab6 <tu_fifo_read_n+0x42>
10004aaa:	429e      	cmp	r6, r3
10004aac:	d253      	bcs.n	10004b56 <tu_fifo_read_n+0xe2>
10004aae:	18f6      	adds	r6, r6, r3
10004ab0:	b2b1      	uxth	r1, r6
10004ab2:	001c      	movs	r4, r3
10004ab4:	8169      	strh	r1, [r5, #10]
10004ab6:	4642      	mov	r2, r8
10004ab8:	45a0      	cmp	r8, r4
10004aba:	d84a      	bhi.n	10004b52 <tu_fifo_read_n+0xde>
10004abc:	b294      	uxth	r4, r2
10004abe:	428b      	cmp	r3, r1
10004ac0:	d803      	bhi.n	10004aca <tu_fifo_read_n+0x56>
10004ac2:	1ac9      	subs	r1, r1, r3
10004ac4:	b289      	uxth	r1, r1
10004ac6:	428b      	cmp	r3, r1
10004ac8:	d9fb      	bls.n	10004ac2 <tu_fifo_read_n+0x4e>
10004aca:	1a5b      	subs	r3, r3, r1
10004acc:	b29b      	uxth	r3, r3
10004ace:	4698      	mov	r8, r3
10004ad0:	682b      	ldr	r3, [r5, #0]
10004ad2:	88ee      	ldrh	r6, [r5, #6]
10004ad4:	469c      	mov	ip, r3
10004ad6:	0476      	lsls	r6, r6, #17
10004ad8:	0c76      	lsrs	r6, r6, #17
10004ada:	4371      	muls	r1, r6
10004adc:	4461      	add	r1, ip
10004ade:	4544      	cmp	r4, r8
10004ae0:	d931      	bls.n	10004b46 <tu_fifo_read_n+0xd2>
10004ae2:	4640      	mov	r0, r8
10004ae4:	4370      	muls	r0, r6
10004ae6:	b283      	uxth	r3, r0
10004ae8:	001a      	movs	r2, r3
10004aea:	0038      	movs	r0, r7
10004aec:	4699      	mov	r9, r3
10004aee:	f7fd fd77 	bl	100025e0 <__wrap___aeabi_memcpy>
10004af2:	4643      	mov	r3, r8
10004af4:	0038      	movs	r0, r7
10004af6:	1ae2      	subs	r2, r4, r3
10004af8:	4372      	muls	r2, r6
10004afa:	4448      	add	r0, r9
10004afc:	b292      	uxth	r2, r2
10004afe:	6829      	ldr	r1, [r5, #0]
10004b00:	f7fd fd6e 	bl	100025e0 <__wrap___aeabi_memcpy>
10004b04:	8969      	ldrh	r1, [r5, #10]
10004b06:	88ab      	ldrh	r3, [r5, #4]
10004b08:	b289      	uxth	r1, r1
10004b0a:	190a      	adds	r2, r1, r4
10004b0c:	b292      	uxth	r2, r2
10004b0e:	0058      	lsls	r0, r3, #1
10004b10:	4291      	cmp	r1, r2
10004b12:	d914      	bls.n	10004b3e <tu_fifo_read_n+0xca>
10004b14:	1a12      	subs	r2, r2, r0
10004b16:	b292      	uxth	r2, r2
10004b18:	6928      	ldr	r0, [r5, #16]
10004b1a:	816a      	strh	r2, [r5, #10]
10004b1c:	2800      	cmp	r0, #0
10004b1e:	d001      	beq.n	10004b24 <tu_fifo_read_n+0xb0>
10004b20:	f001 f9fa 	bl	10005f18 <__mutex_exit_veneer>
10004b24:	0020      	movs	r0, r4
10004b26:	bc0c      	pop	{r2, r3}
10004b28:	4690      	mov	r8, r2
10004b2a:	4699      	mov	r9, r3
10004b2c:	bdf8      	pop	{r3, r4, r5, r6, r7, pc}
10004b2e:	005c      	lsls	r4, r3, #1
10004b30:	1a64      	subs	r4, r4, r1
10004b32:	1934      	adds	r4, r6, r4
10004b34:	b2a4      	uxth	r4, r4
10004b36:	2c00      	cmp	r4, #0
10004b38:	d1b5      	bne.n	10004aa6 <tu_fifo_read_n+0x32>
10004b3a:	896a      	ldrh	r2, [r5, #10]
10004b3c:	b292      	uxth	r2, r2
10004b3e:	0058      	lsls	r0, r3, #1
10004b40:	4282      	cmp	r2, r0
10004b42:	dbe9      	blt.n	10004b18 <tu_fifo_read_n+0xa4>
10004b44:	e7e6      	b.n	10004b14 <tu_fifo_read_n+0xa0>
10004b46:	0032      	movs	r2, r6
10004b48:	0038      	movs	r0, r7
10004b4a:	4362      	muls	r2, r4
10004b4c:	f7fd fd48 	bl	100025e0 <__wrap___aeabi_memcpy>
10004b50:	e7d8      	b.n	10004b04 <tu_fifo_read_n+0x90>
10004b52:	1c22      	adds	r2, r4, #0
10004b54:	e7b2      	b.n	10004abc <tu_fifo_read_n+0x48>
10004b56:	1af1      	subs	r1, r6, r3
10004b58:	b289      	uxth	r1, r1
10004b5a:	e7aa      	b.n	10004ab2 <tu_fifo_read_n+0x3e>

10004b5c <tu_fifo_write>:
10004b5c:	b5f8      	push	{r3, r4, r5, r6, r7, lr}
10004b5e:	0004      	movs	r4, r0
10004b60:	68c0      	ldr	r0, [r0, #12]
10004b62:	000e      	movs	r6, r1
10004b64:	2800      	cmp	r0, #0
10004b66:	d003      	beq.n	10004b70 <tu_fifo_write+0x14>
10004b68:	2101      	movs	r1, #1
10004b6a:	4249      	negs	r1, r1
10004b6c:	f001 f9ec 	bl	10005f48 <__mutex_enter_timeout_ms_veneer>
10004b70:	8925      	ldrh	r5, [r4, #8]
10004b72:	8922      	ldrh	r2, [r4, #8]
10004b74:	8961      	ldrh	r1, [r4, #10]
10004b76:	b292      	uxth	r2, r2
10004b78:	b289      	uxth	r1, r1
10004b7a:	b2ad      	uxth	r5, r5
10004b7c:	88a3      	ldrh	r3, [r4, #4]
10004b7e:	428a      	cmp	r2, r1
10004b80:	d329      	bcc.n	10004bd6 <tu_fifo_write+0x7a>
10004b82:	1a52      	subs	r2, r2, r1
10004b84:	b292      	uxth	r2, r2
10004b86:	4293      	cmp	r3, r2
10004b88:	d809      	bhi.n	10004b9e <tu_fifo_write+0x42>
10004b8a:	79e7      	ldrb	r7, [r4, #7]
10004b8c:	09ff      	lsrs	r7, r7, #7
10004b8e:	d106      	bne.n	10004b9e <tu_fifo_write+0x42>
10004b90:	68e0      	ldr	r0, [r4, #12]
10004b92:	2800      	cmp	r0, #0
10004b94:	d001      	beq.n	10004b9a <tu_fifo_write+0x3e>
10004b96:	f001 f9bf 	bl	10005f18 <__mutex_exit_veneer>
10004b9a:	0038      	movs	r0, r7
10004b9c:	bdf8      	pop	{r3, r4, r5, r6, r7, pc}
10004b9e:	0028      	movs	r0, r5
10004ba0:	429d      	cmp	r5, r3
10004ba2:	d303      	bcc.n	10004bac <tu_fifo_write+0x50>
10004ba4:	1ac0      	subs	r0, r0, r3
10004ba6:	b280      	uxth	r0, r0
10004ba8:	4298      	cmp	r0, r3
10004baa:	d2fb      	bcs.n	10004ba4 <tu_fifo_write+0x48>
10004bac:	6823      	ldr	r3, [r4, #0]
10004bae:	88e2      	ldrh	r2, [r4, #6]
10004bb0:	469c      	mov	ip, r3
10004bb2:	0452      	lsls	r2, r2, #17
10004bb4:	0c52      	lsrs	r2, r2, #17
10004bb6:	4350      	muls	r0, r2
10004bb8:	0031      	movs	r1, r6
10004bba:	4460      	add	r0, ip
10004bbc:	f7fd fd10 	bl	100025e0 <__wrap___aeabi_memcpy>
10004bc0:	88a2      	ldrh	r2, [r4, #4]
10004bc2:	1c6b      	adds	r3, r5, #1
10004bc4:	b29b      	uxth	r3, r3
10004bc6:	0052      	lsls	r2, r2, #1
10004bc8:	429d      	cmp	r5, r3
10004bca:	d909      	bls.n	10004be0 <tu_fifo_write+0x84>
10004bcc:	1a9b      	subs	r3, r3, r2
10004bce:	b29b      	uxth	r3, r3
10004bd0:	8123      	strh	r3, [r4, #8]
10004bd2:	2701      	movs	r7, #1
10004bd4:	e7dc      	b.n	10004b90 <tu_fifo_write+0x34>
10004bd6:	0058      	lsls	r0, r3, #1
10004bd8:	1a41      	subs	r1, r0, r1
10004bda:	1852      	adds	r2, r2, r1
10004bdc:	b292      	uxth	r2, r2
10004bde:	e7d2      	b.n	10004b86 <tu_fifo_write+0x2a>
10004be0:	4293      	cmp	r3, r2
10004be2:	dbf5      	blt.n	10004bd0 <tu_fifo_write+0x74>
10004be4:	e7f2      	b.n	10004bcc <tu_fifo_write+0x70>
10004be6:	46c0      	nop			; (mov r8, r8)

10004be8 <tu_fifo_write_n>:
10004be8:	b5f0      	push	{r4, r5, r6, r7, lr}
10004bea:	4646      	mov	r6, r8
10004bec:	46d6      	mov	lr, sl
10004bee:	464f      	mov	r7, r9
10004bf0:	0005      	movs	r5, r0
10004bf2:	b5c0      	push	{r6, r7, lr}
10004bf4:	4688      	mov	r8, r1
10004bf6:	1e14      	subs	r4, r2, #0
10004bf8:	d105      	bne.n	10004c06 <tu_fifo_write_n+0x1e>
10004bfa:	0020      	movs	r0, r4
10004bfc:	bc1c      	pop	{r2, r3, r4}
10004bfe:	4690      	mov	r8, r2
10004c00:	4699      	mov	r9, r3
10004c02:	46a2      	mov	sl, r4
10004c04:	bdf0      	pop	{r4, r5, r6, r7, pc}
10004c06:	68c0      	ldr	r0, [r0, #12]
10004c08:	2800      	cmp	r0, #0
10004c0a:	d003      	beq.n	10004c14 <tu_fifo_write_n+0x2c>
10004c0c:	2101      	movs	r1, #1
10004c0e:	4249      	negs	r1, r1
10004c10:	f001 f99a 	bl	10005f48 <__mutex_enter_timeout_ms_veneer>
10004c14:	892e      	ldrh	r6, [r5, #8]
10004c16:	79eb      	ldrb	r3, [r5, #7]
10004c18:	896a      	ldrh	r2, [r5, #10]
10004c1a:	b2b6      	uxth	r6, r6
10004c1c:	b292      	uxth	r2, r2
10004c1e:	09db      	lsrs	r3, r3, #7
10004c20:	d034      	beq.n	10004c8c <tu_fifo_write_n+0xa4>
10004c22:	88ab      	ldrh	r3, [r5, #4]
10004c24:	429c      	cmp	r4, r3
10004c26:	d343      	bcc.n	10004cb0 <tu_fifo_write_n+0xc8>
10004c28:	88ef      	ldrh	r7, [r5, #6]
10004c2a:	1ae4      	subs	r4, r4, r3
10004c2c:	047f      	lsls	r7, r7, #17
10004c2e:	0c7f      	lsrs	r7, r7, #17
10004c30:	4367      	muls	r7, r4
10004c32:	0016      	movs	r6, r2
10004c34:	001c      	movs	r4, r3
10004c36:	4447      	add	r7, r8
10004c38:	2c00      	cmp	r4, #0
10004c3a:	d021      	beq.n	10004c80 <tu_fifo_write_n+0x98>
10004c3c:	0030      	movs	r0, r6
10004c3e:	429e      	cmp	r6, r3
10004c40:	d303      	bcc.n	10004c4a <tu_fifo_write_n+0x62>
10004c42:	1ac0      	subs	r0, r0, r3
10004c44:	b280      	uxth	r0, r0
10004c46:	4298      	cmp	r0, r3
10004c48:	d2fb      	bcs.n	10004c42 <tu_fifo_write_n+0x5a>
10004c4a:	88ea      	ldrh	r2, [r5, #6]
10004c4c:	1a1b      	subs	r3, r3, r0
10004c4e:	b29b      	uxth	r3, r3
10004c50:	0452      	lsls	r2, r2, #17
10004c52:	4698      	mov	r8, r3
10004c54:	0c53      	lsrs	r3, r2, #17
10004c56:	4358      	muls	r0, r3
10004c58:	4699      	mov	r9, r3
10004c5a:	682b      	ldr	r3, [r5, #0]
10004c5c:	469c      	mov	ip, r3
10004c5e:	4460      	add	r0, ip
10004c60:	45a0      	cmp	r8, r4
10004c62:	d33a      	bcc.n	10004cda <tu_fifo_write_n+0xf2>
10004c64:	464a      	mov	r2, r9
10004c66:	0039      	movs	r1, r7
10004c68:	4362      	muls	r2, r4
10004c6a:	f7fd fcb9 	bl	100025e0 <__wrap___aeabi_memcpy>
10004c6e:	88aa      	ldrh	r2, [r5, #4]
10004c70:	19a3      	adds	r3, r4, r6
10004c72:	b29b      	uxth	r3, r3
10004c74:	0052      	lsls	r2, r2, #1
10004c76:	42b3      	cmp	r3, r6
10004c78:	d317      	bcc.n	10004caa <tu_fifo_write_n+0xc2>
10004c7a:	4293      	cmp	r3, r2
10004c7c:	da15      	bge.n	10004caa <tu_fifo_write_n+0xc2>
10004c7e:	812b      	strh	r3, [r5, #8]
10004c80:	68e8      	ldr	r0, [r5, #12]
10004c82:	2800      	cmp	r0, #0
10004c84:	d0b9      	beq.n	10004bfa <tu_fifo_write_n+0x12>
10004c86:	f001 f947 	bl	10005f18 <__mutex_exit_veneer>
10004c8a:	e7b6      	b.n	10004bfa <tu_fifo_write_n+0x12>
10004c8c:	88ab      	ldrh	r3, [r5, #4]
10004c8e:	4296      	cmp	r6, r2
10004c90:	d339      	bcc.n	10004d06 <tu_fifo_write_n+0x11e>
10004c92:	1ab2      	subs	r2, r6, r2
10004c94:	b292      	uxth	r2, r2
10004c96:	4293      	cmp	r3, r2
10004c98:	d933      	bls.n	10004d02 <tu_fifo_write_n+0x11a>
10004c9a:	1a9a      	subs	r2, r3, r2
10004c9c:	1c11      	adds	r1, r2, #0
10004c9e:	b292      	uxth	r2, r2
10004ca0:	42a2      	cmp	r2, r4
10004ca2:	d839      	bhi.n	10004d18 <tu_fifo_write_n+0x130>
10004ca4:	b28c      	uxth	r4, r1
10004ca6:	4647      	mov	r7, r8
10004ca8:	e7c6      	b.n	10004c38 <tu_fifo_write_n+0x50>
10004caa:	1a9b      	subs	r3, r3, r2
10004cac:	b29b      	uxth	r3, r3
10004cae:	e7e6      	b.n	10004c7e <tu_fifo_write_n+0x96>
10004cb0:	4296      	cmp	r6, r2
10004cb2:	d22d      	bcs.n	10004d10 <tu_fifo_write_n+0x128>
10004cb4:	0058      	lsls	r0, r3, #1
10004cb6:	1a81      	subs	r1, r0, r2
10004cb8:	1871      	adds	r1, r6, r1
10004cba:	b289      	uxth	r1, r1
10004cbc:	1909      	adds	r1, r1, r4
10004cbe:	4647      	mov	r7, r8
10004cc0:	4281      	cmp	r1, r0
10004cc2:	dbbb      	blt.n	10004c3c <tu_fifo_write_n+0x54>
10004cc4:	18d6      	adds	r6, r2, r3
10004cc6:	1b36      	subs	r6, r6, r4
10004cc8:	b2b6      	uxth	r6, r6
10004cca:	42b2      	cmp	r2, r6
10004ccc:	d801      	bhi.n	10004cd2 <tu_fifo_write_n+0xea>
10004cce:	42b0      	cmp	r0, r6
10004cd0:	dcb4      	bgt.n	10004c3c <tu_fifo_write_n+0x54>
10004cd2:	1a36      	subs	r6, r6, r0
10004cd4:	b2b6      	uxth	r6, r6
10004cd6:	4647      	mov	r7, r8
10004cd8:	e7b0      	b.n	10004c3c <tu_fifo_write_n+0x54>
10004cda:	4643      	mov	r3, r8
10004cdc:	4649      	mov	r1, r9
10004cde:	4359      	muls	r1, r3
10004ce0:	b28b      	uxth	r3, r1
10004ce2:	001a      	movs	r2, r3
10004ce4:	0039      	movs	r1, r7
10004ce6:	469a      	mov	sl, r3
10004ce8:	f7fd fc7a 	bl	100025e0 <__wrap___aeabi_memcpy>
10004cec:	4643      	mov	r3, r8
10004cee:	1ae2      	subs	r2, r4, r3
10004cf0:	464b      	mov	r3, r9
10004cf2:	0039      	movs	r1, r7
10004cf4:	435a      	muls	r2, r3
10004cf6:	4451      	add	r1, sl
10004cf8:	b292      	uxth	r2, r2
10004cfa:	6828      	ldr	r0, [r5, #0]
10004cfc:	f7fd fc70 	bl	100025e0 <__wrap___aeabi_memcpy>
10004d00:	e7b5      	b.n	10004c6e <tu_fifo_write_n+0x86>
10004d02:	2400      	movs	r4, #0
10004d04:	e7bc      	b.n	10004c80 <tu_fifo_write_n+0x98>
10004d06:	0059      	lsls	r1, r3, #1
10004d08:	1a8a      	subs	r2, r1, r2
10004d0a:	18b2      	adds	r2, r6, r2
10004d0c:	b292      	uxth	r2, r2
10004d0e:	e7c2      	b.n	10004c96 <tu_fifo_write_n+0xae>
10004d10:	1ab1      	subs	r1, r6, r2
10004d12:	b289      	uxth	r1, r1
10004d14:	0058      	lsls	r0, r3, #1
10004d16:	e7d1      	b.n	10004cbc <tu_fifo_write_n+0xd4>
10004d18:	1c21      	adds	r1, r4, #0
10004d1a:	e7c3      	b.n	10004ca4 <tu_fifo_write_n+0xbc>

10004d1c <tu_fifo_clear>:
10004d1c:	b510      	push	{r4, lr}
10004d1e:	0004      	movs	r4, r0
10004d20:	68c0      	ldr	r0, [r0, #12]
10004d22:	2800      	cmp	r0, #0
10004d24:	d003      	beq.n	10004d2e <tu_fifo_clear+0x12>
10004d26:	2101      	movs	r1, #1
10004d28:	4249      	negs	r1, r1
10004d2a:	f001 f90d 	bl	10005f48 <__mutex_enter_timeout_ms_veneer>
10004d2e:	6920      	ldr	r0, [r4, #16]
10004d30:	2800      	cmp	r0, #0
10004d32:	d003      	beq.n	10004d3c <tu_fifo_clear+0x20>
10004d34:	2101      	movs	r1, #1
10004d36:	4249      	negs	r1, r1
10004d38:	f001 f906 	bl	10005f48 <__mutex_enter_timeout_ms_veneer>
10004d3c:	2300      	movs	r3, #0
10004d3e:	68e0      	ldr	r0, [r4, #12]
10004d40:	8163      	strh	r3, [r4, #10]
10004d42:	8123      	strh	r3, [r4, #8]
10004d44:	2800      	cmp	r0, #0
10004d46:	d001      	beq.n	10004d4c <tu_fifo_clear+0x30>
10004d48:	f001 f8e6 	bl	10005f18 <__mutex_exit_veneer>
10004d4c:	6920      	ldr	r0, [r4, #16]
10004d4e:	2800      	cmp	r0, #0
10004d50:	d001      	beq.n	10004d56 <tu_fifo_clear+0x3a>
10004d52:	f001 f8e1 	bl	10005f18 <__mutex_exit_veneer>
10004d56:	2001      	movs	r0, #1
10004d58:	bd10      	pop	{r4, pc}
10004d5a:	46c0      	nop			; (mov r8, r8)

10004d5c <tu_fifo_set_overwritable>:
10004d5c:	b570      	push	{r4, r5, r6, lr}
10004d5e:	0004      	movs	r4, r0
10004d60:	68c0      	ldr	r0, [r0, #12]
10004d62:	000d      	movs	r5, r1
10004d64:	2800      	cmp	r0, #0
10004d66:	d003      	beq.n	10004d70 <tu_fifo_set_overwritable+0x14>
10004d68:	2101      	movs	r1, #1
10004d6a:	4249      	negs	r1, r1
10004d6c:	f001 f8ec 	bl	10005f48 <__mutex_enter_timeout_ms_veneer>
10004d70:	6920      	ldr	r0, [r4, #16]
10004d72:	2800      	cmp	r0, #0
10004d74:	d003      	beq.n	10004d7e <tu_fifo_set_overwritable+0x22>
10004d76:	2101      	movs	r1, #1
10004d78:	4249      	negs	r1, r1
10004d7a:	f001 f8e5 	bl	10005f48 <__mutex_enter_timeout_ms_veneer>
10004d7e:	217f      	movs	r1, #127	; 0x7f
10004d80:	79e3      	ldrb	r3, [r4, #7]
10004d82:	01ed      	lsls	r5, r5, #7
10004d84:	4019      	ands	r1, r3
10004d86:	68e0      	ldr	r0, [r4, #12]
10004d88:	4329      	orrs	r1, r5
10004d8a:	71e1      	strb	r1, [r4, #7]
10004d8c:	2800      	cmp	r0, #0
10004d8e:	d001      	beq.n	10004d94 <tu_fifo_set_overwritable+0x38>
10004d90:	f001 f8c2 	bl	10005f18 <__mutex_exit_veneer>
10004d94:	6920      	ldr	r0, [r4, #16]
10004d96:	2800      	cmp	r0, #0
10004d98:	d001      	beq.n	10004d9e <tu_fifo_set_overwritable+0x42>
10004d9a:	f001 f8bd 	bl	10005f18 <__mutex_exit_veneer>
10004d9e:	2001      	movs	r0, #1
10004da0:	bd70      	pop	{r4, r5, r6, pc}
10004da2:	46c0      	nop			; (mov r8, r8)

10004da4 <_malloc_r>:
10004da4:	b5f0      	push	{r4, r5, r6, r7, lr}
10004da6:	4657      	mov	r7, sl
10004da8:	4645      	mov	r5, r8
10004daa:	46de      	mov	lr, fp
10004dac:	464e      	mov	r6, r9
10004dae:	b5e0      	push	{r5, r6, r7, lr}
10004db0:	000d      	movs	r5, r1
10004db2:	350b      	adds	r5, #11
10004db4:	b083      	sub	sp, #12
10004db6:	0007      	movs	r7, r0
10004db8:	2d16      	cmp	r5, #22
10004dba:	d800      	bhi.n	10004dbe <_malloc_r+0x1a>
10004dbc:	e09f      	b.n	10004efe <_malloc_r+0x15a>
10004dbe:	2307      	movs	r3, #7
10004dc0:	439d      	bics	r5, r3
10004dc2:	d500      	bpl.n	10004dc6 <_malloc_r+0x22>
10004dc4:	e0c4      	b.n	10004f50 <_malloc_r+0x1ac>
10004dc6:	42a9      	cmp	r1, r5
10004dc8:	d900      	bls.n	10004dcc <_malloc_r+0x28>
10004dca:	e0c1      	b.n	10004f50 <_malloc_r+0x1ac>
10004dcc:	f000 fa96 	bl	100052fc <__malloc_lock>
10004dd0:	23f8      	movs	r3, #248	; 0xf8
10004dd2:	33ff      	adds	r3, #255	; 0xff
10004dd4:	429d      	cmp	r5, r3
10004dd6:	d800      	bhi.n	10004dda <_malloc_r+0x36>
10004dd8:	e289      	b.n	100052ee <_malloc_r+0x54a>
10004dda:	0a68      	lsrs	r0, r5, #9
10004ddc:	d100      	bne.n	10004de0 <_malloc_r+0x3c>
10004dde:	e0bb      	b.n	10004f58 <_malloc_r+0x1b4>
10004de0:	2804      	cmp	r0, #4
10004de2:	d900      	bls.n	10004de6 <_malloc_r+0x42>
10004de4:	e164      	b.n	100050b0 <_malloc_r+0x30c>
10004de6:	2338      	movs	r3, #56	; 0x38
10004de8:	4698      	mov	r8, r3
10004dea:	09a8      	lsrs	r0, r5, #6
10004dec:	4480      	add	r8, r0
10004dee:	3039      	adds	r0, #57	; 0x39
10004df0:	00c1      	lsls	r1, r0, #3
10004df2:	4ec9      	ldr	r6, [pc, #804]	; (10005118 <_malloc_r+0x374>)
10004df4:	1871      	adds	r1, r6, r1
10004df6:	3908      	subs	r1, #8
10004df8:	68cc      	ldr	r4, [r1, #12]
10004dfa:	42a1      	cmp	r1, r4
10004dfc:	d019      	beq.n	10004e32 <_malloc_r+0x8e>
10004dfe:	2303      	movs	r3, #3
10004e00:	6862      	ldr	r2, [r4, #4]
10004e02:	439a      	bics	r2, r3
10004e04:	0013      	movs	r3, r2
10004e06:	1b52      	subs	r2, r2, r5
10004e08:	2a0f      	cmp	r2, #15
10004e0a:	dd00      	ble.n	10004e0e <_malloc_r+0x6a>
10004e0c:	e0aa      	b.n	10004f64 <_malloc_r+0x1c0>
10004e0e:	2a00      	cmp	r2, #0
10004e10:	db00      	blt.n	10004e14 <_malloc_r+0x70>
10004e12:	e088      	b.n	10004f26 <_malloc_r+0x182>
10004e14:	2303      	movs	r3, #3
10004e16:	469c      	mov	ip, r3
10004e18:	e008      	b.n	10004e2c <_malloc_r+0x88>
10004e1a:	4662      	mov	r2, ip
10004e1c:	6863      	ldr	r3, [r4, #4]
10004e1e:	4393      	bics	r3, r2
10004e20:	1b5a      	subs	r2, r3, r5
10004e22:	2a0f      	cmp	r2, #15
10004e24:	dd00      	ble.n	10004e28 <_malloc_r+0x84>
10004e26:	e09d      	b.n	10004f64 <_malloc_r+0x1c0>
10004e28:	2a00      	cmp	r2, #0
10004e2a:	da7c      	bge.n	10004f26 <_malloc_r+0x182>
10004e2c:	68e4      	ldr	r4, [r4, #12]
10004e2e:	42a1      	cmp	r1, r4
10004e30:	d1f3      	bne.n	10004e1a <_malloc_r+0x76>
10004e32:	0032      	movs	r2, r6
10004e34:	6934      	ldr	r4, [r6, #16]
10004e36:	3208      	adds	r2, #8
10004e38:	4294      	cmp	r4, r2
10004e3a:	d100      	bne.n	10004e3e <_malloc_r+0x9a>
10004e3c:	e18b      	b.n	10005156 <_malloc_r+0x3b2>
10004e3e:	2303      	movs	r3, #3
10004e40:	6861      	ldr	r1, [r4, #4]
10004e42:	4399      	bics	r1, r3
10004e44:	4689      	mov	r9, r1
10004e46:	1b49      	subs	r1, r1, r5
10004e48:	290f      	cmp	r1, #15
10004e4a:	dd00      	ble.n	10004e4e <_malloc_r+0xaa>
10004e4c:	e170      	b.n	10005130 <_malloc_r+0x38c>
10004e4e:	6172      	str	r2, [r6, #20]
10004e50:	6132      	str	r2, [r6, #16]
10004e52:	2900      	cmp	r1, #0
10004e54:	db00      	blt.n	10004e58 <_malloc_r+0xb4>
10004e56:	e087      	b.n	10004f68 <_malloc_r+0x1c4>
10004e58:	4ab0      	ldr	r2, [pc, #704]	; (1000511c <_malloc_r+0x378>)
10004e5a:	464b      	mov	r3, r9
10004e5c:	4591      	cmp	r9, r2
10004e5e:	d900      	bls.n	10004e62 <_malloc_r+0xbe>
10004e60:	e132      	b.n	100050c8 <_malloc_r+0x324>
10004e62:	08db      	lsrs	r3, r3, #3
10004e64:	3aff      	subs	r2, #255	; 0xff
10004e66:	1099      	asrs	r1, r3, #2
10004e68:	3aff      	subs	r2, #255	; 0xff
10004e6a:	408a      	lsls	r2, r1
10004e6c:	00db      	lsls	r3, r3, #3
10004e6e:	6871      	ldr	r1, [r6, #4]
10004e70:	199b      	adds	r3, r3, r6
10004e72:	430a      	orrs	r2, r1
10004e74:	6899      	ldr	r1, [r3, #8]
10004e76:	6072      	str	r2, [r6, #4]
10004e78:	60e3      	str	r3, [r4, #12]
10004e7a:	60a1      	str	r1, [r4, #8]
10004e7c:	609c      	str	r4, [r3, #8]
10004e7e:	0013      	movs	r3, r2
10004e80:	60cc      	str	r4, [r1, #12]
10004e82:	2101      	movs	r1, #1
10004e84:	1082      	asrs	r2, r0, #2
10004e86:	4091      	lsls	r1, r2
10004e88:	4299      	cmp	r1, r3
10004e8a:	d86f      	bhi.n	10004f6c <_malloc_r+0x1c8>
10004e8c:	420b      	tst	r3, r1
10004e8e:	d105      	bne.n	10004e9c <_malloc_r+0xf8>
10004e90:	2203      	movs	r2, #3
10004e92:	4390      	bics	r0, r2
10004e94:	0049      	lsls	r1, r1, #1
10004e96:	3004      	adds	r0, #4
10004e98:	420b      	tst	r3, r1
10004e9a:	d0fb      	beq.n	10004e94 <_malloc_r+0xf0>
10004e9c:	2303      	movs	r3, #3
10004e9e:	4698      	mov	r8, r3
10004ea0:	00c3      	lsls	r3, r0, #3
10004ea2:	4699      	mov	r9, r3
10004ea4:	44b1      	add	r9, r6
10004ea6:	46cc      	mov	ip, r9
10004ea8:	4682      	mov	sl, r0
10004eaa:	4663      	mov	r3, ip
10004eac:	68dc      	ldr	r4, [r3, #12]
10004eae:	45a4      	cmp	ip, r4
10004eb0:	d107      	bne.n	10004ec2 <_malloc_r+0x11e>
10004eb2:	e152      	b.n	1000515a <_malloc_r+0x3b6>
10004eb4:	2a00      	cmp	r2, #0
10004eb6:	db00      	blt.n	10004eba <_malloc_r+0x116>
10004eb8:	e161      	b.n	1000517e <_malloc_r+0x3da>
10004eba:	68e4      	ldr	r4, [r4, #12]
10004ebc:	45a4      	cmp	ip, r4
10004ebe:	d100      	bne.n	10004ec2 <_malloc_r+0x11e>
10004ec0:	e14b      	b.n	1000515a <_malloc_r+0x3b6>
10004ec2:	4642      	mov	r2, r8
10004ec4:	6863      	ldr	r3, [r4, #4]
10004ec6:	4393      	bics	r3, r2
10004ec8:	1b5a      	subs	r2, r3, r5
10004eca:	2a0f      	cmp	r2, #15
10004ecc:	ddf2      	ble.n	10004eb4 <_malloc_r+0x110>
10004ece:	2001      	movs	r0, #1
10004ed0:	4680      	mov	r8, r0
10004ed2:	1961      	adds	r1, r4, r5
10004ed4:	4305      	orrs	r5, r0
10004ed6:	6065      	str	r5, [r4, #4]
10004ed8:	68a0      	ldr	r0, [r4, #8]
10004eda:	68e5      	ldr	r5, [r4, #12]
10004edc:	3608      	adds	r6, #8
10004ede:	60c5      	str	r5, [r0, #12]
10004ee0:	60a8      	str	r0, [r5, #8]
10004ee2:	4640      	mov	r0, r8
10004ee4:	60f1      	str	r1, [r6, #12]
10004ee6:	60b1      	str	r1, [r6, #8]
10004ee8:	4310      	orrs	r0, r2
10004eea:	6048      	str	r0, [r1, #4]
10004eec:	60ce      	str	r6, [r1, #12]
10004eee:	608e      	str	r6, [r1, #8]
10004ef0:	0038      	movs	r0, r7
10004ef2:	50e2      	str	r2, [r4, r3]
10004ef4:	f000 fa04 	bl	10005300 <__malloc_unlock>
10004ef8:	0020      	movs	r0, r4
10004efa:	3008      	adds	r0, #8
10004efc:	e021      	b.n	10004f42 <_malloc_r+0x19e>
10004efe:	2910      	cmp	r1, #16
10004f00:	d826      	bhi.n	10004f50 <_malloc_r+0x1ac>
10004f02:	0038      	movs	r0, r7
10004f04:	f000 f9fa 	bl	100052fc <__malloc_lock>
10004f08:	2510      	movs	r5, #16
10004f0a:	2318      	movs	r3, #24
10004f0c:	2002      	movs	r0, #2
10004f0e:	4e82      	ldr	r6, [pc, #520]	; (10005118 <_malloc_r+0x374>)
10004f10:	18f3      	adds	r3, r6, r3
10004f12:	001a      	movs	r2, r3
10004f14:	685c      	ldr	r4, [r3, #4]
10004f16:	3a08      	subs	r2, #8
10004f18:	4294      	cmp	r4, r2
10004f1a:	d100      	bne.n	10004f1e <_malloc_r+0x17a>
10004f1c:	e129      	b.n	10005172 <_malloc_r+0x3ce>
10004f1e:	2303      	movs	r3, #3
10004f20:	6862      	ldr	r2, [r4, #4]
10004f22:	439a      	bics	r2, r3
10004f24:	0013      	movs	r3, r2
10004f26:	68e2      	ldr	r2, [r4, #12]
10004f28:	68a1      	ldr	r1, [r4, #8]
10004f2a:	60ca      	str	r2, [r1, #12]
10004f2c:	6091      	str	r1, [r2, #8]
10004f2e:	2201      	movs	r2, #1
10004f30:	18e3      	adds	r3, r4, r3
10004f32:	6859      	ldr	r1, [r3, #4]
10004f34:	0038      	movs	r0, r7
10004f36:	430a      	orrs	r2, r1
10004f38:	605a      	str	r2, [r3, #4]
10004f3a:	f000 f9e1 	bl	10005300 <__malloc_unlock>
10004f3e:	0020      	movs	r0, r4
10004f40:	3008      	adds	r0, #8
10004f42:	b003      	add	sp, #12
10004f44:	bc3c      	pop	{r2, r3, r4, r5}
10004f46:	4690      	mov	r8, r2
10004f48:	4699      	mov	r9, r3
10004f4a:	46a2      	mov	sl, r4
10004f4c:	46ab      	mov	fp, r5
10004f4e:	bdf0      	pop	{r4, r5, r6, r7, pc}
10004f50:	230c      	movs	r3, #12
10004f52:	2000      	movs	r0, #0
10004f54:	603b      	str	r3, [r7, #0]
10004f56:	e7f4      	b.n	10004f42 <_malloc_r+0x19e>
10004f58:	2180      	movs	r1, #128	; 0x80
10004f5a:	233f      	movs	r3, #63	; 0x3f
10004f5c:	2040      	movs	r0, #64	; 0x40
10004f5e:	0089      	lsls	r1, r1, #2
10004f60:	4698      	mov	r8, r3
10004f62:	e746      	b.n	10004df2 <_malloc_r+0x4e>
10004f64:	4640      	mov	r0, r8
10004f66:	e764      	b.n	10004e32 <_malloc_r+0x8e>
10004f68:	464b      	mov	r3, r9
10004f6a:	e7e0      	b.n	10004f2e <_malloc_r+0x18a>
10004f6c:	2303      	movs	r3, #3
10004f6e:	68b4      	ldr	r4, [r6, #8]
10004f70:	6862      	ldr	r2, [r4, #4]
10004f72:	439a      	bics	r2, r3
10004f74:	4690      	mov	r8, r2
10004f76:	42aa      	cmp	r2, r5
10004f78:	d303      	bcc.n	10004f82 <_malloc_r+0x1de>
10004f7a:	1b53      	subs	r3, r2, r5
10004f7c:	2b0f      	cmp	r3, #15
10004f7e:	dd00      	ble.n	10004f82 <_malloc_r+0x1de>
10004f80:	e088      	b.n	10005094 <_malloc_r+0x2f0>
10004f82:	0023      	movs	r3, r4
10004f84:	4443      	add	r3, r8
10004f86:	4a66      	ldr	r2, [pc, #408]	; (10005120 <_malloc_r+0x37c>)
10004f88:	9301      	str	r3, [sp, #4]
10004f8a:	4b66      	ldr	r3, [pc, #408]	; (10005124 <_malloc_r+0x380>)
10004f8c:	4693      	mov	fp, r2
10004f8e:	469a      	mov	sl, r3
10004f90:	6892      	ldr	r2, [r2, #8]
10004f92:	681b      	ldr	r3, [r3, #0]
10004f94:	18eb      	adds	r3, r5, r3
10004f96:	3201      	adds	r2, #1
10004f98:	d100      	bne.n	10004f9c <_malloc_r+0x1f8>
10004f9a:	e161      	b.n	10005260 <_malloc_r+0x4bc>
10004f9c:	4a62      	ldr	r2, [pc, #392]	; (10005128 <_malloc_r+0x384>)
10004f9e:	4694      	mov	ip, r2
10004fa0:	4463      	add	r3, ip
10004fa2:	0b1b      	lsrs	r3, r3, #12
10004fa4:	031b      	lsls	r3, r3, #12
10004fa6:	9300      	str	r3, [sp, #0]
10004fa8:	9900      	ldr	r1, [sp, #0]
10004faa:	0038      	movs	r0, r7
10004fac:	f000 f9aa 	bl	10005304 <_sbrk_r>
10004fb0:	0003      	movs	r3, r0
10004fb2:	4681      	mov	r9, r0
10004fb4:	3301      	adds	r3, #1
10004fb6:	d062      	beq.n	1000507e <_malloc_r+0x2da>
10004fb8:	9b01      	ldr	r3, [sp, #4]
10004fba:	4283      	cmp	r3, r0
10004fbc:	d900      	bls.n	10004fc0 <_malloc_r+0x21c>
10004fbe:	e0f9      	b.n	100051b4 <_malloc_r+0x410>
10004fc0:	4653      	mov	r3, sl
10004fc2:	685b      	ldr	r3, [r3, #4]
10004fc4:	9a00      	ldr	r2, [sp, #0]
10004fc6:	469c      	mov	ip, r3
10004fc8:	4653      	mov	r3, sl
10004fca:	4462      	add	r2, ip
10004fcc:	605a      	str	r2, [r3, #4]
10004fce:	9b01      	ldr	r3, [sp, #4]
10004fd0:	0011      	movs	r1, r2
10004fd2:	4283      	cmp	r3, r0
10004fd4:	d100      	bne.n	10004fd8 <_malloc_r+0x234>
10004fd6:	e14f      	b.n	10005278 <_malloc_r+0x4d4>
10004fd8:	465b      	mov	r3, fp
10004fda:	689b      	ldr	r3, [r3, #8]
10004fdc:	3301      	adds	r3, #1
10004fde:	d100      	bne.n	10004fe2 <_malloc_r+0x23e>
10004fe0:	e166      	b.n	100052b0 <_malloc_r+0x50c>
10004fe2:	464b      	mov	r3, r9
10004fe4:	9a01      	ldr	r2, [sp, #4]
10004fe6:	1a9b      	subs	r3, r3, r2
10004fe8:	1859      	adds	r1, r3, r1
10004fea:	4653      	mov	r3, sl
10004fec:	6059      	str	r1, [r3, #4]
10004fee:	2307      	movs	r3, #7
10004ff0:	464a      	mov	r2, r9
10004ff2:	4013      	ands	r3, r2
10004ff4:	d100      	bne.n	10004ff8 <_malloc_r+0x254>
10004ff6:	e11e      	b.n	10005236 <_malloc_r+0x492>
10004ff8:	2108      	movs	r1, #8
10004ffa:	4689      	mov	r9, r1
10004ffc:	494b      	ldr	r1, [pc, #300]	; (1000512c <_malloc_r+0x388>)
10004ffe:	1ad2      	subs	r2, r2, r3
10005000:	4491      	add	r9, r2
10005002:	1acb      	subs	r3, r1, r3
10005004:	9a00      	ldr	r2, [sp, #0]
10005006:	0038      	movs	r0, r7
10005008:	444a      	add	r2, r9
1000500a:	0511      	lsls	r1, r2, #20
1000500c:	0d09      	lsrs	r1, r1, #20
1000500e:	1a5b      	subs	r3, r3, r1
10005010:	0019      	movs	r1, r3
10005012:	469b      	mov	fp, r3
10005014:	f000 f976 	bl	10005304 <_sbrk_r>
10005018:	1c43      	adds	r3, r0, #1
1000501a:	d100      	bne.n	1000501e <_malloc_r+0x27a>
1000501c:	e13c      	b.n	10005298 <_malloc_r+0x4f4>
1000501e:	464b      	mov	r3, r9
10005020:	1ac0      	subs	r0, r0, r3
10005022:	2301      	movs	r3, #1
10005024:	4458      	add	r0, fp
10005026:	4318      	orrs	r0, r3
10005028:	4653      	mov	r3, sl
1000502a:	685b      	ldr	r3, [r3, #4]
1000502c:	445b      	add	r3, fp
1000502e:	0019      	movs	r1, r3
10005030:	4653      	mov	r3, sl
10005032:	6059      	str	r1, [r3, #4]
10005034:	464b      	mov	r3, r9
10005036:	60b3      	str	r3, [r6, #8]
10005038:	6058      	str	r0, [r3, #4]
1000503a:	42b4      	cmp	r4, r6
1000503c:	d013      	beq.n	10005066 <_malloc_r+0x2c2>
1000503e:	4643      	mov	r3, r8
10005040:	2b0f      	cmp	r3, #15
10005042:	d800      	bhi.n	10005046 <_malloc_r+0x2a2>
10005044:	e0e2      	b.n	1000520c <_malloc_r+0x468>
10005046:	4643      	mov	r3, r8
10005048:	2207      	movs	r2, #7
1000504a:	6860      	ldr	r0, [r4, #4]
1000504c:	3b0c      	subs	r3, #12
1000504e:	4393      	bics	r3, r2
10005050:	3a06      	subs	r2, #6
10005052:	4002      	ands	r2, r0
10005054:	2005      	movs	r0, #5
10005056:	431a      	orrs	r2, r3
10005058:	6062      	str	r2, [r4, #4]
1000505a:	18e2      	adds	r2, r4, r3
1000505c:	6050      	str	r0, [r2, #4]
1000505e:	6090      	str	r0, [r2, #8]
10005060:	2b0f      	cmp	r3, #15
10005062:	d900      	bls.n	10005066 <_malloc_r+0x2c2>
10005064:	e11c      	b.n	100052a0 <_malloc_r+0x4fc>
10005066:	4653      	mov	r3, sl
10005068:	6adb      	ldr	r3, [r3, #44]	; 0x2c
1000506a:	4299      	cmp	r1, r3
1000506c:	d901      	bls.n	10005072 <_malloc_r+0x2ce>
1000506e:	4653      	mov	r3, sl
10005070:	62d9      	str	r1, [r3, #44]	; 0x2c
10005072:	4653      	mov	r3, sl
10005074:	6b1b      	ldr	r3, [r3, #48]	; 0x30
10005076:	4299      	cmp	r1, r3
10005078:	d901      	bls.n	1000507e <_malloc_r+0x2da>
1000507a:	4653      	mov	r3, sl
1000507c:	6319      	str	r1, [r3, #48]	; 0x30
1000507e:	2303      	movs	r3, #3
10005080:	68b4      	ldr	r4, [r6, #8]
10005082:	6862      	ldr	r2, [r4, #4]
10005084:	439a      	bics	r2, r3
10005086:	1b53      	subs	r3, r2, r5
10005088:	4295      	cmp	r5, r2
1000508a:	d900      	bls.n	1000508e <_malloc_r+0x2ea>
1000508c:	e0c1      	b.n	10005212 <_malloc_r+0x46e>
1000508e:	2b0f      	cmp	r3, #15
10005090:	dc00      	bgt.n	10005094 <_malloc_r+0x2f0>
10005092:	e0be      	b.n	10005212 <_malloc_r+0x46e>
10005094:	2201      	movs	r2, #1
10005096:	0029      	movs	r1, r5
10005098:	4313      	orrs	r3, r2
1000509a:	4311      	orrs	r1, r2
1000509c:	1965      	adds	r5, r4, r5
1000509e:	6061      	str	r1, [r4, #4]
100050a0:	0038      	movs	r0, r7
100050a2:	60b5      	str	r5, [r6, #8]
100050a4:	606b      	str	r3, [r5, #4]
100050a6:	f000 f92b 	bl	10005300 <__malloc_unlock>
100050aa:	0020      	movs	r0, r4
100050ac:	3008      	adds	r0, #8
100050ae:	e748      	b.n	10004f42 <_malloc_r+0x19e>
100050b0:	2814      	cmp	r0, #20
100050b2:	d973      	bls.n	1000519c <_malloc_r+0x3f8>
100050b4:	2854      	cmp	r0, #84	; 0x54
100050b6:	d900      	bls.n	100050ba <_malloc_r+0x316>
100050b8:	e0b2      	b.n	10005220 <_malloc_r+0x47c>
100050ba:	236e      	movs	r3, #110	; 0x6e
100050bc:	4698      	mov	r8, r3
100050be:	0b28      	lsrs	r0, r5, #12
100050c0:	4480      	add	r8, r0
100050c2:	306f      	adds	r0, #111	; 0x6f
100050c4:	00c1      	lsls	r1, r0, #3
100050c6:	e694      	b.n	10004df2 <_malloc_r+0x4e>
100050c8:	0a5a      	lsrs	r2, r3, #9
100050ca:	2a04      	cmp	r2, #4
100050cc:	d96c      	bls.n	100051a8 <_malloc_r+0x404>
100050ce:	2a14      	cmp	r2, #20
100050d0:	d900      	bls.n	100050d4 <_malloc_r+0x330>
100050d2:	e0c8      	b.n	10005266 <_malloc_r+0x4c2>
100050d4:	0011      	movs	r1, r2
100050d6:	325c      	adds	r2, #92	; 0x5c
100050d8:	315b      	adds	r1, #91	; 0x5b
100050da:	00d2      	lsls	r2, r2, #3
100050dc:	2308      	movs	r3, #8
100050de:	425b      	negs	r3, r3
100050e0:	469c      	mov	ip, r3
100050e2:	18b2      	adds	r2, r6, r2
100050e4:	4494      	add	ip, r2
100050e6:	4663      	mov	r3, ip
100050e8:	689a      	ldr	r2, [r3, #8]
100050ea:	2303      	movs	r3, #3
100050ec:	4698      	mov	r8, r3
100050ee:	4594      	cmp	ip, r2
100050f0:	d100      	bne.n	100050f4 <_malloc_r+0x350>
100050f2:	e0a3      	b.n	1000523c <_malloc_r+0x498>
100050f4:	4643      	mov	r3, r8
100050f6:	6851      	ldr	r1, [r2, #4]
100050f8:	4399      	bics	r1, r3
100050fa:	4589      	cmp	r9, r1
100050fc:	d300      	bcc.n	10005100 <_malloc_r+0x35c>
100050fe:	e08d      	b.n	1000521c <_malloc_r+0x478>
10005100:	6892      	ldr	r2, [r2, #8]
10005102:	4594      	cmp	ip, r2
10005104:	d1f6      	bne.n	100050f4 <_malloc_r+0x350>
10005106:	4663      	mov	r3, ip
10005108:	68da      	ldr	r2, [r3, #12]
1000510a:	6873      	ldr	r3, [r6, #4]
1000510c:	4661      	mov	r1, ip
1000510e:	60e2      	str	r2, [r4, #12]
10005110:	60a1      	str	r1, [r4, #8]
10005112:	6094      	str	r4, [r2, #8]
10005114:	60cc      	str	r4, [r1, #12]
10005116:	e6b4      	b.n	10004e82 <_malloc_r+0xde>
10005118:	20001330 	.word	0x20001330
1000511c:	000001ff 	.word	0x000001ff
10005120:	20001730 	.word	0x20001730
10005124:	20001884 	.word	0x20001884
10005128:	0000100f 	.word	0x0000100f
1000512c:	00001008 	.word	0x00001008
10005130:	2301      	movs	r3, #1
10005132:	1960      	adds	r0, r4, r5
10005134:	431d      	orrs	r5, r3
10005136:	6065      	str	r5, [r4, #4]
10005138:	6170      	str	r0, [r6, #20]
1000513a:	6130      	str	r0, [r6, #16]
1000513c:	60c2      	str	r2, [r0, #12]
1000513e:	6082      	str	r2, [r0, #8]
10005140:	001a      	movs	r2, r3
10005142:	464b      	mov	r3, r9
10005144:	430a      	orrs	r2, r1
10005146:	6042      	str	r2, [r0, #4]
10005148:	0038      	movs	r0, r7
1000514a:	50e1      	str	r1, [r4, r3]
1000514c:	f000 f8d8 	bl	10005300 <__malloc_unlock>
10005150:	0020      	movs	r0, r4
10005152:	3008      	adds	r0, #8
10005154:	e6f5      	b.n	10004f42 <_malloc_r+0x19e>
10005156:	6873      	ldr	r3, [r6, #4]
10005158:	e693      	b.n	10004e82 <_malloc_r+0xde>
1000515a:	2308      	movs	r3, #8
1000515c:	469b      	mov	fp, r3
1000515e:	3b07      	subs	r3, #7
10005160:	44dc      	add	ip, fp
10005162:	469b      	mov	fp, r3
10005164:	44da      	add	sl, fp
10005166:	4643      	mov	r3, r8
10005168:	4652      	mov	r2, sl
1000516a:	4213      	tst	r3, r2
1000516c:	d000      	beq.n	10005170 <_malloc_r+0x3cc>
1000516e:	e69c      	b.n	10004eaa <_malloc_r+0x106>
10005170:	e036      	b.n	100051e0 <_malloc_r+0x43c>
10005172:	68dc      	ldr	r4, [r3, #12]
10005174:	3002      	adds	r0, #2
10005176:	42a3      	cmp	r3, r4
10005178:	d100      	bne.n	1000517c <_malloc_r+0x3d8>
1000517a:	e65a      	b.n	10004e32 <_malloc_r+0x8e>
1000517c:	e6cf      	b.n	10004f1e <_malloc_r+0x17a>
1000517e:	2201      	movs	r2, #1
10005180:	18e3      	adds	r3, r4, r3
10005182:	6859      	ldr	r1, [r3, #4]
10005184:	0038      	movs	r0, r7
10005186:	430a      	orrs	r2, r1
10005188:	605a      	str	r2, [r3, #4]
1000518a:	68e3      	ldr	r3, [r4, #12]
1000518c:	68a2      	ldr	r2, [r4, #8]
1000518e:	60d3      	str	r3, [r2, #12]
10005190:	609a      	str	r2, [r3, #8]
10005192:	f000 f8b5 	bl	10005300 <__malloc_unlock>
10005196:	0020      	movs	r0, r4
10005198:	3008      	adds	r0, #8
1000519a:	e6d2      	b.n	10004f42 <_malloc_r+0x19e>
1000519c:	235b      	movs	r3, #91	; 0x5b
1000519e:	4698      	mov	r8, r3
100051a0:	4480      	add	r8, r0
100051a2:	305c      	adds	r0, #92	; 0x5c
100051a4:	00c1      	lsls	r1, r0, #3
100051a6:	e624      	b.n	10004df2 <_malloc_r+0x4e>
100051a8:	099a      	lsrs	r2, r3, #6
100051aa:	0011      	movs	r1, r2
100051ac:	3239      	adds	r2, #57	; 0x39
100051ae:	3138      	adds	r1, #56	; 0x38
100051b0:	00d2      	lsls	r2, r2, #3
100051b2:	e793      	b.n	100050dc <_malloc_r+0x338>
100051b4:	42b4      	cmp	r4, r6
100051b6:	d000      	beq.n	100051ba <_malloc_r+0x416>
100051b8:	e761      	b.n	1000507e <_malloc_r+0x2da>
100051ba:	4653      	mov	r3, sl
100051bc:	685b      	ldr	r3, [r3, #4]
100051be:	9a00      	ldr	r2, [sp, #0]
100051c0:	469c      	mov	ip, r3
100051c2:	4653      	mov	r3, sl
100051c4:	4462      	add	r2, ip
100051c6:	0011      	movs	r1, r2
100051c8:	605a      	str	r2, [r3, #4]
100051ca:	e705      	b.n	10004fd8 <_malloc_r+0x234>
100051cc:	2308      	movs	r3, #8
100051ce:	425b      	negs	r3, r3
100051d0:	469c      	mov	ip, r3
100051d2:	44e1      	add	r9, ip
100051d4:	464b      	mov	r3, r9
100051d6:	689b      	ldr	r3, [r3, #8]
100051d8:	3801      	subs	r0, #1
100051da:	4599      	cmp	r9, r3
100051dc:	d000      	beq.n	100051e0 <_malloc_r+0x43c>
100051de:	e084      	b.n	100052ea <_malloc_r+0x546>
100051e0:	4643      	mov	r3, r8
100051e2:	4203      	tst	r3, r0
100051e4:	d1f2      	bne.n	100051cc <_malloc_r+0x428>
100051e6:	6873      	ldr	r3, [r6, #4]
100051e8:	438b      	bics	r3, r1
100051ea:	6073      	str	r3, [r6, #4]
100051ec:	0049      	lsls	r1, r1, #1
100051ee:	4299      	cmp	r1, r3
100051f0:	d900      	bls.n	100051f4 <_malloc_r+0x450>
100051f2:	e6bb      	b.n	10004f6c <_malloc_r+0x1c8>
100051f4:	2900      	cmp	r1, #0
100051f6:	d100      	bne.n	100051fa <_malloc_r+0x456>
100051f8:	e6b8      	b.n	10004f6c <_malloc_r+0x1c8>
100051fa:	4650      	mov	r0, sl
100051fc:	420b      	tst	r3, r1
100051fe:	d000      	beq.n	10005202 <_malloc_r+0x45e>
10005200:	e64e      	b.n	10004ea0 <_malloc_r+0xfc>
10005202:	0049      	lsls	r1, r1, #1
10005204:	3004      	adds	r0, #4
10005206:	420b      	tst	r3, r1
10005208:	d0fb      	beq.n	10005202 <_malloc_r+0x45e>
1000520a:	e649      	b.n	10004ea0 <_malloc_r+0xfc>
1000520c:	2301      	movs	r3, #1
1000520e:	464a      	mov	r2, r9
10005210:	6053      	str	r3, [r2, #4]
10005212:	0038      	movs	r0, r7
10005214:	f000 f874 	bl	10005300 <__malloc_unlock>
10005218:	2000      	movs	r0, #0
1000521a:	e692      	b.n	10004f42 <_malloc_r+0x19e>
1000521c:	4694      	mov	ip, r2
1000521e:	e772      	b.n	10005106 <_malloc_r+0x362>
10005220:	23aa      	movs	r3, #170	; 0xaa
10005222:	005b      	lsls	r3, r3, #1
10005224:	4298      	cmp	r0, r3
10005226:	d811      	bhi.n	1000524c <_malloc_r+0x4a8>
10005228:	3bdd      	subs	r3, #221	; 0xdd
1000522a:	4698      	mov	r8, r3
1000522c:	0be8      	lsrs	r0, r5, #15
1000522e:	4480      	add	r8, r0
10005230:	3078      	adds	r0, #120	; 0x78
10005232:	00c1      	lsls	r1, r0, #3
10005234:	e5dd      	b.n	10004df2 <_malloc_r+0x4e>
10005236:	2380      	movs	r3, #128	; 0x80
10005238:	015b      	lsls	r3, r3, #5
1000523a:	e6e3      	b.n	10005004 <_malloc_r+0x260>
1000523c:	1089      	asrs	r1, r1, #2
1000523e:	3b02      	subs	r3, #2
10005240:	408b      	lsls	r3, r1
10005242:	6872      	ldr	r2, [r6, #4]
10005244:	4313      	orrs	r3, r2
10005246:	6073      	str	r3, [r6, #4]
10005248:	4662      	mov	r2, ip
1000524a:	e75f      	b.n	1000510c <_malloc_r+0x368>
1000524c:	4b2a      	ldr	r3, [pc, #168]	; (100052f8 <_malloc_r+0x554>)
1000524e:	4298      	cmp	r0, r3
10005250:	d81c      	bhi.n	1000528c <_malloc_r+0x4e8>
10005252:	237c      	movs	r3, #124	; 0x7c
10005254:	4698      	mov	r8, r3
10005256:	0ca8      	lsrs	r0, r5, #18
10005258:	4480      	add	r8, r0
1000525a:	307d      	adds	r0, #125	; 0x7d
1000525c:	00c1      	lsls	r1, r0, #3
1000525e:	e5c8      	b.n	10004df2 <_malloc_r+0x4e>
10005260:	3310      	adds	r3, #16
10005262:	9300      	str	r3, [sp, #0]
10005264:	e6a0      	b.n	10004fa8 <_malloc_r+0x204>
10005266:	2a54      	cmp	r2, #84	; 0x54
10005268:	d826      	bhi.n	100052b8 <_malloc_r+0x514>
1000526a:	464b      	mov	r3, r9
1000526c:	0b1a      	lsrs	r2, r3, #12
1000526e:	0011      	movs	r1, r2
10005270:	326f      	adds	r2, #111	; 0x6f
10005272:	316e      	adds	r1, #110	; 0x6e
10005274:	00d2      	lsls	r2, r2, #3
10005276:	e731      	b.n	100050dc <_malloc_r+0x338>
10005278:	051b      	lsls	r3, r3, #20
1000527a:	d000      	beq.n	1000527e <_malloc_r+0x4da>
1000527c:	e6ac      	b.n	10004fd8 <_malloc_r+0x234>
1000527e:	2001      	movs	r0, #1
10005280:	9b00      	ldr	r3, [sp, #0]
10005282:	68b2      	ldr	r2, [r6, #8]
10005284:	4443      	add	r3, r8
10005286:	4303      	orrs	r3, r0
10005288:	6053      	str	r3, [r2, #4]
1000528a:	e6ec      	b.n	10005066 <_malloc_r+0x2c2>
1000528c:	21fe      	movs	r1, #254	; 0xfe
1000528e:	237e      	movs	r3, #126	; 0x7e
10005290:	207f      	movs	r0, #127	; 0x7f
10005292:	0089      	lsls	r1, r1, #2
10005294:	4698      	mov	r8, r3
10005296:	e5ac      	b.n	10004df2 <_malloc_r+0x4e>
10005298:	2300      	movs	r3, #0
1000529a:	2001      	movs	r0, #1
1000529c:	469b      	mov	fp, r3
1000529e:	e6c3      	b.n	10005028 <_malloc_r+0x284>
100052a0:	0021      	movs	r1, r4
100052a2:	0038      	movs	r0, r7
100052a4:	3108      	adds	r1, #8
100052a6:	f000 fb7d 	bl	100059a4 <_free_r>
100052aa:	4653      	mov	r3, sl
100052ac:	6859      	ldr	r1, [r3, #4]
100052ae:	e6da      	b.n	10005066 <_malloc_r+0x2c2>
100052b0:	465b      	mov	r3, fp
100052b2:	464a      	mov	r2, r9
100052b4:	609a      	str	r2, [r3, #8]
100052b6:	e69a      	b.n	10004fee <_malloc_r+0x24a>
100052b8:	21aa      	movs	r1, #170	; 0xaa
100052ba:	0049      	lsls	r1, r1, #1
100052bc:	428a      	cmp	r2, r1
100052be:	d806      	bhi.n	100052ce <_malloc_r+0x52a>
100052c0:	464b      	mov	r3, r9
100052c2:	0bda      	lsrs	r2, r3, #15
100052c4:	0011      	movs	r1, r2
100052c6:	3278      	adds	r2, #120	; 0x78
100052c8:	3177      	adds	r1, #119	; 0x77
100052ca:	00d2      	lsls	r2, r2, #3
100052cc:	e706      	b.n	100050dc <_malloc_r+0x338>
100052ce:	490a      	ldr	r1, [pc, #40]	; (100052f8 <_malloc_r+0x554>)
100052d0:	428a      	cmp	r2, r1
100052d2:	d806      	bhi.n	100052e2 <_malloc_r+0x53e>
100052d4:	464b      	mov	r3, r9
100052d6:	0c9a      	lsrs	r2, r3, #18
100052d8:	0011      	movs	r1, r2
100052da:	327d      	adds	r2, #125	; 0x7d
100052dc:	317c      	adds	r1, #124	; 0x7c
100052de:	00d2      	lsls	r2, r2, #3
100052e0:	e6fc      	b.n	100050dc <_malloc_r+0x338>
100052e2:	22fe      	movs	r2, #254	; 0xfe
100052e4:	217e      	movs	r1, #126	; 0x7e
100052e6:	0092      	lsls	r2, r2, #2
100052e8:	e6f8      	b.n	100050dc <_malloc_r+0x338>
100052ea:	6873      	ldr	r3, [r6, #4]
100052ec:	e77e      	b.n	100051ec <_malloc_r+0x448>
100052ee:	002b      	movs	r3, r5
100052f0:	08e8      	lsrs	r0, r5, #3
100052f2:	3308      	adds	r3, #8
100052f4:	e60b      	b.n	10004f0e <_malloc_r+0x16a>
100052f6:	46c0      	nop			; (mov r8, r8)
100052f8:	00000554 	.word	0x00000554

100052fc <__malloc_lock>:
100052fc:	4770      	bx	lr
100052fe:	46c0      	nop			; (mov r8, r8)

10005300 <__malloc_unlock>:
10005300:	4770      	bx	lr
10005302:	46c0      	nop			; (mov r8, r8)

10005304 <_sbrk_r>:
10005304:	2300      	movs	r3, #0
10005306:	b570      	push	{r4, r5, r6, lr}
10005308:	4c06      	ldr	r4, [pc, #24]	; (10005324 <_sbrk_r+0x20>)
1000530a:	0005      	movs	r5, r0
1000530c:	0008      	movs	r0, r1
1000530e:	6023      	str	r3, [r4, #0]
10005310:	f7fc ffdc 	bl	100022cc <_sbrk>
10005314:	1c43      	adds	r3, r0, #1
10005316:	d000      	beq.n	1000531a <_sbrk_r+0x16>
10005318:	bd70      	pop	{r4, r5, r6, pc}
1000531a:	6823      	ldr	r3, [r4, #0]
1000531c:	2b00      	cmp	r3, #0
1000531e:	d0fb      	beq.n	10005318 <_sbrk_r+0x14>
10005320:	602b      	str	r3, [r5, #0]
10005322:	e7f9      	b.n	10005318 <_sbrk_r+0x14>
10005324:	20002520 	.word	0x20002520

10005328 <strlen>:
10005328:	b510      	push	{r4, lr}
1000532a:	0783      	lsls	r3, r0, #30
1000532c:	d025      	beq.n	1000537a <strlen+0x52>
1000532e:	7803      	ldrb	r3, [r0, #0]
10005330:	2b00      	cmp	r3, #0
10005332:	d024      	beq.n	1000537e <strlen+0x56>
10005334:	0003      	movs	r3, r0
10005336:	2103      	movs	r1, #3
10005338:	e002      	b.n	10005340 <strlen+0x18>
1000533a:	781a      	ldrb	r2, [r3, #0]
1000533c:	2a00      	cmp	r2, #0
1000533e:	d01a      	beq.n	10005376 <strlen+0x4e>
10005340:	3301      	adds	r3, #1
10005342:	420b      	tst	r3, r1
10005344:	d1f9      	bne.n	1000533a <strlen+0x12>
10005346:	6819      	ldr	r1, [r3, #0]
10005348:	4a0e      	ldr	r2, [pc, #56]	; (10005384 <strlen+0x5c>)
1000534a:	4c0f      	ldr	r4, [pc, #60]	; (10005388 <strlen+0x60>)
1000534c:	188a      	adds	r2, r1, r2
1000534e:	438a      	bics	r2, r1
10005350:	4222      	tst	r2, r4
10005352:	d106      	bne.n	10005362 <strlen+0x3a>
10005354:	3304      	adds	r3, #4
10005356:	6819      	ldr	r1, [r3, #0]
10005358:	4a0a      	ldr	r2, [pc, #40]	; (10005384 <strlen+0x5c>)
1000535a:	188a      	adds	r2, r1, r2
1000535c:	438a      	bics	r2, r1
1000535e:	4222      	tst	r2, r4
10005360:	d0f8      	beq.n	10005354 <strlen+0x2c>
10005362:	001a      	movs	r2, r3
10005364:	781b      	ldrb	r3, [r3, #0]
10005366:	2b00      	cmp	r3, #0
10005368:	d003      	beq.n	10005372 <strlen+0x4a>
1000536a:	3201      	adds	r2, #1
1000536c:	7811      	ldrb	r1, [r2, #0]
1000536e:	2900      	cmp	r1, #0
10005370:	d1fb      	bne.n	1000536a <strlen+0x42>
10005372:	1a10      	subs	r0, r2, r0
10005374:	bd10      	pop	{r4, pc}
10005376:	1a18      	subs	r0, r3, r0
10005378:	e7fc      	b.n	10005374 <strlen+0x4c>
1000537a:	0003      	movs	r3, r0
1000537c:	e7e3      	b.n	10005346 <strlen+0x1e>
1000537e:	2000      	movs	r0, #0
10005380:	e7f8      	b.n	10005374 <strlen+0x4c>
10005382:	46c0      	nop			; (mov r8, r8)
10005384:	fefefeff 	.word	0xfefefeff
10005388:	80808080 	.word	0x80808080

1000538c <__swbuf_r>:
1000538c:	b5f8      	push	{r3, r4, r5, r6, r7, lr}
1000538e:	0006      	movs	r6, r0
10005390:	000d      	movs	r5, r1
10005392:	0014      	movs	r4, r2
10005394:	2800      	cmp	r0, #0
10005396:	d002      	beq.n	1000539e <__swbuf_r+0x12>
10005398:	6b83      	ldr	r3, [r0, #56]	; 0x38
1000539a:	2b00      	cmp	r3, #0
1000539c:	d04e      	beq.n	1000543c <__swbuf_r+0xb0>
1000539e:	69a3      	ldr	r3, [r4, #24]
100053a0:	60a3      	str	r3, [r4, #8]
100053a2:	230c      	movs	r3, #12
100053a4:	5ee0      	ldrsh	r0, [r4, r3]
100053a6:	b281      	uxth	r1, r0
100053a8:	070b      	lsls	r3, r1, #28
100053aa:	d53c      	bpl.n	10005426 <__swbuf_r+0x9a>
100053ac:	6923      	ldr	r3, [r4, #16]
100053ae:	2b00      	cmp	r3, #0
100053b0:	d039      	beq.n	10005426 <__swbuf_r+0x9a>
100053b2:	22ff      	movs	r2, #255	; 0xff
100053b4:	b2ef      	uxtb	r7, r5
100053b6:	4015      	ands	r5, r2
100053b8:	2280      	movs	r2, #128	; 0x80
100053ba:	0192      	lsls	r2, r2, #6
100053bc:	4211      	tst	r1, r2
100053be:	d015      	beq.n	100053ec <__swbuf_r+0x60>
100053c0:	6822      	ldr	r2, [r4, #0]
100053c2:	6961      	ldr	r1, [r4, #20]
100053c4:	1ad3      	subs	r3, r2, r3
100053c6:	428b      	cmp	r3, r1
100053c8:	da1b      	bge.n	10005402 <__swbuf_r+0x76>
100053ca:	3301      	adds	r3, #1
100053cc:	68a1      	ldr	r1, [r4, #8]
100053ce:	3901      	subs	r1, #1
100053d0:	60a1      	str	r1, [r4, #8]
100053d2:	1c51      	adds	r1, r2, #1
100053d4:	6021      	str	r1, [r4, #0]
100053d6:	7017      	strb	r7, [r2, #0]
100053d8:	6962      	ldr	r2, [r4, #20]
100053da:	429a      	cmp	r2, r3
100053dc:	d01a      	beq.n	10005414 <__swbuf_r+0x88>
100053de:	89a3      	ldrh	r3, [r4, #12]
100053e0:	07db      	lsls	r3, r3, #31
100053e2:	d501      	bpl.n	100053e8 <__swbuf_r+0x5c>
100053e4:	2d0a      	cmp	r5, #10
100053e6:	d015      	beq.n	10005414 <__swbuf_r+0x88>
100053e8:	0028      	movs	r0, r5
100053ea:	bdf8      	pop	{r3, r4, r5, r6, r7, pc}
100053ec:	4302      	orrs	r2, r0
100053ee:	6e61      	ldr	r1, [r4, #100]	; 0x64
100053f0:	81a2      	strh	r2, [r4, #12]
100053f2:	4a14      	ldr	r2, [pc, #80]	; (10005444 <__swbuf_r+0xb8>)
100053f4:	400a      	ands	r2, r1
100053f6:	6662      	str	r2, [r4, #100]	; 0x64
100053f8:	6961      	ldr	r1, [r4, #20]
100053fa:	6822      	ldr	r2, [r4, #0]
100053fc:	1ad3      	subs	r3, r2, r3
100053fe:	428b      	cmp	r3, r1
10005400:	dbe3      	blt.n	100053ca <__swbuf_r+0x3e>
10005402:	0021      	movs	r1, r4
10005404:	0030      	movs	r0, r6
10005406:	f000 f93d 	bl	10005684 <_fflush_r>
1000540a:	2800      	cmp	r0, #0
1000540c:	d108      	bne.n	10005420 <__swbuf_r+0x94>
1000540e:	6822      	ldr	r2, [r4, #0]
10005410:	2301      	movs	r3, #1
10005412:	e7db      	b.n	100053cc <__swbuf_r+0x40>
10005414:	0021      	movs	r1, r4
10005416:	0030      	movs	r0, r6
10005418:	f000 f934 	bl	10005684 <_fflush_r>
1000541c:	2800      	cmp	r0, #0
1000541e:	d0e3      	beq.n	100053e8 <__swbuf_r+0x5c>
10005420:	2501      	movs	r5, #1
10005422:	426d      	negs	r5, r5
10005424:	e7e0      	b.n	100053e8 <__swbuf_r+0x5c>
10005426:	0021      	movs	r1, r4
10005428:	0030      	movs	r0, r6
1000542a:	f000 f819 	bl	10005460 <__swsetup_r>
1000542e:	2800      	cmp	r0, #0
10005430:	d1f6      	bne.n	10005420 <__swbuf_r+0x94>
10005432:	230c      	movs	r3, #12
10005434:	5ee0      	ldrsh	r0, [r4, r3]
10005436:	6923      	ldr	r3, [r4, #16]
10005438:	b281      	uxth	r1, r0
1000543a:	e7ba      	b.n	100053b2 <__swbuf_r+0x26>
1000543c:	f000 fa3a 	bl	100058b4 <__sinit>
10005440:	e7ad      	b.n	1000539e <__swbuf_r+0x12>
10005442:	46c0      	nop			; (mov r8, r8)
10005444:	ffffdfff 	.word	0xffffdfff

10005448 <__swbuf>:
10005448:	b510      	push	{r4, lr}
1000544a:	4b04      	ldr	r3, [pc, #16]	; (1000545c <__swbuf+0x14>)
1000544c:	000a      	movs	r2, r1
1000544e:	681b      	ldr	r3, [r3, #0]
10005450:	0001      	movs	r1, r0
10005452:	0018      	movs	r0, r3
10005454:	f7ff ff9a 	bl	1000538c <__swbuf_r>
10005458:	bd10      	pop	{r4, pc}
1000545a:	46c0      	nop			; (mov r8, r8)
1000545c:	20000f00 	.word	0x20000f00

10005460 <__swsetup_r>:
10005460:	4b33      	ldr	r3, [pc, #204]	; (10005530 <__swsetup_r+0xd0>)
10005462:	b570      	push	{r4, r5, r6, lr}
10005464:	0005      	movs	r5, r0
10005466:	6818      	ldr	r0, [r3, #0]
10005468:	000c      	movs	r4, r1
1000546a:	2800      	cmp	r0, #0
1000546c:	d002      	beq.n	10005474 <__swsetup_r+0x14>
1000546e:	6b83      	ldr	r3, [r0, #56]	; 0x38
10005470:	2b00      	cmp	r3, #0
10005472:	d03c      	beq.n	100054ee <__swsetup_r+0x8e>
10005474:	230c      	movs	r3, #12
10005476:	5ee2      	ldrsh	r2, [r4, r3]
10005478:	b293      	uxth	r3, r2
1000547a:	0719      	lsls	r1, r3, #28
1000547c:	d50d      	bpl.n	1000549a <__swsetup_r+0x3a>
1000547e:	6921      	ldr	r1, [r4, #16]
10005480:	2900      	cmp	r1, #0
10005482:	d015      	beq.n	100054b0 <__swsetup_r+0x50>
10005484:	07da      	lsls	r2, r3, #31
10005486:	d521      	bpl.n	100054cc <__swsetup_r+0x6c>
10005488:	2300      	movs	r3, #0
1000548a:	60a3      	str	r3, [r4, #8]
1000548c:	6963      	ldr	r3, [r4, #20]
1000548e:	2000      	movs	r0, #0
10005490:	425b      	negs	r3, r3
10005492:	61a3      	str	r3, [r4, #24]
10005494:	2900      	cmp	r1, #0
10005496:	d021      	beq.n	100054dc <__swsetup_r+0x7c>
10005498:	bd70      	pop	{r4, r5, r6, pc}
1000549a:	06d9      	lsls	r1, r3, #27
1000549c:	d53f      	bpl.n	1000551e <__swsetup_r+0xbe>
1000549e:	075b      	lsls	r3, r3, #29
100054a0:	d428      	bmi.n	100054f4 <__swsetup_r+0x94>
100054a2:	6921      	ldr	r1, [r4, #16]
100054a4:	2308      	movs	r3, #8
100054a6:	4313      	orrs	r3, r2
100054a8:	81a3      	strh	r3, [r4, #12]
100054aa:	b29b      	uxth	r3, r3
100054ac:	2900      	cmp	r1, #0
100054ae:	d1e9      	bne.n	10005484 <__swsetup_r+0x24>
100054b0:	22a0      	movs	r2, #160	; 0xa0
100054b2:	2080      	movs	r0, #128	; 0x80
100054b4:	0092      	lsls	r2, r2, #2
100054b6:	0080      	lsls	r0, r0, #2
100054b8:	401a      	ands	r2, r3
100054ba:	4282      	cmp	r2, r0
100054bc:	d0e2      	beq.n	10005484 <__swsetup_r+0x24>
100054be:	0021      	movs	r1, r4
100054c0:	0028      	movs	r0, r5
100054c2:	f000 fbc5 	bl	10005c50 <__smakebuf_r>
100054c6:	89a3      	ldrh	r3, [r4, #12]
100054c8:	6921      	ldr	r1, [r4, #16]
100054ca:	e7db      	b.n	10005484 <__swsetup_r+0x24>
100054cc:	2200      	movs	r2, #0
100054ce:	079b      	lsls	r3, r3, #30
100054d0:	d400      	bmi.n	100054d4 <__swsetup_r+0x74>
100054d2:	6962      	ldr	r2, [r4, #20]
100054d4:	60a2      	str	r2, [r4, #8]
100054d6:	2000      	movs	r0, #0
100054d8:	2900      	cmp	r1, #0
100054da:	d1dd      	bne.n	10005498 <__swsetup_r+0x38>
100054dc:	220c      	movs	r2, #12
100054de:	5ea3      	ldrsh	r3, [r4, r2]
100054e0:	061a      	lsls	r2, r3, #24
100054e2:	d5d9      	bpl.n	10005498 <__swsetup_r+0x38>
100054e4:	2240      	movs	r2, #64	; 0x40
100054e6:	4313      	orrs	r3, r2
100054e8:	81a3      	strh	r3, [r4, #12]
100054ea:	3801      	subs	r0, #1
100054ec:	e7d4      	b.n	10005498 <__swsetup_r+0x38>
100054ee:	f000 f9e1 	bl	100058b4 <__sinit>
100054f2:	e7bf      	b.n	10005474 <__swsetup_r+0x14>
100054f4:	6b21      	ldr	r1, [r4, #48]	; 0x30
100054f6:	2900      	cmp	r1, #0
100054f8:	d00a      	beq.n	10005510 <__swsetup_r+0xb0>
100054fa:	0023      	movs	r3, r4
100054fc:	3340      	adds	r3, #64	; 0x40
100054fe:	4299      	cmp	r1, r3
10005500:	d004      	beq.n	1000550c <__swsetup_r+0xac>
10005502:	0028      	movs	r0, r5
10005504:	f000 fa4e 	bl	100059a4 <_free_r>
10005508:	230c      	movs	r3, #12
1000550a:	5ee2      	ldrsh	r2, [r4, r3]
1000550c:	2300      	movs	r3, #0
1000550e:	6323      	str	r3, [r4, #48]	; 0x30
10005510:	2324      	movs	r3, #36	; 0x24
10005512:	439a      	bics	r2, r3
10005514:	2300      	movs	r3, #0
10005516:	6921      	ldr	r1, [r4, #16]
10005518:	6063      	str	r3, [r4, #4]
1000551a:	6021      	str	r1, [r4, #0]
1000551c:	e7c2      	b.n	100054a4 <__swsetup_r+0x44>
1000551e:	2309      	movs	r3, #9
10005520:	602b      	str	r3, [r5, #0]
10005522:	2340      	movs	r3, #64	; 0x40
10005524:	2001      	movs	r0, #1
10005526:	431a      	orrs	r2, r3
10005528:	81a2      	strh	r2, [r4, #12]
1000552a:	4240      	negs	r0, r0
1000552c:	e7b4      	b.n	10005498 <__swsetup_r+0x38>
1000552e:	46c0      	nop			; (mov r8, r8)
10005530:	20000f00 	.word	0x20000f00

10005534 <__sflush_r>:
10005534:	b5f0      	push	{r4, r5, r6, r7, lr}
10005536:	46c6      	mov	lr, r8
10005538:	b500      	push	{lr}
1000553a:	230c      	movs	r3, #12
1000553c:	5eca      	ldrsh	r2, [r1, r3]
1000553e:	4680      	mov	r8, r0
10005540:	b293      	uxth	r3, r2
10005542:	000c      	movs	r4, r1
10005544:	0719      	lsls	r1, r3, #28
10005546:	d440      	bmi.n	100055ca <__sflush_r+0x96>
10005548:	2380      	movs	r3, #128	; 0x80
1000554a:	011b      	lsls	r3, r3, #4
1000554c:	4313      	orrs	r3, r2
1000554e:	6862      	ldr	r2, [r4, #4]
10005550:	81a3      	strh	r3, [r4, #12]
10005552:	2a00      	cmp	r2, #0
10005554:	dc00      	bgt.n	10005558 <__sflush_r+0x24>
10005556:	e070      	b.n	1000563a <__sflush_r+0x106>
10005558:	6aa6      	ldr	r6, [r4, #40]	; 0x28
1000555a:	2e00      	cmp	r6, #0
1000555c:	d031      	beq.n	100055c2 <__sflush_r+0x8e>
1000555e:	4642      	mov	r2, r8
10005560:	4641      	mov	r1, r8
10005562:	6815      	ldr	r5, [r2, #0]
10005564:	2200      	movs	r2, #0
10005566:	b29b      	uxth	r3, r3
10005568:	600a      	str	r2, [r1, #0]
1000556a:	04da      	lsls	r2, r3, #19
1000556c:	d400      	bmi.n	10005570 <__sflush_r+0x3c>
1000556e:	e069      	b.n	10005644 <__sflush_r+0x110>
10005570:	6d22      	ldr	r2, [r4, #80]	; 0x50
10005572:	075b      	lsls	r3, r3, #29
10005574:	d506      	bpl.n	10005584 <__sflush_r+0x50>
10005576:	6863      	ldr	r3, [r4, #4]
10005578:	1ad2      	subs	r2, r2, r3
1000557a:	6b23      	ldr	r3, [r4, #48]	; 0x30
1000557c:	2b00      	cmp	r3, #0
1000557e:	d001      	beq.n	10005584 <__sflush_r+0x50>
10005580:	6be3      	ldr	r3, [r4, #60]	; 0x3c
10005582:	1ad2      	subs	r2, r2, r3
10005584:	2300      	movs	r3, #0
10005586:	69e1      	ldr	r1, [r4, #28]
10005588:	4640      	mov	r0, r8
1000558a:	47b0      	blx	r6
1000558c:	1c43      	adds	r3, r0, #1
1000558e:	d03d      	beq.n	1000560c <__sflush_r+0xd8>
10005590:	89a3      	ldrh	r3, [r4, #12]
10005592:	4a3a      	ldr	r2, [pc, #232]	; (1000567c <__sflush_r+0x148>)
10005594:	4013      	ands	r3, r2
10005596:	2200      	movs	r2, #0
10005598:	6062      	str	r2, [r4, #4]
1000559a:	6922      	ldr	r2, [r4, #16]
1000559c:	b21b      	sxth	r3, r3
1000559e:	81a3      	strh	r3, [r4, #12]
100055a0:	6022      	str	r2, [r4, #0]
100055a2:	04db      	lsls	r3, r3, #19
100055a4:	d447      	bmi.n	10005636 <__sflush_r+0x102>
100055a6:	4643      	mov	r3, r8
100055a8:	6b21      	ldr	r1, [r4, #48]	; 0x30
100055aa:	601d      	str	r5, [r3, #0]
100055ac:	2900      	cmp	r1, #0
100055ae:	d008      	beq.n	100055c2 <__sflush_r+0x8e>
100055b0:	0023      	movs	r3, r4
100055b2:	3340      	adds	r3, #64	; 0x40
100055b4:	4299      	cmp	r1, r3
100055b6:	d002      	beq.n	100055be <__sflush_r+0x8a>
100055b8:	4640      	mov	r0, r8
100055ba:	f000 f9f3 	bl	100059a4 <_free_r>
100055be:	2300      	movs	r3, #0
100055c0:	6323      	str	r3, [r4, #48]	; 0x30
100055c2:	2000      	movs	r0, #0
100055c4:	bc04      	pop	{r2}
100055c6:	4690      	mov	r8, r2
100055c8:	bdf0      	pop	{r4, r5, r6, r7, pc}
100055ca:	6926      	ldr	r6, [r4, #16]
100055cc:	2e00      	cmp	r6, #0
100055ce:	d0f8      	beq.n	100055c2 <__sflush_r+0x8e>
100055d0:	6822      	ldr	r2, [r4, #0]
100055d2:	6026      	str	r6, [r4, #0]
100055d4:	1b95      	subs	r5, r2, r6
100055d6:	2200      	movs	r2, #0
100055d8:	079b      	lsls	r3, r3, #30
100055da:	d100      	bne.n	100055de <__sflush_r+0xaa>
100055dc:	6962      	ldr	r2, [r4, #20]
100055de:	60a2      	str	r2, [r4, #8]
100055e0:	2d00      	cmp	r5, #0
100055e2:	dc04      	bgt.n	100055ee <__sflush_r+0xba>
100055e4:	e7ed      	b.n	100055c2 <__sflush_r+0x8e>
100055e6:	1836      	adds	r6, r6, r0
100055e8:	1a2d      	subs	r5, r5, r0
100055ea:	2d00      	cmp	r5, #0
100055ec:	dde9      	ble.n	100055c2 <__sflush_r+0x8e>
100055ee:	002b      	movs	r3, r5
100055f0:	0032      	movs	r2, r6
100055f2:	69e1      	ldr	r1, [r4, #28]
100055f4:	4640      	mov	r0, r8
100055f6:	6a67      	ldr	r7, [r4, #36]	; 0x24
100055f8:	47b8      	blx	r7
100055fa:	2800      	cmp	r0, #0
100055fc:	dcf3      	bgt.n	100055e6 <__sflush_r+0xb2>
100055fe:	2240      	movs	r2, #64	; 0x40
10005600:	2001      	movs	r0, #1
10005602:	89a3      	ldrh	r3, [r4, #12]
10005604:	4240      	negs	r0, r0
10005606:	4313      	orrs	r3, r2
10005608:	81a3      	strh	r3, [r4, #12]
1000560a:	e7db      	b.n	100055c4 <__sflush_r+0x90>
1000560c:	4643      	mov	r3, r8
1000560e:	6819      	ldr	r1, [r3, #0]
10005610:	291d      	cmp	r1, #29
10005612:	d8f4      	bhi.n	100055fe <__sflush_r+0xca>
10005614:	4b1a      	ldr	r3, [pc, #104]	; (10005680 <__sflush_r+0x14c>)
10005616:	2201      	movs	r2, #1
10005618:	40cb      	lsrs	r3, r1
1000561a:	439a      	bics	r2, r3
1000561c:	d1ef      	bne.n	100055fe <__sflush_r+0xca>
1000561e:	89a3      	ldrh	r3, [r4, #12]
10005620:	4e16      	ldr	r6, [pc, #88]	; (1000567c <__sflush_r+0x148>)
10005622:	6062      	str	r2, [r4, #4]
10005624:	4033      	ands	r3, r6
10005626:	6922      	ldr	r2, [r4, #16]
10005628:	b21b      	sxth	r3, r3
1000562a:	81a3      	strh	r3, [r4, #12]
1000562c:	6022      	str	r2, [r4, #0]
1000562e:	04db      	lsls	r3, r3, #19
10005630:	d5b9      	bpl.n	100055a6 <__sflush_r+0x72>
10005632:	2900      	cmp	r1, #0
10005634:	d1b7      	bne.n	100055a6 <__sflush_r+0x72>
10005636:	6520      	str	r0, [r4, #80]	; 0x50
10005638:	e7b5      	b.n	100055a6 <__sflush_r+0x72>
1000563a:	6be2      	ldr	r2, [r4, #60]	; 0x3c
1000563c:	2a00      	cmp	r2, #0
1000563e:	dd00      	ble.n	10005642 <__sflush_r+0x10e>
10005640:	e78a      	b.n	10005558 <__sflush_r+0x24>
10005642:	e7be      	b.n	100055c2 <__sflush_r+0x8e>
10005644:	2200      	movs	r2, #0
10005646:	2301      	movs	r3, #1
10005648:	69e1      	ldr	r1, [r4, #28]
1000564a:	4640      	mov	r0, r8
1000564c:	47b0      	blx	r6
1000564e:	0002      	movs	r2, r0
10005650:	1c43      	adds	r3, r0, #1
10005652:	d002      	beq.n	1000565a <__sflush_r+0x126>
10005654:	89a3      	ldrh	r3, [r4, #12]
10005656:	6aa6      	ldr	r6, [r4, #40]	; 0x28
10005658:	e78b      	b.n	10005572 <__sflush_r+0x3e>
1000565a:	4643      	mov	r3, r8
1000565c:	681b      	ldr	r3, [r3, #0]
1000565e:	2b00      	cmp	r3, #0
10005660:	d0f8      	beq.n	10005654 <__sflush_r+0x120>
10005662:	2b1d      	cmp	r3, #29
10005664:	d001      	beq.n	1000566a <__sflush_r+0x136>
10005666:	2b16      	cmp	r3, #22
10005668:	d103      	bne.n	10005672 <__sflush_r+0x13e>
1000566a:	4643      	mov	r3, r8
1000566c:	2000      	movs	r0, #0
1000566e:	601d      	str	r5, [r3, #0]
10005670:	e7a8      	b.n	100055c4 <__sflush_r+0x90>
10005672:	2140      	movs	r1, #64	; 0x40
10005674:	89a3      	ldrh	r3, [r4, #12]
10005676:	430b      	orrs	r3, r1
10005678:	81a3      	strh	r3, [r4, #12]
1000567a:	e7a3      	b.n	100055c4 <__sflush_r+0x90>
1000567c:	fffff7ff 	.word	0xfffff7ff
10005680:	20400001 	.word	0x20400001

10005684 <_fflush_r>:
10005684:	b570      	push	{r4, r5, r6, lr}
10005686:	0004      	movs	r4, r0
10005688:	000d      	movs	r5, r1
1000568a:	2800      	cmp	r0, #0
1000568c:	d002      	beq.n	10005694 <_fflush_r+0x10>
1000568e:	6b83      	ldr	r3, [r0, #56]	; 0x38
10005690:	2b00      	cmp	r3, #0
10005692:	d009      	beq.n	100056a8 <_fflush_r+0x24>
10005694:	220c      	movs	r2, #12
10005696:	5eab      	ldrsh	r3, [r5, r2]
10005698:	2000      	movs	r0, #0
1000569a:	2b00      	cmp	r3, #0
1000569c:	d003      	beq.n	100056a6 <_fflush_r+0x22>
1000569e:	0029      	movs	r1, r5
100056a0:	0020      	movs	r0, r4
100056a2:	f7ff ff47 	bl	10005534 <__sflush_r>
100056a6:	bd70      	pop	{r4, r5, r6, pc}
100056a8:	f000 f904 	bl	100058b4 <__sinit>
100056ac:	e7f2      	b.n	10005694 <_fflush_r+0x10>
100056ae:	46c0      	nop			; (mov r8, r8)

100056b0 <fflush>:
100056b0:	b510      	push	{r4, lr}
100056b2:	1e01      	subs	r1, r0, #0
100056b4:	d004      	beq.n	100056c0 <fflush+0x10>
100056b6:	4b05      	ldr	r3, [pc, #20]	; (100056cc <fflush+0x1c>)
100056b8:	6818      	ldr	r0, [r3, #0]
100056ba:	f7ff ffe3 	bl	10005684 <_fflush_r>
100056be:	bd10      	pop	{r4, pc}
100056c0:	4b03      	ldr	r3, [pc, #12]	; (100056d0 <fflush+0x20>)
100056c2:	4904      	ldr	r1, [pc, #16]	; (100056d4 <fflush+0x24>)
100056c4:	6818      	ldr	r0, [r3, #0]
100056c6:	f000 fa6d 	bl	10005ba4 <_fwalk_reent>
100056ca:	e7f8      	b.n	100056be <fflush+0xe>
100056cc:	20000f00 	.word	0x20000f00
100056d0:	100062b8 	.word	0x100062b8
100056d4:	10005685 	.word	0x10005685

100056d8 <__fp_unlock>:
100056d8:	2000      	movs	r0, #0
100056da:	4770      	bx	lr

100056dc <_cleanup_r>:
100056dc:	b510      	push	{r4, lr}
100056de:	4902      	ldr	r1, [pc, #8]	; (100056e8 <_cleanup_r+0xc>)
100056e0:	f000 fa60 	bl	10005ba4 <_fwalk_reent>
100056e4:	bd10      	pop	{r4, pc}
100056e6:	46c0      	nop			; (mov r8, r8)
100056e8:	10005dc5 	.word	0x10005dc5

100056ec <__sinit.part.1>:
100056ec:	b5f8      	push	{r3, r4, r5, r6, r7, lr}
100056ee:	46de      	mov	lr, fp
100056f0:	4657      	mov	r7, sl
100056f2:	464e      	mov	r6, r9
100056f4:	4645      	mov	r5, r8
100056f6:	4b34      	ldr	r3, [pc, #208]	; (100057c8 <__sinit.part.1+0xdc>)
100056f8:	b5e0      	push	{r5, r6, r7, lr}
100056fa:	63c3      	str	r3, [r0, #60]	; 0x3c
100056fc:	23b8      	movs	r3, #184	; 0xb8
100056fe:	2400      	movs	r4, #0
10005700:	2203      	movs	r2, #3
10005702:	009b      	lsls	r3, r3, #2
10005704:	50c4      	str	r4, [r0, r3]
10005706:	3304      	adds	r3, #4
10005708:	6845      	ldr	r5, [r0, #4]
1000570a:	50c2      	str	r2, [r0, r3]
1000570c:	3308      	adds	r3, #8
1000570e:	18c2      	adds	r2, r0, r3
10005710:	3b04      	subs	r3, #4
10005712:	50c2      	str	r2, [r0, r3]
10005714:	0006      	movs	r6, r0
10005716:	2304      	movs	r3, #4
10005718:	0028      	movs	r0, r5
1000571a:	602c      	str	r4, [r5, #0]
1000571c:	606c      	str	r4, [r5, #4]
1000571e:	60ac      	str	r4, [r5, #8]
10005720:	81ab      	strh	r3, [r5, #12]
10005722:	666c      	str	r4, [r5, #100]	; 0x64
10005724:	81ec      	strh	r4, [r5, #14]
10005726:	612c      	str	r4, [r5, #16]
10005728:	616c      	str	r4, [r5, #20]
1000572a:	61ac      	str	r4, [r5, #24]
1000572c:	2208      	movs	r2, #8
1000572e:	2100      	movs	r1, #0
10005730:	305c      	adds	r0, #92	; 0x5c
10005732:	f7fc ff4f 	bl	100025d4 <__wrap_memset>
10005736:	4b25      	ldr	r3, [pc, #148]	; (100057cc <__sinit.part.1+0xe0>)
10005738:	4f25      	ldr	r7, [pc, #148]	; (100057d0 <__sinit.part.1+0xe4>)
1000573a:	469a      	mov	sl, r3
1000573c:	622b      	str	r3, [r5, #32]
1000573e:	4b25      	ldr	r3, [pc, #148]	; (100057d4 <__sinit.part.1+0xe8>)
10005740:	62ef      	str	r7, [r5, #44]	; 0x2c
10005742:	4699      	mov	r9, r3
10005744:	626b      	str	r3, [r5, #36]	; 0x24
10005746:	4b24      	ldr	r3, [pc, #144]	; (100057d8 <__sinit.part.1+0xec>)
10005748:	61ed      	str	r5, [r5, #28]
1000574a:	62ab      	str	r3, [r5, #40]	; 0x28
1000574c:	68b5      	ldr	r5, [r6, #8]
1000574e:	4698      	mov	r8, r3
10005750:	2309      	movs	r3, #9
10005752:	0028      	movs	r0, r5
10005754:	81ab      	strh	r3, [r5, #12]
10005756:	3b08      	subs	r3, #8
10005758:	602c      	str	r4, [r5, #0]
1000575a:	606c      	str	r4, [r5, #4]
1000575c:	60ac      	str	r4, [r5, #8]
1000575e:	666c      	str	r4, [r5, #100]	; 0x64
10005760:	81eb      	strh	r3, [r5, #14]
10005762:	612c      	str	r4, [r5, #16]
10005764:	616c      	str	r4, [r5, #20]
10005766:	61ac      	str	r4, [r5, #24]
10005768:	2208      	movs	r2, #8
1000576a:	2100      	movs	r1, #0
1000576c:	305c      	adds	r0, #92	; 0x5c
1000576e:	469b      	mov	fp, r3
10005770:	f7fc ff30 	bl	100025d4 <__wrap_memset>
10005774:	4653      	mov	r3, sl
10005776:	622b      	str	r3, [r5, #32]
10005778:	464b      	mov	r3, r9
1000577a:	626b      	str	r3, [r5, #36]	; 0x24
1000577c:	4643      	mov	r3, r8
1000577e:	62ef      	str	r7, [r5, #44]	; 0x2c
10005780:	62ab      	str	r3, [r5, #40]	; 0x28
10005782:	61ed      	str	r5, [r5, #28]
10005784:	68f5      	ldr	r5, [r6, #12]
10005786:	2312      	movs	r3, #18
10005788:	0028      	movs	r0, r5
1000578a:	81ab      	strh	r3, [r5, #12]
1000578c:	3b10      	subs	r3, #16
1000578e:	81eb      	strh	r3, [r5, #14]
10005790:	602c      	str	r4, [r5, #0]
10005792:	606c      	str	r4, [r5, #4]
10005794:	60ac      	str	r4, [r5, #8]
10005796:	666c      	str	r4, [r5, #100]	; 0x64
10005798:	612c      	str	r4, [r5, #16]
1000579a:	616c      	str	r4, [r5, #20]
1000579c:	61ac      	str	r4, [r5, #24]
1000579e:	2208      	movs	r2, #8
100057a0:	2100      	movs	r1, #0
100057a2:	305c      	adds	r0, #92	; 0x5c
100057a4:	f7fc ff16 	bl	100025d4 <__wrap_memset>
100057a8:	4653      	mov	r3, sl
100057aa:	622b      	str	r3, [r5, #32]
100057ac:	464b      	mov	r3, r9
100057ae:	626b      	str	r3, [r5, #36]	; 0x24
100057b0:	4643      	mov	r3, r8
100057b2:	62ab      	str	r3, [r5, #40]	; 0x28
100057b4:	465b      	mov	r3, fp
100057b6:	62ef      	str	r7, [r5, #44]	; 0x2c
100057b8:	61ed      	str	r5, [r5, #28]
100057ba:	63b3      	str	r3, [r6, #56]	; 0x38
100057bc:	bc3c      	pop	{r2, r3, r4, r5}
100057be:	4690      	mov	r8, r2
100057c0:	4699      	mov	r9, r3
100057c2:	46a2      	mov	sl, r4
100057c4:	46ab      	mov	fp, r5
100057c6:	bdf8      	pop	{r3, r4, r5, r6, r7, pc}
100057c8:	100056dd 	.word	0x100056dd
100057cc:	10005cd9 	.word	0x10005cd9
100057d0:	10005d6d 	.word	0x10005d6d
100057d4:	10005d05 	.word	0x10005d05
100057d8:	10005d41 	.word	0x10005d41

100057dc <__fp_lock>:
100057dc:	2000      	movs	r0, #0
100057de:	4770      	bx	lr

100057e0 <__sfmoreglue>:
100057e0:	b570      	push	{r4, r5, r6, lr}
100057e2:	2468      	movs	r4, #104	; 0x68
100057e4:	1e4a      	subs	r2, r1, #1
100057e6:	4354      	muls	r4, r2
100057e8:	000e      	movs	r6, r1
100057ea:	0021      	movs	r1, r4
100057ec:	3174      	adds	r1, #116	; 0x74
100057ee:	f7ff fad9 	bl	10004da4 <_malloc_r>
100057f2:	1e05      	subs	r5, r0, #0
100057f4:	d009      	beq.n	1000580a <__sfmoreglue+0x2a>
100057f6:	2300      	movs	r3, #0
100057f8:	0022      	movs	r2, r4
100057fa:	6003      	str	r3, [r0, #0]
100057fc:	6046      	str	r6, [r0, #4]
100057fe:	300c      	adds	r0, #12
10005800:	60a8      	str	r0, [r5, #8]
10005802:	3268      	adds	r2, #104	; 0x68
10005804:	2100      	movs	r1, #0
10005806:	f7fc fee5 	bl	100025d4 <__wrap_memset>
1000580a:	0028      	movs	r0, r5
1000580c:	bd70      	pop	{r4, r5, r6, pc}
1000580e:	46c0      	nop			; (mov r8, r8)

10005810 <__sfp>:
10005810:	4b21      	ldr	r3, [pc, #132]	; (10005898 <__sfp+0x88>)
10005812:	b570      	push	{r4, r5, r6, lr}
10005814:	681d      	ldr	r5, [r3, #0]
10005816:	0006      	movs	r6, r0
10005818:	6bab      	ldr	r3, [r5, #56]	; 0x38
1000581a:	2b00      	cmp	r3, #0
1000581c:	d02d      	beq.n	1000587a <__sfp+0x6a>
1000581e:	23b8      	movs	r3, #184	; 0xb8
10005820:	009b      	lsls	r3, r3, #2
10005822:	469c      	mov	ip, r3
10005824:	4465      	add	r5, ip
10005826:	686b      	ldr	r3, [r5, #4]
10005828:	68ac      	ldr	r4, [r5, #8]
1000582a:	3b01      	subs	r3, #1
1000582c:	d503      	bpl.n	10005836 <__sfp+0x26>
1000582e:	e01f      	b.n	10005870 <__sfp+0x60>
10005830:	3468      	adds	r4, #104	; 0x68
10005832:	3b01      	subs	r3, #1
10005834:	d31c      	bcc.n	10005870 <__sfp+0x60>
10005836:	210c      	movs	r1, #12
10005838:	5e62      	ldrsh	r2, [r4, r1]
1000583a:	2a00      	cmp	r2, #0
1000583c:	d1f8      	bne.n	10005830 <__sfp+0x20>
1000583e:	2301      	movs	r3, #1
10005840:	2500      	movs	r5, #0
10005842:	0020      	movs	r0, r4
10005844:	425b      	negs	r3, r3
10005846:	81e3      	strh	r3, [r4, #14]
10005848:	3302      	adds	r3, #2
1000584a:	81a3      	strh	r3, [r4, #12]
1000584c:	6665      	str	r5, [r4, #100]	; 0x64
1000584e:	6025      	str	r5, [r4, #0]
10005850:	60a5      	str	r5, [r4, #8]
10005852:	6065      	str	r5, [r4, #4]
10005854:	6125      	str	r5, [r4, #16]
10005856:	6165      	str	r5, [r4, #20]
10005858:	61a5      	str	r5, [r4, #24]
1000585a:	2208      	movs	r2, #8
1000585c:	2100      	movs	r1, #0
1000585e:	305c      	adds	r0, #92	; 0x5c
10005860:	f7fc feb8 	bl	100025d4 <__wrap_memset>
10005864:	6325      	str	r5, [r4, #48]	; 0x30
10005866:	6365      	str	r5, [r4, #52]	; 0x34
10005868:	6465      	str	r5, [r4, #68]	; 0x44
1000586a:	64a5      	str	r5, [r4, #72]	; 0x48
1000586c:	0020      	movs	r0, r4
1000586e:	bd70      	pop	{r4, r5, r6, pc}
10005870:	6828      	ldr	r0, [r5, #0]
10005872:	2800      	cmp	r0, #0
10005874:	d005      	beq.n	10005882 <__sfp+0x72>
10005876:	0005      	movs	r5, r0
10005878:	e7d5      	b.n	10005826 <__sfp+0x16>
1000587a:	0028      	movs	r0, r5
1000587c:	f7ff ff36 	bl	100056ec <__sinit.part.1>
10005880:	e7cd      	b.n	1000581e <__sfp+0xe>
10005882:	2104      	movs	r1, #4
10005884:	0030      	movs	r0, r6
10005886:	f7ff ffab 	bl	100057e0 <__sfmoreglue>
1000588a:	6028      	str	r0, [r5, #0]
1000588c:	2800      	cmp	r0, #0
1000588e:	d1f2      	bne.n	10005876 <__sfp+0x66>
10005890:	230c      	movs	r3, #12
10005892:	2400      	movs	r4, #0
10005894:	6033      	str	r3, [r6, #0]
10005896:	e7e9      	b.n	1000586c <__sfp+0x5c>
10005898:	100062b8 	.word	0x100062b8

1000589c <_cleanup>:
1000589c:	b510      	push	{r4, lr}
1000589e:	4b03      	ldr	r3, [pc, #12]	; (100058ac <_cleanup+0x10>)
100058a0:	4903      	ldr	r1, [pc, #12]	; (100058b0 <_cleanup+0x14>)
100058a2:	6818      	ldr	r0, [r3, #0]
100058a4:	f000 f97e 	bl	10005ba4 <_fwalk_reent>
100058a8:	bd10      	pop	{r4, pc}
100058aa:	46c0      	nop			; (mov r8, r8)
100058ac:	100062b8 	.word	0x100062b8
100058b0:	10005dc5 	.word	0x10005dc5

100058b4 <__sinit>:
100058b4:	6b83      	ldr	r3, [r0, #56]	; 0x38
100058b6:	b510      	push	{r4, lr}
100058b8:	2b00      	cmp	r3, #0
100058ba:	d101      	bne.n	100058c0 <__sinit+0xc>
100058bc:	f7ff ff16 	bl	100056ec <__sinit.part.1>
100058c0:	bd10      	pop	{r4, pc}
100058c2:	46c0      	nop			; (mov r8, r8)

100058c4 <__sfp_lock_acquire>:
100058c4:	4770      	bx	lr
100058c6:	46c0      	nop			; (mov r8, r8)

100058c8 <__sfp_lock_release>:
100058c8:	4770      	bx	lr
100058ca:	46c0      	nop			; (mov r8, r8)

100058cc <__sinit_lock_acquire>:
100058cc:	4770      	bx	lr
100058ce:	46c0      	nop			; (mov r8, r8)

100058d0 <__sinit_lock_release>:
100058d0:	4770      	bx	lr
100058d2:	46c0      	nop			; (mov r8, r8)

100058d4 <__fp_lock_all>:
100058d4:	b510      	push	{r4, lr}
100058d6:	4b03      	ldr	r3, [pc, #12]	; (100058e4 <__fp_lock_all+0x10>)
100058d8:	4903      	ldr	r1, [pc, #12]	; (100058e8 <__fp_lock_all+0x14>)
100058da:	6818      	ldr	r0, [r3, #0]
100058dc:	f000 f940 	bl	10005b60 <_fwalk>
100058e0:	bd10      	pop	{r4, pc}
100058e2:	46c0      	nop			; (mov r8, r8)
100058e4:	20000f00 	.word	0x20000f00
100058e8:	100057dd 	.word	0x100057dd

100058ec <__fp_unlock_all>:
100058ec:	b510      	push	{r4, lr}
100058ee:	4b03      	ldr	r3, [pc, #12]	; (100058fc <__fp_unlock_all+0x10>)
100058f0:	4903      	ldr	r1, [pc, #12]	; (10005900 <__fp_unlock_all+0x14>)
100058f2:	6818      	ldr	r0, [r3, #0]
100058f4:	f000 f934 	bl	10005b60 <_fwalk>
100058f8:	bd10      	pop	{r4, pc}
100058fa:	46c0      	nop			; (mov r8, r8)
100058fc:	20000f00 	.word	0x20000f00
10005900:	100056d9 	.word	0x100056d9

10005904 <_malloc_trim_r>:
10005904:	b5f8      	push	{r3, r4, r5, r6, r7, lr}
10005906:	000c      	movs	r4, r1
10005908:	0006      	movs	r6, r0
1000590a:	f7ff fcf7 	bl	100052fc <__malloc_lock>
1000590e:	4f20      	ldr	r7, [pc, #128]	; (10005990 <_malloc_trim_r+0x8c>)
10005910:	68bb      	ldr	r3, [r7, #8]
10005912:	685d      	ldr	r5, [r3, #4]
10005914:	2303      	movs	r3, #3
10005916:	439d      	bics	r5, r3
10005918:	4b1e      	ldr	r3, [pc, #120]	; (10005994 <_malloc_trim_r+0x90>)
1000591a:	1b2c      	subs	r4, r5, r4
1000591c:	469c      	mov	ip, r3
1000591e:	4464      	add	r4, ip
10005920:	0b24      	lsrs	r4, r4, #12
10005922:	4b1d      	ldr	r3, [pc, #116]	; (10005998 <_malloc_trim_r+0x94>)
10005924:	3c01      	subs	r4, #1
10005926:	0324      	lsls	r4, r4, #12
10005928:	429c      	cmp	r4, r3
1000592a:	dd07      	ble.n	1000593c <_malloc_trim_r+0x38>
1000592c:	2100      	movs	r1, #0
1000592e:	0030      	movs	r0, r6
10005930:	f7ff fce8 	bl	10005304 <_sbrk_r>
10005934:	68bb      	ldr	r3, [r7, #8]
10005936:	195b      	adds	r3, r3, r5
10005938:	4298      	cmp	r0, r3
1000593a:	d004      	beq.n	10005946 <_malloc_trim_r+0x42>
1000593c:	0030      	movs	r0, r6
1000593e:	f7ff fcdf 	bl	10005300 <__malloc_unlock>
10005942:	2000      	movs	r0, #0
10005944:	bdf8      	pop	{r3, r4, r5, r6, r7, pc}
10005946:	4261      	negs	r1, r4
10005948:	0030      	movs	r0, r6
1000594a:	f7ff fcdb 	bl	10005304 <_sbrk_r>
1000594e:	1c43      	adds	r3, r0, #1
10005950:	d00d      	beq.n	1000596e <_malloc_trim_r+0x6a>
10005952:	2201      	movs	r2, #1
10005954:	68bb      	ldr	r3, [r7, #8]
10005956:	1b2d      	subs	r5, r5, r4
10005958:	4315      	orrs	r5, r2
1000595a:	605d      	str	r5, [r3, #4]
1000595c:	4b0f      	ldr	r3, [pc, #60]	; (1000599c <_malloc_trim_r+0x98>)
1000595e:	0030      	movs	r0, r6
10005960:	681a      	ldr	r2, [r3, #0]
10005962:	1b14      	subs	r4, r2, r4
10005964:	601c      	str	r4, [r3, #0]
10005966:	f7ff fccb 	bl	10005300 <__malloc_unlock>
1000596a:	2001      	movs	r0, #1
1000596c:	e7ea      	b.n	10005944 <_malloc_trim_r+0x40>
1000596e:	2100      	movs	r1, #0
10005970:	0030      	movs	r0, r6
10005972:	f7ff fcc7 	bl	10005304 <_sbrk_r>
10005976:	68ba      	ldr	r2, [r7, #8]
10005978:	1a83      	subs	r3, r0, r2
1000597a:	2b0f      	cmp	r3, #15
1000597c:	ddde      	ble.n	1000593c <_malloc_trim_r+0x38>
1000597e:	4908      	ldr	r1, [pc, #32]	; (100059a0 <_malloc_trim_r+0x9c>)
10005980:	6809      	ldr	r1, [r1, #0]
10005982:	1a40      	subs	r0, r0, r1
10005984:	4905      	ldr	r1, [pc, #20]	; (1000599c <_malloc_trim_r+0x98>)
10005986:	6008      	str	r0, [r1, #0]
10005988:	2101      	movs	r1, #1
1000598a:	430b      	orrs	r3, r1
1000598c:	6053      	str	r3, [r2, #4]
1000598e:	e7d5      	b.n	1000593c <_malloc_trim_r+0x38>
10005990:	20001330 	.word	0x20001330
10005994:	00000fef 	.word	0x00000fef
10005998:	00000fff 	.word	0x00000fff
1000599c:	20001888 	.word	0x20001888
100059a0:	20001738 	.word	0x20001738

100059a4 <_free_r>:
100059a4:	b5f8      	push	{r3, r4, r5, r6, r7, lr}
100059a6:	0004      	movs	r4, r0
100059a8:	1e0d      	subs	r5, r1, #0
100059aa:	d03c      	beq.n	10005a26 <_free_r+0x82>
100059ac:	f7ff fca6 	bl	100052fc <__malloc_lock>
100059b0:	0029      	movs	r1, r5
100059b2:	3908      	subs	r1, #8
100059b4:	6848      	ldr	r0, [r1, #4]
100059b6:	2301      	movs	r3, #1
100059b8:	0005      	movs	r5, r0
100059ba:	2603      	movs	r6, #3
100059bc:	439d      	bics	r5, r3
100059be:	194a      	adds	r2, r1, r5
100059c0:	469c      	mov	ip, r3
100059c2:	4f61      	ldr	r7, [pc, #388]	; (10005b48 <_free_r+0x1a4>)
100059c4:	6853      	ldr	r3, [r2, #4]
100059c6:	43b3      	bics	r3, r6
100059c8:	68be      	ldr	r6, [r7, #8]
100059ca:	42b2      	cmp	r2, r6
100059cc:	d056      	beq.n	10005a7c <_free_r+0xd8>
100059ce:	4666      	mov	r6, ip
100059d0:	6053      	str	r3, [r2, #4]
100059d2:	4206      	tst	r6, r0
100059d4:	d10a      	bne.n	100059ec <_free_r+0x48>
100059d6:	003e      	movs	r6, r7
100059d8:	6808      	ldr	r0, [r1, #0]
100059da:	3608      	adds	r6, #8
100059dc:	1a09      	subs	r1, r1, r0
100059de:	182d      	adds	r5, r5, r0
100059e0:	6888      	ldr	r0, [r1, #8]
100059e2:	42b0      	cmp	r0, r6
100059e4:	d065      	beq.n	10005ab2 <_free_r+0x10e>
100059e6:	68ce      	ldr	r6, [r1, #12]
100059e8:	60c6      	str	r6, [r0, #12]
100059ea:	60b0      	str	r0, [r6, #8]
100059ec:	2001      	movs	r0, #1
100059ee:	18d6      	adds	r6, r2, r3
100059f0:	6876      	ldr	r6, [r6, #4]
100059f2:	4206      	tst	r6, r0
100059f4:	d033      	beq.n	10005a5e <_free_r+0xba>
100059f6:	4b55      	ldr	r3, [pc, #340]	; (10005b4c <_free_r+0x1a8>)
100059f8:	4328      	orrs	r0, r5
100059fa:	6048      	str	r0, [r1, #4]
100059fc:	514d      	str	r5, [r1, r5]
100059fe:	429d      	cmp	r5, r3
10005a00:	d812      	bhi.n	10005a28 <_free_r+0x84>
10005a02:	08ed      	lsrs	r5, r5, #3
10005a04:	3bff      	subs	r3, #255	; 0xff
10005a06:	10aa      	asrs	r2, r5, #2
10005a08:	3bff      	subs	r3, #255	; 0xff
10005a0a:	4093      	lsls	r3, r2
10005a0c:	687a      	ldr	r2, [r7, #4]
10005a0e:	00ed      	lsls	r5, r5, #3
10005a10:	4313      	orrs	r3, r2
10005a12:	607b      	str	r3, [r7, #4]
10005a14:	19ef      	adds	r7, r5, r7
10005a16:	68bb      	ldr	r3, [r7, #8]
10005a18:	60cf      	str	r7, [r1, #12]
10005a1a:	608b      	str	r3, [r1, #8]
10005a1c:	60b9      	str	r1, [r7, #8]
10005a1e:	60d9      	str	r1, [r3, #12]
10005a20:	0020      	movs	r0, r4
10005a22:	f7ff fc6d 	bl	10005300 <__malloc_unlock>
10005a26:	bdf8      	pop	{r3, r4, r5, r6, r7, pc}
10005a28:	0a68      	lsrs	r0, r5, #9
10005a2a:	2804      	cmp	r0, #4
10005a2c:	d850      	bhi.n	10005ad0 <_free_r+0x12c>
10005a2e:	09a8      	lsrs	r0, r5, #6
10005a30:	0002      	movs	r2, r0
10005a32:	3039      	adds	r0, #57	; 0x39
10005a34:	3238      	adds	r2, #56	; 0x38
10005a36:	00c0      	lsls	r0, r0, #3
10005a38:	1838      	adds	r0, r7, r0
10005a3a:	3808      	subs	r0, #8
10005a3c:	6883      	ldr	r3, [r0, #8]
10005a3e:	2603      	movs	r6, #3
10005a40:	4298      	cmp	r0, r3
10005a42:	d04c      	beq.n	10005ade <_free_r+0x13a>
10005a44:	685a      	ldr	r2, [r3, #4]
10005a46:	43b2      	bics	r2, r6
10005a48:	4295      	cmp	r5, r2
10005a4a:	d230      	bcs.n	10005aae <_free_r+0x10a>
10005a4c:	689b      	ldr	r3, [r3, #8]
10005a4e:	4298      	cmp	r0, r3
10005a50:	d1f8      	bne.n	10005a44 <_free_r+0xa0>
10005a52:	68c3      	ldr	r3, [r0, #12]
10005a54:	60cb      	str	r3, [r1, #12]
10005a56:	6088      	str	r0, [r1, #8]
10005a58:	6099      	str	r1, [r3, #8]
10005a5a:	60c1      	str	r1, [r0, #12]
10005a5c:	e7e0      	b.n	10005a20 <_free_r+0x7c>
10005a5e:	18ed      	adds	r5, r5, r3
10005a60:	4e3b      	ldr	r6, [pc, #236]	; (10005b50 <_free_r+0x1ac>)
10005a62:	6893      	ldr	r3, [r2, #8]
10005a64:	42b3      	cmp	r3, r6
10005a66:	d042      	beq.n	10005aee <_free_r+0x14a>
10005a68:	68d2      	ldr	r2, [r2, #12]
10005a6a:	4328      	orrs	r0, r5
10005a6c:	60da      	str	r2, [r3, #12]
10005a6e:	6093      	str	r3, [r2, #8]
10005a70:	4b36      	ldr	r3, [pc, #216]	; (10005b4c <_free_r+0x1a8>)
10005a72:	6048      	str	r0, [r1, #4]
10005a74:	514d      	str	r5, [r1, r5]
10005a76:	429d      	cmp	r5, r3
10005a78:	d8d6      	bhi.n	10005a28 <_free_r+0x84>
10005a7a:	e7c2      	b.n	10005a02 <_free_r+0x5e>
10005a7c:	4662      	mov	r2, ip
10005a7e:	18eb      	adds	r3, r5, r3
10005a80:	4202      	tst	r2, r0
10005a82:	d106      	bne.n	10005a92 <_free_r+0xee>
10005a84:	680a      	ldr	r2, [r1, #0]
10005a86:	1a89      	subs	r1, r1, r2
10005a88:	6888      	ldr	r0, [r1, #8]
10005a8a:	189b      	adds	r3, r3, r2
10005a8c:	68ca      	ldr	r2, [r1, #12]
10005a8e:	60c2      	str	r2, [r0, #12]
10005a90:	6090      	str	r0, [r2, #8]
10005a92:	2201      	movs	r2, #1
10005a94:	431a      	orrs	r2, r3
10005a96:	604a      	str	r2, [r1, #4]
10005a98:	4a2e      	ldr	r2, [pc, #184]	; (10005b54 <_free_r+0x1b0>)
10005a9a:	60b9      	str	r1, [r7, #8]
10005a9c:	6812      	ldr	r2, [r2, #0]
10005a9e:	4293      	cmp	r3, r2
10005aa0:	d3be      	bcc.n	10005a20 <_free_r+0x7c>
10005aa2:	4b2d      	ldr	r3, [pc, #180]	; (10005b58 <_free_r+0x1b4>)
10005aa4:	0020      	movs	r0, r4
10005aa6:	6819      	ldr	r1, [r3, #0]
10005aa8:	f7ff ff2c 	bl	10005904 <_malloc_trim_r>
10005aac:	e7b8      	b.n	10005a20 <_free_r+0x7c>
10005aae:	0018      	movs	r0, r3
10005ab0:	e7cf      	b.n	10005a52 <_free_r+0xae>
10005ab2:	4666      	mov	r6, ip
10005ab4:	18d0      	adds	r0, r2, r3
10005ab6:	6840      	ldr	r0, [r0, #4]
10005ab8:	4230      	tst	r0, r6
10005aba:	d13f      	bne.n	10005b3c <_free_r+0x198>
10005abc:	6890      	ldr	r0, [r2, #8]
10005abe:	195d      	adds	r5, r3, r5
10005ac0:	68d3      	ldr	r3, [r2, #12]
10005ac2:	60c3      	str	r3, [r0, #12]
10005ac4:	6098      	str	r0, [r3, #8]
10005ac6:	4663      	mov	r3, ip
10005ac8:	432b      	orrs	r3, r5
10005aca:	604b      	str	r3, [r1, #4]
10005acc:	514d      	str	r5, [r1, r5]
10005ace:	e7a7      	b.n	10005a20 <_free_r+0x7c>
10005ad0:	2814      	cmp	r0, #20
10005ad2:	d814      	bhi.n	10005afe <_free_r+0x15a>
10005ad4:	0002      	movs	r2, r0
10005ad6:	305c      	adds	r0, #92	; 0x5c
10005ad8:	325b      	adds	r2, #91	; 0x5b
10005ada:	00c0      	lsls	r0, r0, #3
10005adc:	e7ac      	b.n	10005a38 <_free_r+0x94>
10005ade:	2301      	movs	r3, #1
10005ae0:	1092      	asrs	r2, r2, #2
10005ae2:	4093      	lsls	r3, r2
10005ae4:	687a      	ldr	r2, [r7, #4]
10005ae6:	4313      	orrs	r3, r2
10005ae8:	607b      	str	r3, [r7, #4]
10005aea:	0003      	movs	r3, r0
10005aec:	e7b2      	b.n	10005a54 <_free_r+0xb0>
10005aee:	4328      	orrs	r0, r5
10005af0:	60d9      	str	r1, [r3, #12]
10005af2:	6099      	str	r1, [r3, #8]
10005af4:	60cb      	str	r3, [r1, #12]
10005af6:	608b      	str	r3, [r1, #8]
10005af8:	6048      	str	r0, [r1, #4]
10005afa:	514d      	str	r5, [r1, r5]
10005afc:	e790      	b.n	10005a20 <_free_r+0x7c>
10005afe:	2854      	cmp	r0, #84	; 0x54
10005b00:	d805      	bhi.n	10005b0e <_free_r+0x16a>
10005b02:	0b28      	lsrs	r0, r5, #12
10005b04:	0002      	movs	r2, r0
10005b06:	306f      	adds	r0, #111	; 0x6f
10005b08:	326e      	adds	r2, #110	; 0x6e
10005b0a:	00c0      	lsls	r0, r0, #3
10005b0c:	e794      	b.n	10005a38 <_free_r+0x94>
10005b0e:	22aa      	movs	r2, #170	; 0xaa
10005b10:	0052      	lsls	r2, r2, #1
10005b12:	4290      	cmp	r0, r2
10005b14:	d805      	bhi.n	10005b22 <_free_r+0x17e>
10005b16:	0be8      	lsrs	r0, r5, #15
10005b18:	0002      	movs	r2, r0
10005b1a:	3078      	adds	r0, #120	; 0x78
10005b1c:	3277      	adds	r2, #119	; 0x77
10005b1e:	00c0      	lsls	r0, r0, #3
10005b20:	e78a      	b.n	10005a38 <_free_r+0x94>
10005b22:	4a0e      	ldr	r2, [pc, #56]	; (10005b5c <_free_r+0x1b8>)
10005b24:	4290      	cmp	r0, r2
10005b26:	d805      	bhi.n	10005b34 <_free_r+0x190>
10005b28:	0ca8      	lsrs	r0, r5, #18
10005b2a:	0002      	movs	r2, r0
10005b2c:	307d      	adds	r0, #125	; 0x7d
10005b2e:	327c      	adds	r2, #124	; 0x7c
10005b30:	00c0      	lsls	r0, r0, #3
10005b32:	e781      	b.n	10005a38 <_free_r+0x94>
10005b34:	20fe      	movs	r0, #254	; 0xfe
10005b36:	227e      	movs	r2, #126	; 0x7e
10005b38:	0080      	lsls	r0, r0, #2
10005b3a:	e77d      	b.n	10005a38 <_free_r+0x94>
10005b3c:	4663      	mov	r3, ip
10005b3e:	432b      	orrs	r3, r5
10005b40:	604b      	str	r3, [r1, #4]
10005b42:	6015      	str	r5, [r2, #0]
10005b44:	e76c      	b.n	10005a20 <_free_r+0x7c>
10005b46:	46c0      	nop			; (mov r8, r8)
10005b48:	20001330 	.word	0x20001330
10005b4c:	000001ff 	.word	0x000001ff
10005b50:	20001338 	.word	0x20001338
10005b54:	2000173c 	.word	0x2000173c
10005b58:	20001884 	.word	0x20001884
10005b5c:	00000554 	.word	0x00000554

10005b60 <_fwalk>:
10005b60:	23b8      	movs	r3, #184	; 0xb8
10005b62:	b5f0      	push	{r4, r5, r6, r7, lr}
10005b64:	46c6      	mov	lr, r8
10005b66:	009b      	lsls	r3, r3, #2
10005b68:	18c7      	adds	r7, r0, r3
10005b6a:	b500      	push	{lr}
10005b6c:	4688      	mov	r8, r1
10005b6e:	2600      	movs	r6, #0
10005b70:	2f00      	cmp	r7, #0
10005b72:	d013      	beq.n	10005b9c <_fwalk+0x3c>
10005b74:	687b      	ldr	r3, [r7, #4]
10005b76:	68bc      	ldr	r4, [r7, #8]
10005b78:	1e5d      	subs	r5, r3, #1
10005b7a:	d40c      	bmi.n	10005b96 <_fwalk+0x36>
10005b7c:	89a3      	ldrh	r3, [r4, #12]
10005b7e:	2b01      	cmp	r3, #1
10005b80:	d906      	bls.n	10005b90 <_fwalk+0x30>
10005b82:	220e      	movs	r2, #14
10005b84:	5ea3      	ldrsh	r3, [r4, r2]
10005b86:	3301      	adds	r3, #1
10005b88:	d002      	beq.n	10005b90 <_fwalk+0x30>
10005b8a:	0020      	movs	r0, r4
10005b8c:	47c0      	blx	r8
10005b8e:	4306      	orrs	r6, r0
10005b90:	3468      	adds	r4, #104	; 0x68
10005b92:	3d01      	subs	r5, #1
10005b94:	d2f2      	bcs.n	10005b7c <_fwalk+0x1c>
10005b96:	683f      	ldr	r7, [r7, #0]
10005b98:	2f00      	cmp	r7, #0
10005b9a:	d1eb      	bne.n	10005b74 <_fwalk+0x14>
10005b9c:	0030      	movs	r0, r6
10005b9e:	bc04      	pop	{r2}
10005ba0:	4690      	mov	r8, r2
10005ba2:	bdf0      	pop	{r4, r5, r6, r7, pc}

10005ba4 <_fwalk_reent>:
10005ba4:	b5f8      	push	{r3, r4, r5, r6, r7, lr}
10005ba6:	4647      	mov	r7, r8
10005ba8:	46ce      	mov	lr, r9
10005baa:	b580      	push	{r7, lr}
10005bac:	27b8      	movs	r7, #184	; 0xb8
10005bae:	4680      	mov	r8, r0
10005bb0:	00bf      	lsls	r7, r7, #2
10005bb2:	4447      	add	r7, r8
10005bb4:	4689      	mov	r9, r1
10005bb6:	2600      	movs	r6, #0
10005bb8:	2f00      	cmp	r7, #0
10005bba:	d014      	beq.n	10005be6 <_fwalk_reent+0x42>
10005bbc:	687b      	ldr	r3, [r7, #4]
10005bbe:	68bc      	ldr	r4, [r7, #8]
10005bc0:	1e5d      	subs	r5, r3, #1
10005bc2:	d40d      	bmi.n	10005be0 <_fwalk_reent+0x3c>
10005bc4:	89a3      	ldrh	r3, [r4, #12]
10005bc6:	2b01      	cmp	r3, #1
10005bc8:	d907      	bls.n	10005bda <_fwalk_reent+0x36>
10005bca:	220e      	movs	r2, #14
10005bcc:	5ea3      	ldrsh	r3, [r4, r2]
10005bce:	3301      	adds	r3, #1
10005bd0:	d003      	beq.n	10005bda <_fwalk_reent+0x36>
10005bd2:	0021      	movs	r1, r4
10005bd4:	4640      	mov	r0, r8
10005bd6:	47c8      	blx	r9
10005bd8:	4306      	orrs	r6, r0
10005bda:	3468      	adds	r4, #104	; 0x68
10005bdc:	3d01      	subs	r5, #1
10005bde:	d2f1      	bcs.n	10005bc4 <_fwalk_reent+0x20>
10005be0:	683f      	ldr	r7, [r7, #0]
10005be2:	2f00      	cmp	r7, #0
10005be4:	d1ea      	bne.n	10005bbc <_fwalk_reent+0x18>
10005be6:	0030      	movs	r0, r6
10005be8:	bc0c      	pop	{r2, r3}
10005bea:	4690      	mov	r8, r2
10005bec:	4699      	mov	r9, r3
10005bee:	bdf8      	pop	{r3, r4, r5, r6, r7, pc}

10005bf0 <__swhatbuf_r>:
10005bf0:	b570      	push	{r4, r5, r6, lr}
10005bf2:	000c      	movs	r4, r1
10005bf4:	001e      	movs	r6, r3
10005bf6:	230e      	movs	r3, #14
10005bf8:	5ec9      	ldrsh	r1, [r1, r3]
10005bfa:	b090      	sub	sp, #64	; 0x40
10005bfc:	0015      	movs	r5, r2
10005bfe:	2900      	cmp	r1, #0
10005c00:	db15      	blt.n	10005c2e <__swhatbuf_r+0x3e>
10005c02:	aa01      	add	r2, sp, #4
10005c04:	f000 f92e 	bl	10005e64 <_fstat_r>
10005c08:	2800      	cmp	r0, #0
10005c0a:	db10      	blt.n	10005c2e <__swhatbuf_r+0x3e>
10005c0c:	22f0      	movs	r2, #240	; 0xf0
10005c0e:	9b02      	ldr	r3, [sp, #8]
10005c10:	0212      	lsls	r2, r2, #8
10005c12:	4013      	ands	r3, r2
10005c14:	4a0d      	ldr	r2, [pc, #52]	; (10005c4c <__swhatbuf_r+0x5c>)
10005c16:	2080      	movs	r0, #128	; 0x80
10005c18:	4694      	mov	ip, r2
10005c1a:	4463      	add	r3, ip
10005c1c:	425a      	negs	r2, r3
10005c1e:	4153      	adcs	r3, r2
10005c20:	6033      	str	r3, [r6, #0]
10005c22:	2380      	movs	r3, #128	; 0x80
10005c24:	00db      	lsls	r3, r3, #3
10005c26:	602b      	str	r3, [r5, #0]
10005c28:	0100      	lsls	r0, r0, #4
10005c2a:	b010      	add	sp, #64	; 0x40
10005c2c:	bd70      	pop	{r4, r5, r6, pc}
10005c2e:	2300      	movs	r3, #0
10005c30:	6033      	str	r3, [r6, #0]
10005c32:	89a3      	ldrh	r3, [r4, #12]
10005c34:	061b      	lsls	r3, r3, #24
10005c36:	d503      	bpl.n	10005c40 <__swhatbuf_r+0x50>
10005c38:	2340      	movs	r3, #64	; 0x40
10005c3a:	2000      	movs	r0, #0
10005c3c:	602b      	str	r3, [r5, #0]
10005c3e:	e7f4      	b.n	10005c2a <__swhatbuf_r+0x3a>
10005c40:	2380      	movs	r3, #128	; 0x80
10005c42:	00db      	lsls	r3, r3, #3
10005c44:	602b      	str	r3, [r5, #0]
10005c46:	2000      	movs	r0, #0
10005c48:	e7ef      	b.n	10005c2a <__swhatbuf_r+0x3a>
10005c4a:	46c0      	nop			; (mov r8, r8)
10005c4c:	ffffe000 	.word	0xffffe000

10005c50 <__smakebuf_r>:
10005c50:	b570      	push	{r4, r5, r6, lr}
10005c52:	898b      	ldrh	r3, [r1, #12]
10005c54:	b082      	sub	sp, #8
10005c56:	0005      	movs	r5, r0
10005c58:	000c      	movs	r4, r1
10005c5a:	079b      	lsls	r3, r3, #30
10005c5c:	d507      	bpl.n	10005c6e <__smakebuf_r+0x1e>
10005c5e:	0023      	movs	r3, r4
10005c60:	3343      	adds	r3, #67	; 0x43
10005c62:	6023      	str	r3, [r4, #0]
10005c64:	6123      	str	r3, [r4, #16]
10005c66:	2301      	movs	r3, #1
10005c68:	6163      	str	r3, [r4, #20]
10005c6a:	b002      	add	sp, #8
10005c6c:	bd70      	pop	{r4, r5, r6, pc}
10005c6e:	ab01      	add	r3, sp, #4
10005c70:	466a      	mov	r2, sp
10005c72:	f7ff ffbd 	bl	10005bf0 <__swhatbuf_r>
10005c76:	9900      	ldr	r1, [sp, #0]
10005c78:	0006      	movs	r6, r0
10005c7a:	0028      	movs	r0, r5
10005c7c:	f7ff f892 	bl	10004da4 <_malloc_r>
10005c80:	2800      	cmp	r0, #0
10005c82:	d01c      	beq.n	10005cbe <__smakebuf_r+0x6e>
10005c84:	2280      	movs	r2, #128	; 0x80
10005c86:	4b13      	ldr	r3, [pc, #76]	; (10005cd4 <__smakebuf_r+0x84>)
10005c88:	63eb      	str	r3, [r5, #60]	; 0x3c
10005c8a:	89a3      	ldrh	r3, [r4, #12]
10005c8c:	6020      	str	r0, [r4, #0]
10005c8e:	4313      	orrs	r3, r2
10005c90:	9a00      	ldr	r2, [sp, #0]
10005c92:	b21b      	sxth	r3, r3
10005c94:	6162      	str	r2, [r4, #20]
10005c96:	9a01      	ldr	r2, [sp, #4]
10005c98:	81a3      	strh	r3, [r4, #12]
10005c9a:	6120      	str	r0, [r4, #16]
10005c9c:	2a00      	cmp	r2, #0
10005c9e:	d102      	bne.n	10005ca6 <__smakebuf_r+0x56>
10005ca0:	4333      	orrs	r3, r6
10005ca2:	81a3      	strh	r3, [r4, #12]
10005ca4:	e7e1      	b.n	10005c6a <__smakebuf_r+0x1a>
10005ca6:	230e      	movs	r3, #14
10005ca8:	5ee1      	ldrsh	r1, [r4, r3]
10005caa:	0028      	movs	r0, r5
10005cac:	f000 f8ee 	bl	10005e8c <_isatty_r>
10005cb0:	2800      	cmp	r0, #0
10005cb2:	d00c      	beq.n	10005cce <__smakebuf_r+0x7e>
10005cb4:	2201      	movs	r2, #1
10005cb6:	89a3      	ldrh	r3, [r4, #12]
10005cb8:	4313      	orrs	r3, r2
10005cba:	b21b      	sxth	r3, r3
10005cbc:	e7f0      	b.n	10005ca0 <__smakebuf_r+0x50>
10005cbe:	220c      	movs	r2, #12
10005cc0:	5ea3      	ldrsh	r3, [r4, r2]
10005cc2:	059a      	lsls	r2, r3, #22
10005cc4:	d4d1      	bmi.n	10005c6a <__smakebuf_r+0x1a>
10005cc6:	2202      	movs	r2, #2
10005cc8:	4313      	orrs	r3, r2
10005cca:	81a3      	strh	r3, [r4, #12]
10005ccc:	e7c7      	b.n	10005c5e <__smakebuf_r+0xe>
10005cce:	220c      	movs	r2, #12
10005cd0:	5ea3      	ldrsh	r3, [r4, r2]
10005cd2:	e7e5      	b.n	10005ca0 <__smakebuf_r+0x50>
10005cd4:	100056dd 	.word	0x100056dd

10005cd8 <__sread>:
10005cd8:	b570      	push	{r4, r5, r6, lr}
10005cda:	000c      	movs	r4, r1
10005cdc:	250e      	movs	r5, #14
10005cde:	5f49      	ldrsh	r1, [r1, r5]
10005ce0:	f000 f8fa 	bl	10005ed8 <_read_r>
10005ce4:	2800      	cmp	r0, #0
10005ce6:	db03      	blt.n	10005cf0 <__sread+0x18>
10005ce8:	6d23      	ldr	r3, [r4, #80]	; 0x50
10005cea:	181b      	adds	r3, r3, r0
10005cec:	6523      	str	r3, [r4, #80]	; 0x50
10005cee:	bd70      	pop	{r4, r5, r6, pc}
10005cf0:	89a3      	ldrh	r3, [r4, #12]
10005cf2:	4a02      	ldr	r2, [pc, #8]	; (10005cfc <__sread+0x24>)
10005cf4:	4013      	ands	r3, r2
10005cf6:	81a3      	strh	r3, [r4, #12]
10005cf8:	e7f9      	b.n	10005cee <__sread+0x16>
10005cfa:	46c0      	nop			; (mov r8, r8)
10005cfc:	ffffefff 	.word	0xffffefff

10005d00 <__seofread>:
10005d00:	2000      	movs	r0, #0
10005d02:	4770      	bx	lr

10005d04 <__swrite>:
10005d04:	b5f8      	push	{r3, r4, r5, r6, r7, lr}
10005d06:	0016      	movs	r6, r2
10005d08:	001f      	movs	r7, r3
10005d0a:	220c      	movs	r2, #12
10005d0c:	5e8b      	ldrsh	r3, [r1, r2]
10005d0e:	0005      	movs	r5, r0
10005d10:	000c      	movs	r4, r1
10005d12:	05da      	lsls	r2, r3, #23
10005d14:	d507      	bpl.n	10005d26 <__swrite+0x22>
10005d16:	230e      	movs	r3, #14
10005d18:	5ec9      	ldrsh	r1, [r1, r3]
10005d1a:	2200      	movs	r2, #0
10005d1c:	2302      	movs	r3, #2
10005d1e:	f000 f8c7 	bl	10005eb0 <_lseek_r>
10005d22:	220c      	movs	r2, #12
10005d24:	5ea3      	ldrsh	r3, [r4, r2]
10005d26:	4a05      	ldr	r2, [pc, #20]	; (10005d3c <__swrite+0x38>)
10005d28:	0028      	movs	r0, r5
10005d2a:	4013      	ands	r3, r2
10005d2c:	81a3      	strh	r3, [r4, #12]
10005d2e:	0032      	movs	r2, r6
10005d30:	230e      	movs	r3, #14
10005d32:	5ee1      	ldrsh	r1, [r4, r3]
10005d34:	003b      	movs	r3, r7
10005d36:	f000 f81f 	bl	10005d78 <_write_r>
10005d3a:	bdf8      	pop	{r3, r4, r5, r6, r7, pc}
10005d3c:	ffffefff 	.word	0xffffefff

10005d40 <__sseek>:
10005d40:	b570      	push	{r4, r5, r6, lr}
10005d42:	000c      	movs	r4, r1
10005d44:	250e      	movs	r5, #14
10005d46:	5f49      	ldrsh	r1, [r1, r5]
10005d48:	f000 f8b2 	bl	10005eb0 <_lseek_r>
10005d4c:	1c43      	adds	r3, r0, #1
10005d4e:	d006      	beq.n	10005d5e <__sseek+0x1e>
10005d50:	2380      	movs	r3, #128	; 0x80
10005d52:	89a2      	ldrh	r2, [r4, #12]
10005d54:	015b      	lsls	r3, r3, #5
10005d56:	4313      	orrs	r3, r2
10005d58:	81a3      	strh	r3, [r4, #12]
10005d5a:	6520      	str	r0, [r4, #80]	; 0x50
10005d5c:	bd70      	pop	{r4, r5, r6, pc}
10005d5e:	89a3      	ldrh	r3, [r4, #12]
10005d60:	4a01      	ldr	r2, [pc, #4]	; (10005d68 <__sseek+0x28>)
10005d62:	4013      	ands	r3, r2
10005d64:	81a3      	strh	r3, [r4, #12]
10005d66:	e7f9      	b.n	10005d5c <__sseek+0x1c>
10005d68:	ffffefff 	.word	0xffffefff

10005d6c <__sclose>:
10005d6c:	b510      	push	{r4, lr}
10005d6e:	230e      	movs	r3, #14
10005d70:	5ec9      	ldrsh	r1, [r1, r3]
10005d72:	f000 f815 	bl	10005da0 <_close_r>
10005d76:	bd10      	pop	{r4, pc}

10005d78 <_write_r>:
10005d78:	b570      	push	{r4, r5, r6, lr}
10005d7a:	0005      	movs	r5, r0
10005d7c:	0008      	movs	r0, r1
10005d7e:	0011      	movs	r1, r2
10005d80:	2200      	movs	r2, #0
10005d82:	4c06      	ldr	r4, [pc, #24]	; (10005d9c <_write_r+0x24>)
10005d84:	6022      	str	r2, [r4, #0]
10005d86:	001a      	movs	r2, r3
10005d88:	f7fc fd76 	bl	10002878 <_write>
10005d8c:	1c43      	adds	r3, r0, #1
10005d8e:	d000      	beq.n	10005d92 <_write_r+0x1a>
10005d90:	bd70      	pop	{r4, r5, r6, pc}
10005d92:	6823      	ldr	r3, [r4, #0]
10005d94:	2b00      	cmp	r3, #0
10005d96:	d0fb      	beq.n	10005d90 <_write_r+0x18>
10005d98:	602b      	str	r3, [r5, #0]
10005d9a:	e7f9      	b.n	10005d90 <_write_r+0x18>
10005d9c:	20002520 	.word	0x20002520

10005da0 <_close_r>:
10005da0:	2300      	movs	r3, #0
10005da2:	b570      	push	{r4, r5, r6, lr}
10005da4:	4c06      	ldr	r4, [pc, #24]	; (10005dc0 <_close_r+0x20>)
10005da6:	0005      	movs	r5, r0
10005da8:	0008      	movs	r0, r1
10005daa:	6023      	str	r3, [r4, #0]
10005dac:	f7fc fdba 	bl	10002924 <_close>
10005db0:	1c43      	adds	r3, r0, #1
10005db2:	d000      	beq.n	10005db6 <_close_r+0x16>
10005db4:	bd70      	pop	{r4, r5, r6, pc}
10005db6:	6823      	ldr	r3, [r4, #0]
10005db8:	2b00      	cmp	r3, #0
10005dba:	d0fb      	beq.n	10005db4 <_close_r+0x14>
10005dbc:	602b      	str	r3, [r5, #0]
10005dbe:	e7f9      	b.n	10005db4 <_close_r+0x14>
10005dc0:	20002520 	.word	0x20002520

10005dc4 <_fclose_r>:
10005dc4:	b570      	push	{r4, r5, r6, lr}
10005dc6:	0005      	movs	r5, r0
10005dc8:	1e0c      	subs	r4, r1, #0
10005dca:	d008      	beq.n	10005dde <_fclose_r+0x1a>
10005dcc:	2800      	cmp	r0, #0
10005dce:	d002      	beq.n	10005dd6 <_fclose_r+0x12>
10005dd0:	6b83      	ldr	r3, [r0, #56]	; 0x38
10005dd2:	2b00      	cmp	r3, #0
10005dd4:	d031      	beq.n	10005e3a <_fclose_r+0x76>
10005dd6:	220c      	movs	r2, #12
10005dd8:	5ea3      	ldrsh	r3, [r4, r2]
10005dda:	2b00      	cmp	r3, #0
10005ddc:	d102      	bne.n	10005de4 <_fclose_r+0x20>
10005dde:	2600      	movs	r6, #0
10005de0:	0030      	movs	r0, r6
10005de2:	bd70      	pop	{r4, r5, r6, pc}
10005de4:	0021      	movs	r1, r4
10005de6:	0028      	movs	r0, r5
10005de8:	f7ff fba4 	bl	10005534 <__sflush_r>
10005dec:	6ae3      	ldr	r3, [r4, #44]	; 0x2c
10005dee:	0006      	movs	r6, r0
10005df0:	2b00      	cmp	r3, #0
10005df2:	d004      	beq.n	10005dfe <_fclose_r+0x3a>
10005df4:	69e1      	ldr	r1, [r4, #28]
10005df6:	0028      	movs	r0, r5
10005df8:	4798      	blx	r3
10005dfa:	2800      	cmp	r0, #0
10005dfc:	db20      	blt.n	10005e40 <_fclose_r+0x7c>
10005dfe:	89a3      	ldrh	r3, [r4, #12]
10005e00:	061b      	lsls	r3, r3, #24
10005e02:	d420      	bmi.n	10005e46 <_fclose_r+0x82>
10005e04:	6b21      	ldr	r1, [r4, #48]	; 0x30
10005e06:	2900      	cmp	r1, #0
10005e08:	d008      	beq.n	10005e1c <_fclose_r+0x58>
10005e0a:	0023      	movs	r3, r4
10005e0c:	3340      	adds	r3, #64	; 0x40
10005e0e:	4299      	cmp	r1, r3
10005e10:	d002      	beq.n	10005e18 <_fclose_r+0x54>
10005e12:	0028      	movs	r0, r5
10005e14:	f7ff fdc6 	bl	100059a4 <_free_r>
10005e18:	2300      	movs	r3, #0
10005e1a:	6323      	str	r3, [r4, #48]	; 0x30
10005e1c:	6c61      	ldr	r1, [r4, #68]	; 0x44
10005e1e:	2900      	cmp	r1, #0
10005e20:	d004      	beq.n	10005e2c <_fclose_r+0x68>
10005e22:	0028      	movs	r0, r5
10005e24:	f7ff fdbe 	bl	100059a4 <_free_r>
10005e28:	2300      	movs	r3, #0
10005e2a:	6463      	str	r3, [r4, #68]	; 0x44
10005e2c:	f7ff fd4a 	bl	100058c4 <__sfp_lock_acquire>
10005e30:	2300      	movs	r3, #0
10005e32:	81a3      	strh	r3, [r4, #12]
10005e34:	f7ff fd48 	bl	100058c8 <__sfp_lock_release>
10005e38:	e7d2      	b.n	10005de0 <_fclose_r+0x1c>
10005e3a:	f7ff fd3b 	bl	100058b4 <__sinit>
10005e3e:	e7ca      	b.n	10005dd6 <_fclose_r+0x12>
10005e40:	2601      	movs	r6, #1
10005e42:	4276      	negs	r6, r6
10005e44:	e7db      	b.n	10005dfe <_fclose_r+0x3a>
10005e46:	6921      	ldr	r1, [r4, #16]
10005e48:	0028      	movs	r0, r5
10005e4a:	f7ff fdab 	bl	100059a4 <_free_r>
10005e4e:	e7d9      	b.n	10005e04 <_fclose_r+0x40>

10005e50 <fclose>:
10005e50:	b510      	push	{r4, lr}
10005e52:	4b03      	ldr	r3, [pc, #12]	; (10005e60 <fclose+0x10>)
10005e54:	0001      	movs	r1, r0
10005e56:	6818      	ldr	r0, [r3, #0]
10005e58:	f7ff ffb4 	bl	10005dc4 <_fclose_r>
10005e5c:	bd10      	pop	{r4, pc}
10005e5e:	46c0      	nop			; (mov r8, r8)
10005e60:	20000f00 	.word	0x20000f00

10005e64 <_fstat_r>:
10005e64:	2300      	movs	r3, #0
10005e66:	b570      	push	{r4, r5, r6, lr}
10005e68:	4c07      	ldr	r4, [pc, #28]	; (10005e88 <_fstat_r+0x24>)
10005e6a:	0005      	movs	r5, r0
10005e6c:	0008      	movs	r0, r1
10005e6e:	0011      	movs	r1, r2
10005e70:	6023      	str	r3, [r4, #0]
10005e72:	f7fc fd5f 	bl	10002934 <_fstat>
10005e76:	1c43      	adds	r3, r0, #1
10005e78:	d000      	beq.n	10005e7c <_fstat_r+0x18>
10005e7a:	bd70      	pop	{r4, r5, r6, pc}
10005e7c:	6823      	ldr	r3, [r4, #0]
10005e7e:	2b00      	cmp	r3, #0
10005e80:	d0fb      	beq.n	10005e7a <_fstat_r+0x16>
10005e82:	602b      	str	r3, [r5, #0]
10005e84:	e7f9      	b.n	10005e7a <_fstat_r+0x16>
10005e86:	46c0      	nop			; (mov r8, r8)
10005e88:	20002520 	.word	0x20002520

10005e8c <_isatty_r>:
10005e8c:	2300      	movs	r3, #0
10005e8e:	b570      	push	{r4, r5, r6, lr}
10005e90:	4c06      	ldr	r4, [pc, #24]	; (10005eac <_isatty_r+0x20>)
10005e92:	0005      	movs	r5, r0
10005e94:	0008      	movs	r0, r1
10005e96:	6023      	str	r3, [r4, #0]
10005e98:	f7fc fd50 	bl	1000293c <_isatty>
10005e9c:	1c43      	adds	r3, r0, #1
10005e9e:	d000      	beq.n	10005ea2 <_isatty_r+0x16>
10005ea0:	bd70      	pop	{r4, r5, r6, pc}
10005ea2:	6823      	ldr	r3, [r4, #0]
10005ea4:	2b00      	cmp	r3, #0
10005ea6:	d0fb      	beq.n	10005ea0 <_isatty_r+0x14>
10005ea8:	602b      	str	r3, [r5, #0]
10005eaa:	e7f9      	b.n	10005ea0 <_isatty_r+0x14>
10005eac:	20002520 	.word	0x20002520

10005eb0 <_lseek_r>:
10005eb0:	b570      	push	{r4, r5, r6, lr}
10005eb2:	0005      	movs	r5, r0
10005eb4:	0008      	movs	r0, r1
10005eb6:	0011      	movs	r1, r2
10005eb8:	2200      	movs	r2, #0
10005eba:	4c06      	ldr	r4, [pc, #24]	; (10005ed4 <_lseek_r+0x24>)
10005ebc:	6022      	str	r2, [r4, #0]
10005ebe:	001a      	movs	r2, r3
10005ec0:	f7fc fd34 	bl	1000292c <_lseek>
10005ec4:	1c43      	adds	r3, r0, #1
10005ec6:	d000      	beq.n	10005eca <_lseek_r+0x1a>
10005ec8:	bd70      	pop	{r4, r5, r6, pc}
10005eca:	6823      	ldr	r3, [r4, #0]
10005ecc:	2b00      	cmp	r3, #0
10005ece:	d0fb      	beq.n	10005ec8 <_lseek_r+0x18>
10005ed0:	602b      	str	r3, [r5, #0]
10005ed2:	e7f9      	b.n	10005ec8 <_lseek_r+0x18>
10005ed4:	20002520 	.word	0x20002520

10005ed8 <_read_r>:
10005ed8:	b570      	push	{r4, r5, r6, lr}
10005eda:	0005      	movs	r5, r0
10005edc:	0008      	movs	r0, r1
10005ede:	0011      	movs	r1, r2
10005ee0:	2200      	movs	r2, #0
10005ee2:	4c06      	ldr	r4, [pc, #24]	; (10005efc <_read_r+0x24>)
10005ee4:	6022      	str	r2, [r4, #0]
10005ee6:	001a      	movs	r2, r3
10005ee8:	f7fc fc7e 	bl	100027e8 <_read>
10005eec:	1c43      	adds	r3, r0, #1
10005eee:	d000      	beq.n	10005ef2 <_read_r+0x1a>
10005ef0:	bd70      	pop	{r4, r5, r6, pc}
10005ef2:	6823      	ldr	r3, [r4, #0]
10005ef4:	2b00      	cmp	r3, #0
10005ef6:	d0fb      	beq.n	10005ef0 <_read_r+0x18>
10005ef8:	602b      	str	r3, [r5, #0]
10005efa:	e7f9      	b.n	10005ef0 <_read_r+0x18>
10005efc:	20002520 	.word	0x20002520

10005f00 <_fini>:
10005f00:	b5f8      	push	{r3, r4, r5, r6, r7, lr}
10005f02:	46c0      	nop			; (mov r8, r8)
10005f04:	0000      	movs	r0, r0
	...

10005f08 <__flash_do_cmd_veneer>:
10005f08:	b401      	push	{r0}
10005f0a:	4802      	ldr	r0, [pc, #8]	; (10005f14 <__flash_do_cmd_veneer+0xc>)
10005f0c:	4684      	mov	ip, r0
10005f0e:	bc01      	pop	{r0}
10005f10:	4760      	bx	ip
10005f12:	bf00      	nop
10005f14:	200002ed 	.word	0x200002ed

10005f18 <__mutex_exit_veneer>:
10005f18:	b401      	push	{r0}
10005f1a:	4802      	ldr	r0, [pc, #8]	; (10005f24 <__mutex_exit_veneer+0xc>)
10005f1c:	4684      	mov	ip, r0
10005f1e:	bc01      	pop	{r0}
10005f20:	4760      	bx	ip
10005f22:	bf00      	nop
10005f24:	20000249 	.word	0x20000249

10005f28 <____aeabi_idiv0_veneer>:
10005f28:	b401      	push	{r0}
10005f2a:	4802      	ldr	r0, [pc, #8]	; (10005f34 <____aeabi_idiv0_veneer+0xc>)
10005f2c:	4684      	mov	ip, r0
10005f2e:	bc01      	pop	{r0}
10005f30:	4760      	bx	ip
10005f32:	bf00      	nop
10005f34:	20000db1 	.word	0x20000db1

10005f38 <__mutex_try_enter_veneer>:
10005f38:	b401      	push	{r0}
10005f3a:	4802      	ldr	r0, [pc, #8]	; (10005f44 <__mutex_try_enter_veneer+0xc>)
10005f3c:	4684      	mov	ip, r0
10005f3e:	bc01      	pop	{r0}
10005f40:	4760      	bx	ip
10005f42:	bf00      	nop
10005f44:	200000c1 	.word	0x200000c1

10005f48 <__mutex_enter_timeout_ms_veneer>:
10005f48:	b401      	push	{r0}
10005f4a:	4802      	ldr	r0, [pc, #8]	; (10005f54 <__mutex_enter_timeout_ms_veneer+0xc>)
10005f4c:	4684      	mov	ip, r0
10005f4e:	bc01      	pop	{r0}
10005f50:	4760      	bx	ip
10005f52:	bf00      	nop
10005f54:	200001bd 	.word	0x200001bd

10005f58 <__mutex_try_enter_block_until_veneer>:
10005f58:	b401      	push	{r0}
10005f5a:	4802      	ldr	r0, [pc, #8]	; (10005f64 <__mutex_try_enter_block_until_veneer+0xc>)
10005f5c:	4684      	mov	ip, r0
10005f5e:	bc01      	pop	{r0}
10005f60:	4760      	bx	ip
10005f62:	bf00      	nop
10005f64:	20000109 	.word	0x20000109

10005f68 <__hw_endpoint_start_next_buffer_veneer>:
10005f68:	b401      	push	{r0}
10005f6a:	4802      	ldr	r0, [pc, #8]	; (10005f74 <__hw_endpoint_start_next_buffer_veneer+0xc>)
10005f6c:	4684      	mov	ip, r0
10005f6e:	bc01      	pop	{r0}
10005f70:	4760      	bx	ip
10005f72:	bf00      	nop
10005f74:	20000b8d 	.word	0x20000b8d

10005f78 <__hw_endpoint_reset_transfer_veneer>:
10005f78:	b401      	push	{r0}
10005f7a:	4802      	ldr	r0, [pc, #8]	; (10005f84 <__hw_endpoint_reset_transfer_veneer+0xc>)
10005f7c:	4684      	mov	ip, r0
10005f7e:	bc01      	pop	{r0}
10005f80:	4760      	bx	ip
10005f82:	bf00      	nop
10005f84:	20000b29 	.word	0x20000b29

10005f88 <__reset_non_control_endpoints_veneer>:
10005f88:	b401      	push	{r0}
10005f8a:	4802      	ldr	r0, [pc, #8]	; (10005f94 <__reset_non_control_endpoints_veneer+0xc>)
10005f8c:	4684      	mov	ip, r0
10005f8e:	bc01      	pop	{r0}
10005f90:	4760      	bx	ip
10005f92:	bf00      	nop
10005f94:	20000399 	.word	0x20000399

10005f98 <__e15_is_bulkin_ep.isra.0_veneer>:
10005f98:	b401      	push	{r0}
10005f9a:	4802      	ldr	r0, [pc, #8]	; (10005fa4 <__e15_is_bulkin_ep.isra.0_veneer+0xc>)
10005f9c:	4684      	mov	ip, r0
10005f9e:	bc01      	pop	{r0}
10005fa0:	4760      	bx	ip
10005fa2:	bf00      	nop
10005fa4:	20000acd 	.word	0x20000acd

10005fa8 <___hw_endpoint_buffer_control_update32_veneer>:
10005fa8:	b401      	push	{r0}
10005faa:	4802      	ldr	r0, [pc, #8]	; (10005fb4 <___hw_endpoint_buffer_control_update32_veneer+0xc>)
10005fac:	4684      	mov	ip, r0
10005fae:	bc01      	pop	{r0}
10005fb0:	4760      	bx	ip
10005fb2:	bf00      	nop
10005fb4:	20000b35 	.word	0x20000b35

10005fb8 <__e15_is_critical_frame_period_veneer>:
10005fb8:	b401      	push	{r0}
10005fba:	4802      	ldr	r0, [pc, #8]	; (10005fc4 <__e15_is_critical_frame_period_veneer+0xc>)
10005fbc:	4684      	mov	ip, r0
10005fbe:	bc01      	pop	{r0}
10005fc0:	4760      	bx	ip
10005fc2:	bf00      	nop
10005fc4:	20000af1 	.word	0x20000af1

Disassembly of section .data:

200000c0 <mutex_try_enter>:
200000c0:	0003      	movs	r3, r0
200000c2:	b510      	push	{r4, lr}
200000c4:	6800      	ldr	r0, [r0, #0]
200000c6:	f3ef 8410 	mrs	r4, PRIMASK
200000ca:	b672      	cpsid	i
200000cc:	6802      	ldr	r2, [r0, #0]
200000ce:	2a00      	cmp	r2, #0
200000d0:	d0fc      	beq.n	200000cc <mutex_try_enter+0xc>
200000d2:	f3bf 8f5f 	dmb	sy
200000d6:	2204      	movs	r2, #4
200000d8:	569a      	ldrsb	r2, [r3, r2]
200000da:	2a00      	cmp	r2, #0
200000dc:	db0b      	blt.n	200000f6 <mutex_try_enter+0x36>
200000de:	2900      	cmp	r1, #0
200000e0:	d00f      	beq.n	20000102 <mutex_try_enter+0x42>
200000e2:	2000      	movs	r0, #0
200000e4:	600a      	str	r2, [r1, #0]
200000e6:	681b      	ldr	r3, [r3, #0]
200000e8:	f3bf 8f5f 	dmb	sy
200000ec:	2200      	movs	r2, #0
200000ee:	601a      	str	r2, [r3, #0]
200000f0:	f384 8810 	msr	PRIMASK, r4
200000f4:	bd10      	pop	{r4, pc}
200000f6:	22d0      	movs	r2, #208	; 0xd0
200000f8:	0612      	lsls	r2, r2, #24
200000fa:	6812      	ldr	r2, [r2, #0]
200000fc:	2001      	movs	r0, #1
200000fe:	711a      	strb	r2, [r3, #4]
20000100:	e7f1      	b.n	200000e6 <mutex_try_enter+0x26>
20000102:	2000      	movs	r0, #0
20000104:	e7ef      	b.n	200000e6 <mutex_try_enter+0x26>
20000106:	46c0      	nop			; (mov r8, r8)

20000108 <mutex_try_enter_block_until>:
20000108:	b5f8      	push	{r3, r4, r5, r6, r7, lr}
2000010a:	4647      	mov	r7, r8
2000010c:	46ce      	mov	lr, r9
2000010e:	0016      	movs	r6, r2
20000110:	b580      	push	{r7, lr}
20000112:	0004      	movs	r4, r0
20000114:	001f      	movs	r7, r3
20000116:	6802      	ldr	r2, [r0, #0]
20000118:	f3ef 8010 	mrs	r0, PRIMASK
2000011c:	b672      	cpsid	i
2000011e:	6813      	ldr	r3, [r2, #0]
20000120:	2b00      	cmp	r3, #0
20000122:	d0fc      	beq.n	2000011e <mutex_try_enter_block_until+0x16>
20000124:	f3bf 8f5f 	dmb	sy
20000128:	2304      	movs	r3, #4
2000012a:	56e3      	ldrsb	r3, [r4, r3]
2000012c:	2b00      	cmp	r3, #0
2000012e:	db3e      	blt.n	200001ae <mutex_try_enter_block_until+0xa6>
20000130:	0019      	movs	r1, r3
20000132:	2300      	movs	r3, #0
20000134:	4698      	mov	r8, r3
20000136:	6823      	ldr	r3, [r4, #0]
20000138:	f3bf 8f5f 	dmb	sy
2000013c:	2200      	movs	r2, #0
2000013e:	601a      	str	r2, [r3, #0]
20000140:	f380 8810 	msr	PRIMASK, r0
20000144:	4643      	mov	r3, r8
20000146:	2b00      	cmp	r3, #0
20000148:	d108      	bne.n	2000015c <mutex_try_enter_block_until+0x54>
2000014a:	23d0      	movs	r3, #208	; 0xd0
2000014c:	061b      	lsls	r3, r3, #24
2000014e:	781b      	ldrb	r3, [r3, #0]
20000150:	b249      	sxtb	r1, r1
20000152:	b25b      	sxtb	r3, r3
20000154:	4699      	mov	r9, r3
20000156:	2500      	movs	r5, #0
20000158:	4299      	cmp	r1, r3
2000015a:	d110      	bne.n	2000017e <mutex_try_enter_block_until+0x76>
2000015c:	4640      	mov	r0, r8
2000015e:	bc0c      	pop	{r2, r3}
20000160:	4690      	mov	r8, r2
20000162:	4699      	mov	r9, r3
20000164:	bdf8      	pop	{r3, r4, r5, r6, r7, pc}
20000166:	6823      	ldr	r3, [r4, #0]
20000168:	f3bf 8f5f 	dmb	sy
2000016c:	601d      	str	r5, [r3, #0]
2000016e:	f381 8810 	msr	PRIMASK, r1
20000172:	0030      	movs	r0, r6
20000174:	0039      	movs	r1, r7
20000176:	f000 fe4f 	bl	20000e18 <__best_effort_wfe_or_timeout_veneer>
2000017a:	2800      	cmp	r0, #0
2000017c:	d1ee      	bne.n	2000015c <mutex_try_enter_block_until+0x54>
2000017e:	6822      	ldr	r2, [r4, #0]
20000180:	f3ef 8110 	mrs	r1, PRIMASK
20000184:	b672      	cpsid	i
20000186:	6813      	ldr	r3, [r2, #0]
20000188:	2b00      	cmp	r3, #0
2000018a:	d0fc      	beq.n	20000186 <mutex_try_enter_block_until+0x7e>
2000018c:	f3bf 8f5f 	dmb	sy
20000190:	7923      	ldrb	r3, [r4, #4]
20000192:	2b7f      	cmp	r3, #127	; 0x7f
20000194:	d9e7      	bls.n	20000166 <mutex_try_enter_block_until+0x5e>
20000196:	464b      	mov	r3, r9
20000198:	7123      	strb	r3, [r4, #4]
2000019a:	6823      	ldr	r3, [r4, #0]
2000019c:	f3bf 8f5f 	dmb	sy
200001a0:	2200      	movs	r2, #0
200001a2:	601a      	str	r2, [r3, #0]
200001a4:	f381 8810 	msr	PRIMASK, r1
200001a8:	2301      	movs	r3, #1
200001aa:	4698      	mov	r8, r3
200001ac:	e7d6      	b.n	2000015c <mutex_try_enter_block_until+0x54>
200001ae:	23d0      	movs	r3, #208	; 0xd0
200001b0:	061b      	lsls	r3, r3, #24
200001b2:	681b      	ldr	r3, [r3, #0]
200001b4:	7123      	strb	r3, [r4, #4]
200001b6:	2301      	movs	r3, #1
200001b8:	4698      	mov	r8, r3
200001ba:	e7bc      	b.n	20000136 <mutex_try_enter_block_until+0x2e>

200001bc <mutex_enter_timeout_ms>:
200001bc:	b5f0      	push	{r4, r5, r6, r7, lr}
200001be:	46c6      	mov	lr, r8
200001c0:	b500      	push	{lr}
200001c2:	000d      	movs	r5, r1
200001c4:	0004      	movs	r4, r0
200001c6:	f000 fdff 	bl	20000dc8 <__time_us_64_veneer>
200001ca:	22fa      	movs	r2, #250	; 0xfa
200001cc:	0006      	movs	r6, r0
200001ce:	000f      	movs	r7, r1
200001d0:	0092      	lsls	r2, r2, #2
200001d2:	2300      	movs	r3, #0
200001d4:	0028      	movs	r0, r5
200001d6:	2100      	movs	r1, #0
200001d8:	f000 fe16 	bl	20000e08 <____wrap___aeabi_lmul_veneer>
200001dc:	1836      	adds	r6, r6, r0
200001de:	414f      	adcs	r7, r1
200001e0:	2f00      	cmp	r7, #0
200001e2:	da02      	bge.n	200001ea <mutex_enter_timeout_ms+0x2e>
200001e4:	2601      	movs	r6, #1
200001e6:	4f17      	ldr	r7, [pc, #92]	; (20000244 <mutex_enter_timeout_ms+0x88>)
200001e8:	4276      	negs	r6, r6
200001ea:	23d0      	movs	r3, #208	; 0xd0
200001ec:	061b      	lsls	r3, r3, #24
200001ee:	681b      	ldr	r3, [r3, #0]
200001f0:	2500      	movs	r5, #0
200001f2:	4698      	mov	r8, r3
200001f4:	e00b      	b.n	2000020e <mutex_enter_timeout_ms+0x52>
200001f6:	6823      	ldr	r3, [r4, #0]
200001f8:	f3bf 8f5f 	dmb	sy
200001fc:	601d      	str	r5, [r3, #0]
200001fe:	f381 8810 	msr	PRIMASK, r1
20000202:	0030      	movs	r0, r6
20000204:	0039      	movs	r1, r7
20000206:	f000 fe07 	bl	20000e18 <__best_effort_wfe_or_timeout_veneer>
2000020a:	2800      	cmp	r0, #0
2000020c:	d118      	bne.n	20000240 <mutex_enter_timeout_ms+0x84>
2000020e:	6822      	ldr	r2, [r4, #0]
20000210:	f3ef 8110 	mrs	r1, PRIMASK
20000214:	b672      	cpsid	i
20000216:	6813      	ldr	r3, [r2, #0]
20000218:	2b00      	cmp	r3, #0
2000021a:	d0fc      	beq.n	20000216 <mutex_enter_timeout_ms+0x5a>
2000021c:	f3bf 8f5f 	dmb	sy
20000220:	7923      	ldrb	r3, [r4, #4]
20000222:	2b7f      	cmp	r3, #127	; 0x7f
20000224:	d9e7      	bls.n	200001f6 <mutex_enter_timeout_ms+0x3a>
20000226:	4643      	mov	r3, r8
20000228:	7123      	strb	r3, [r4, #4]
2000022a:	6823      	ldr	r3, [r4, #0]
2000022c:	f3bf 8f5f 	dmb	sy
20000230:	2200      	movs	r2, #0
20000232:	601a      	str	r2, [r3, #0]
20000234:	f381 8810 	msr	PRIMASK, r1
20000238:	2001      	movs	r0, #1
2000023a:	bc04      	pop	{r2}
2000023c:	4690      	mov	r8, r2
2000023e:	bdf0      	pop	{r4, r5, r6, r7, pc}
20000240:	2000      	movs	r0, #0
20000242:	e7fa      	b.n	2000023a <mutex_enter_timeout_ms+0x7e>
20000244:	7fffffff 	.word	0x7fffffff

20000248 <mutex_exit>:
20000248:	6802      	ldr	r2, [r0, #0]
2000024a:	f3ef 8110 	mrs	r1, PRIMASK
2000024e:	b672      	cpsid	i
20000250:	6813      	ldr	r3, [r2, #0]
20000252:	2b00      	cmp	r3, #0
20000254:	d0fc      	beq.n	20000250 <mutex_exit+0x8>
20000256:	f3bf 8f5f 	dmb	sy
2000025a:	23ff      	movs	r3, #255	; 0xff
2000025c:	7103      	strb	r3, [r0, #4]
2000025e:	6803      	ldr	r3, [r0, #0]
20000260:	f3bf 8f5f 	dmb	sy
20000264:	2200      	movs	r2, #0
20000266:	601a      	str	r2, [r3, #0]
20000268:	f381 8810 	msr	PRIMASK, r1
2000026c:	bf40      	sev
2000026e:	4770      	bx	lr

20000270 <flash_init_boot2_copyout>:
20000270:	b530      	push	{r4, r5, lr}
20000272:	4c09      	ldr	r4, [pc, #36]	; (20000298 <flash_init_boot2_copyout+0x28>)
20000274:	7823      	ldrb	r3, [r4, #0]
20000276:	2b00      	cmp	r3, #0
20000278:	d10d      	bne.n	20000296 <flash_init_boot2_copyout+0x26>
2000027a:	2380      	movs	r3, #128	; 0x80
2000027c:	4807      	ldr	r0, [pc, #28]	; (2000029c <flash_init_boot2_copyout+0x2c>)
2000027e:	4908      	ldr	r1, [pc, #32]	; (200002a0 <flash_init_boot2_copyout+0x30>)
20000280:	055b      	lsls	r3, r3, #21
20000282:	22f0      	movs	r2, #240	; 0xf0
20000284:	681d      	ldr	r5, [r3, #0]
20000286:	0612      	lsls	r2, r2, #24
20000288:	189a      	adds	r2, r3, r2
2000028a:	3304      	adds	r3, #4
2000028c:	5085      	str	r5, [r0, r2]
2000028e:	428b      	cmp	r3, r1
20000290:	d1f7      	bne.n	20000282 <flash_init_boot2_copyout+0x12>
20000292:	2301      	movs	r3, #1
20000294:	7023      	strb	r3, [r4, #0]
20000296:	bd30      	pop	{r4, r5, pc}
20000298:	20002257 	.word	0x20002257
2000029c:	20001c4c 	.word	0x20001c4c
200002a0:	10000100 	.word	0x10000100

200002a4 <flash_enable_xip_via_boot2>:
200002a4:	b510      	push	{r4, lr}
200002a6:	4b02      	ldr	r3, [pc, #8]	; (200002b0 <flash_enable_xip_via_boot2+0xc>)
200002a8:	3301      	adds	r3, #1
200002aa:	4798      	blx	r3
200002ac:	bd10      	pop	{r4, pc}
200002ae:	46c0      	nop			; (mov r8, r8)
200002b0:	20001c4c 	.word	0x20001c4c

200002b4 <flash_cs_force.constprop.0>:
200002b4:	4b05      	ldr	r3, [pc, #20]	; (200002cc <flash_cs_force.constprop.0+0x18>)
200002b6:	681a      	ldr	r2, [r3, #0]
200002b8:	2380      	movs	r3, #128	; 0x80
200002ba:	009b      	lsls	r3, r3, #2
200002bc:	4053      	eors	r3, r2
200002be:	22c0      	movs	r2, #192	; 0xc0
200002c0:	0092      	lsls	r2, r2, #2
200002c2:	4013      	ands	r3, r2
200002c4:	4a02      	ldr	r2, [pc, #8]	; (200002d0 <flash_cs_force.constprop.0+0x1c>)
200002c6:	6013      	str	r3, [r2, #0]
200002c8:	4770      	bx	lr
200002ca:	46c0      	nop			; (mov r8, r8)
200002cc:	4001800c 	.word	0x4001800c
200002d0:	4001900c 	.word	0x4001900c

200002d4 <flash_cs_force.constprop.1>:
200002d4:	4b03      	ldr	r3, [pc, #12]	; (200002e4 <flash_cs_force.constprop.1+0x10>)
200002d6:	681a      	ldr	r2, [r3, #0]
200002d8:	23c0      	movs	r3, #192	; 0xc0
200002da:	009b      	lsls	r3, r3, #2
200002dc:	4393      	bics	r3, r2
200002de:	4a02      	ldr	r2, [pc, #8]	; (200002e8 <flash_cs_force.constprop.1+0x14>)
200002e0:	6013      	str	r3, [r2, #0]
200002e2:	4770      	bx	lr
200002e4:	4001800c 	.word	0x4001800c
200002e8:	4001900c 	.word	0x4001900c

200002ec <flash_do_cmd>:
200002ec:	b5f0      	push	{r4, r5, r6, r7, lr}
200002ee:	46d6      	mov	lr, sl
200002f0:	464f      	mov	r7, r9
200002f2:	4646      	mov	r6, r8
200002f4:	2314      	movs	r3, #20
200002f6:	b5c0      	push	{r6, r7, lr}
200002f8:	2718      	movs	r7, #24
200002fa:	4698      	mov	r8, r3
200002fc:	4681      	mov	r9, r0
200002fe:	000d      	movs	r5, r1
20000300:	8818      	ldrh	r0, [r3, #0]
20000302:	4922      	ldr	r1, [pc, #136]	; (2000038c <flash_do_cmd+0xa0>)
20000304:	883b      	ldrh	r3, [r7, #0]
20000306:	0014      	movs	r4, r2
20000308:	4798      	blx	r3
2000030a:	4643      	mov	r3, r8
2000030c:	4682      	mov	sl, r0
2000030e:	4920      	ldr	r1, [pc, #128]	; (20000390 <flash_do_cmd+0xa4>)
20000310:	8818      	ldrh	r0, [r3, #0]
20000312:	883b      	ldrh	r3, [r7, #0]
20000314:	4798      	blx	r3
20000316:	4643      	mov	r3, r8
20000318:	491e      	ldr	r1, [pc, #120]	; (20000394 <flash_do_cmd+0xa8>)
2000031a:	0006      	movs	r6, r0
2000031c:	8818      	ldrh	r0, [r3, #0]
2000031e:	883b      	ldrh	r3, [r7, #0]
20000320:	4798      	blx	r3
20000322:	4680      	mov	r8, r0
20000324:	f7ff ffa4 	bl	20000270 <flash_init_boot2_copyout>
20000328:	47d0      	blx	sl
2000032a:	47b0      	blx	r6
2000032c:	f7ff ffc2 	bl	200002b4 <flash_cs_force.constprop.0>
20000330:	20c0      	movs	r0, #192	; 0xc0
20000332:	0022      	movs	r2, r4
20000334:	2608      	movs	r6, #8
20000336:	0540      	lsls	r0, r0, #21
20000338:	3f16      	subs	r7, #22
2000033a:	0023      	movs	r3, r4
2000033c:	4313      	orrs	r3, r2
2000033e:	d01b      	beq.n	20000378 <flash_do_cmd+0x8c>
20000340:	0031      	movs	r1, r6
20000342:	6a83      	ldr	r3, [r0, #40]	; 0x28
20000344:	4019      	ands	r1, r3
20000346:	421f      	tst	r7, r3
20000348:	d00b      	beq.n	20000362 <flash_do_cmd+0x76>
2000034a:	2c00      	cmp	r4, #0
2000034c:	d009      	beq.n	20000362 <flash_do_cmd+0x76>
2000034e:	1b13      	subs	r3, r2, r4
20000350:	2b0d      	cmp	r3, #13
20000352:	d806      	bhi.n	20000362 <flash_do_cmd+0x76>
20000354:	464b      	mov	r3, r9
20000356:	781b      	ldrb	r3, [r3, #0]
20000358:	3c01      	subs	r4, #1
2000035a:	6603      	str	r3, [r0, #96]	; 0x60
2000035c:	2301      	movs	r3, #1
2000035e:	469c      	mov	ip, r3
20000360:	44e1      	add	r9, ip
20000362:	2900      	cmp	r1, #0
20000364:	d0e9      	beq.n	2000033a <flash_do_cmd+0x4e>
20000366:	2a00      	cmp	r2, #0
20000368:	d0e7      	beq.n	2000033a <flash_do_cmd+0x4e>
2000036a:	6e03      	ldr	r3, [r0, #96]	; 0x60
2000036c:	3a01      	subs	r2, #1
2000036e:	702b      	strb	r3, [r5, #0]
20000370:	0023      	movs	r3, r4
20000372:	3501      	adds	r5, #1
20000374:	4313      	orrs	r3, r2
20000376:	d1e3      	bne.n	20000340 <flash_do_cmd+0x54>
20000378:	f7ff ffac 	bl	200002d4 <flash_cs_force.constprop.1>
2000037c:	47c0      	blx	r8
2000037e:	f7ff ff91 	bl	200002a4 <flash_enable_xip_via_boot2>
20000382:	bc1c      	pop	{r2, r3, r4}
20000384:	4690      	mov	r8, r2
20000386:	4699      	mov	r9, r3
20000388:	46a2      	mov	sl, r4
2000038a:	bdf0      	pop	{r4, r5, r6, r7, pc}
2000038c:	00004649 	.word	0x00004649
20000390:	00005845 	.word	0x00005845
20000394:	00004346 	.word	0x00004346

20000398 <reset_non_control_endpoints>:
20000398:	2300      	movs	r3, #0
2000039a:	4a1c      	ldr	r2, [pc, #112]	; (2000040c <reset_non_control_endpoints+0x74>)
2000039c:	b510      	push	{r4, lr}
2000039e:	6093      	str	r3, [r2, #8]
200003a0:	60d3      	str	r3, [r2, #12]
200003a2:	4a1b      	ldr	r2, [pc, #108]	; (20000410 <reset_non_control_endpoints+0x78>)
200003a4:	481b      	ldr	r0, [pc, #108]	; (20000414 <reset_non_control_endpoints+0x7c>)
200003a6:	6093      	str	r3, [r2, #8]
200003a8:	60d3      	str	r3, [r2, #12]
200003aa:	4a1b      	ldr	r2, [pc, #108]	; (20000418 <reset_non_control_endpoints+0x80>)
200003ac:	2100      	movs	r1, #0
200003ae:	6093      	str	r3, [r2, #8]
200003b0:	60d3      	str	r3, [r2, #12]
200003b2:	4a1a      	ldr	r2, [pc, #104]	; (2000041c <reset_non_control_endpoints+0x84>)
200003b4:	3040      	adds	r0, #64	; 0x40
200003b6:	6093      	str	r3, [r2, #8]
200003b8:	60d3      	str	r3, [r2, #12]
200003ba:	4a19      	ldr	r2, [pc, #100]	; (20000420 <reset_non_control_endpoints+0x88>)
200003bc:	6093      	str	r3, [r2, #8]
200003be:	60d3      	str	r3, [r2, #12]
200003c0:	4a18      	ldr	r2, [pc, #96]	; (20000424 <reset_non_control_endpoints+0x8c>)
200003c2:	6093      	str	r3, [r2, #8]
200003c4:	60d3      	str	r3, [r2, #12]
200003c6:	4a18      	ldr	r2, [pc, #96]	; (20000428 <reset_non_control_endpoints+0x90>)
200003c8:	6093      	str	r3, [r2, #8]
200003ca:	60d3      	str	r3, [r2, #12]
200003cc:	4a17      	ldr	r2, [pc, #92]	; (2000042c <reset_non_control_endpoints+0x94>)
200003ce:	6093      	str	r3, [r2, #8]
200003d0:	60d3      	str	r3, [r2, #12]
200003d2:	4a17      	ldr	r2, [pc, #92]	; (20000430 <reset_non_control_endpoints+0x98>)
200003d4:	6093      	str	r3, [r2, #8]
200003d6:	60d3      	str	r3, [r2, #12]
200003d8:	4a16      	ldr	r2, [pc, #88]	; (20000434 <reset_non_control_endpoints+0x9c>)
200003da:	6093      	str	r3, [r2, #8]
200003dc:	60d3      	str	r3, [r2, #12]
200003de:	4a16      	ldr	r2, [pc, #88]	; (20000438 <reset_non_control_endpoints+0xa0>)
200003e0:	6093      	str	r3, [r2, #8]
200003e2:	60d3      	str	r3, [r2, #12]
200003e4:	4a15      	ldr	r2, [pc, #84]	; (2000043c <reset_non_control_endpoints+0xa4>)
200003e6:	6093      	str	r3, [r2, #8]
200003e8:	60d3      	str	r3, [r2, #12]
200003ea:	4a15      	ldr	r2, [pc, #84]	; (20000440 <reset_non_control_endpoints+0xa8>)
200003ec:	6093      	str	r3, [r2, #8]
200003ee:	60d3      	str	r3, [r2, #12]
200003f0:	4a14      	ldr	r2, [pc, #80]	; (20000444 <reset_non_control_endpoints+0xac>)
200003f2:	6093      	str	r3, [r2, #8]
200003f4:	60d3      	str	r3, [r2, #12]
200003f6:	4a14      	ldr	r2, [pc, #80]	; (20000448 <reset_non_control_endpoints+0xb0>)
200003f8:	6093      	str	r3, [r2, #8]
200003fa:	60d3      	str	r3, [r2, #12]
200003fc:	22f0      	movs	r2, #240	; 0xf0
200003fe:	0092      	lsls	r2, r2, #2
20000400:	f000 fcda 	bl	20000db8 <____wrap_memset_veneer>
20000404:	4a11      	ldr	r2, [pc, #68]	; (2000044c <reset_non_control_endpoints+0xb4>)
20000406:	4b12      	ldr	r3, [pc, #72]	; (20000450 <reset_non_control_endpoints+0xb8>)
20000408:	601a      	str	r2, [r3, #0]
2000040a:	bd10      	pop	{r4, pc}
2000040c:	50100000 	.word	0x50100000
20000410:	50100008 	.word	0x50100008
20000414:	20001df8 	.word	0x20001df8
20000418:	50100010 	.word	0x50100010
2000041c:	50100018 	.word	0x50100018
20000420:	50100020 	.word	0x50100020
20000424:	50100028 	.word	0x50100028
20000428:	50100030 	.word	0x50100030
2000042c:	50100038 	.word	0x50100038
20000430:	50100040 	.word	0x50100040
20000434:	50100048 	.word	0x50100048
20000438:	50100050 	.word	0x50100050
2000043c:	50100058 	.word	0x50100058
20000440:	50100060 	.word	0x50100060
20000444:	50100068 	.word	0x50100068
20000448:	50100070 	.word	0x50100070
2000044c:	50100180 	.word	0x50100180
20000450:	20002200 	.word	0x20002200

20000454 <hw_handle_buff_status>:
20000454:	b5f0      	push	{r4, r5, r6, r7, lr}
20000456:	464e      	mov	r6, r9
20000458:	46de      	mov	lr, fp
2000045a:	4657      	mov	r7, sl
2000045c:	4645      	mov	r5, r8
2000045e:	b5e0      	push	{r5, r6, r7, lr}
20000460:	4b27      	ldr	r3, [pc, #156]	; (20000500 <hw_handle_buff_status+0xac>)
20000462:	b087      	sub	sp, #28
20000464:	6d9b      	ldr	r3, [r3, #88]	; 0x58
20000466:	4699      	mov	r9, r3
20000468:	2b00      	cmp	r3, #0
2000046a:	d02a      	beq.n	200004c2 <hw_handle_buff_status+0x6e>
2000046c:	4b25      	ldr	r3, [pc, #148]	; (20000504 <hw_handle_buff_status+0xb0>)
2000046e:	2601      	movs	r6, #1
20000470:	469b      	mov	fp, r3
20000472:	4b25      	ldr	r3, [pc, #148]	; (20000508 <hw_handle_buff_status+0xb4>)
20000474:	2400      	movs	r4, #0
20000476:	2701      	movs	r7, #1
20000478:	469a      	mov	sl, r3
2000047a:	46c8      	mov	r8, r9
2000047c:	e007      	b.n	2000048e <hw_handle_buff_status+0x3a>
2000047e:	3401      	adds	r4, #1
20000480:	007f      	lsls	r7, r7, #1
20000482:	b2e4      	uxtb	r4, r4
20000484:	2301      	movs	r3, #1
20000486:	3601      	adds	r6, #1
20000488:	401e      	ands	r6, r3
2000048a:	2c20      	cmp	r4, #32
2000048c:	d019      	beq.n	200004c2 <hw_handle_buff_status+0x6e>
2000048e:	4643      	mov	r3, r8
20000490:	421f      	tst	r7, r3
20000492:	d0f4      	beq.n	2000047e <hw_handle_buff_status+0x2a>
20000494:	465b      	mov	r3, fp
20000496:	2101      	movs	r1, #1
20000498:	659f      	str	r7, [r3, #88]	; 0x58
2000049a:	4272      	negs	r2, r6
2000049c:	0863      	lsrs	r3, r4, #1
2000049e:	400a      	ands	r2, r1
200004a0:	005d      	lsls	r5, r3, #1
200004a2:	18ad      	adds	r5, r5, r2
200004a4:	016d      	lsls	r5, r5, #5
200004a6:	4455      	add	r5, sl
200004a8:	0028      	movs	r0, r5
200004aa:	f000 fba5 	bl	20000bf8 <hw_endpoint_xfer_continue>
200004ae:	2800      	cmp	r0, #0
200004b0:	d10e      	bne.n	200004d0 <hw_handle_buff_status+0x7c>
200004b2:	4643      	mov	r3, r8
200004b4:	3401      	adds	r4, #1
200004b6:	43bb      	bics	r3, r7
200004b8:	4698      	mov	r8, r3
200004ba:	007f      	lsls	r7, r7, #1
200004bc:	b2e4      	uxtb	r4, r4
200004be:	2b00      	cmp	r3, #0
200004c0:	d1e0      	bne.n	20000484 <hw_handle_buff_status+0x30>
200004c2:	b007      	add	sp, #28
200004c4:	bc3c      	pop	{r2, r3, r4, r5}
200004c6:	4690      	mov	r8, r2
200004c8:	4699      	mov	r9, r3
200004ca:	46a2      	mov	sl, r4
200004cc:	46ab      	mov	fp, r5
200004ce:	bdf0      	pop	{r4, r5, r6, r7, pc}
200004d0:	78ab      	ldrb	r3, [r5, #2]
200004d2:	220c      	movs	r2, #12
200004d4:	4699      	mov	r9, r3
200004d6:	8aeb      	ldrh	r3, [r5, #22]
200004d8:	2100      	movs	r1, #0
200004da:	a803      	add	r0, sp, #12
200004dc:	9301      	str	r3, [sp, #4]
200004de:	f000 fc6b 	bl	20000db8 <____wrap_memset_veneer>
200004e2:	2307      	movs	r3, #7
200004e4:	4649      	mov	r1, r9
200004e6:	aa02      	add	r2, sp, #8
200004e8:	7153      	strb	r3, [r2, #5]
200004ea:	9b01      	ldr	r3, [sp, #4]
200004ec:	7211      	strb	r1, [r2, #8]
200004ee:	a803      	add	r0, sp, #12
200004f0:	2101      	movs	r1, #1
200004f2:	9305      	str	r3, [sp, #20]
200004f4:	f000 fba8 	bl	20000c48 <dcd_event_handler>
200004f8:	0028      	movs	r0, r5
200004fa:	f000 fb15 	bl	20000b28 <hw_endpoint_reset_transfer>
200004fe:	e7d8      	b.n	200004b2 <hw_handle_buff_status+0x5e>
20000500:	50110000 	.word	0x50110000
20000504:	50113000 	.word	0x50113000
20000508:	20001df8 	.word	0x20001df8

2000050c <dcd_rp2040_irq>:
2000050c:	2398      	movs	r3, #152	; 0x98
2000050e:	b570      	push	{r4, r5, r6, lr}
20000510:	4ad0      	ldr	r2, [pc, #832]	; (20000854 <dcd_rp2040_irq+0x348>)
20000512:	b084      	sub	sp, #16
20000514:	58d5      	ldr	r5, [r2, r3]
20000516:	03ab      	lsls	r3, r5, #14
20000518:	d57e      	bpl.n	20000618 <dcd_rp2040_irq+0x10c>
2000051a:	4bcf      	ldr	r3, [pc, #828]	; (20000858 <dcd_rp2040_irq+0x34c>)
2000051c:	4ccf      	ldr	r4, [pc, #828]	; (2000085c <dcd_rp2040_irq+0x350>)
2000051e:	6a9a      	ldr	r2, [r3, #40]	; 0x28
20000520:	4bcf      	ldr	r3, [pc, #828]	; (20000860 <dcd_rp2040_irq+0x354>)
20000522:	2600      	movs	r6, #0
20000524:	601a      	str	r2, [r3, #0]
20000526:	233b      	movs	r3, #59	; 0x3b
20000528:	5ce3      	ldrb	r3, [r4, r3]
2000052a:	2b02      	cmp	r3, #2
2000052c:	d100      	bne.n	20000530 <dcd_rp2040_irq+0x24>
2000052e:	e0f6      	b.n	2000071e <dcd_rp2040_irq+0x212>
20000530:	237b      	movs	r3, #123	; 0x7b
20000532:	5ce3      	ldrb	r3, [r4, r3]
20000534:	2b02      	cmp	r3, #2
20000536:	d100      	bne.n	2000053a <dcd_rp2040_irq+0x2e>
20000538:	e102      	b.n	20000740 <dcd_rp2040_irq+0x234>
2000053a:	23bb      	movs	r3, #187	; 0xbb
2000053c:	5ce3      	ldrb	r3, [r4, r3]
2000053e:	2b02      	cmp	r3, #2
20000540:	d100      	bne.n	20000544 <dcd_rp2040_irq+0x38>
20000542:	e10f      	b.n	20000764 <dcd_rp2040_irq+0x258>
20000544:	23fb      	movs	r3, #251	; 0xfb
20000546:	5ce3      	ldrb	r3, [r4, r3]
20000548:	2b02      	cmp	r3, #2
2000054a:	d100      	bne.n	2000054e <dcd_rp2040_irq+0x42>
2000054c:	e11c      	b.n	20000788 <dcd_rp2040_irq+0x27c>
2000054e:	233c      	movs	r3, #60	; 0x3c
20000550:	33ff      	adds	r3, #255	; 0xff
20000552:	5ce3      	ldrb	r3, [r4, r3]
20000554:	2b02      	cmp	r3, #2
20000556:	d100      	bne.n	2000055a <dcd_rp2040_irq+0x4e>
20000558:	e128      	b.n	200007ac <dcd_rp2040_irq+0x2a0>
2000055a:	237c      	movs	r3, #124	; 0x7c
2000055c:	33ff      	adds	r3, #255	; 0xff
2000055e:	5ce3      	ldrb	r3, [r4, r3]
20000560:	2b02      	cmp	r3, #2
20000562:	d100      	bne.n	20000566 <dcd_rp2040_irq+0x5a>
20000564:	e137      	b.n	200007d6 <dcd_rp2040_irq+0x2ca>
20000566:	23bc      	movs	r3, #188	; 0xbc
20000568:	33ff      	adds	r3, #255	; 0xff
2000056a:	5ce3      	ldrb	r3, [r4, r3]
2000056c:	2b02      	cmp	r3, #2
2000056e:	d100      	bne.n	20000572 <dcd_rp2040_irq+0x66>
20000570:	e146      	b.n	20000800 <dcd_rp2040_irq+0x2f4>
20000572:	23fc      	movs	r3, #252	; 0xfc
20000574:	33ff      	adds	r3, #255	; 0xff
20000576:	5ce3      	ldrb	r3, [r4, r3]
20000578:	2b02      	cmp	r3, #2
2000057a:	d100      	bne.n	2000057e <dcd_rp2040_irq+0x72>
2000057c:	e155      	b.n	2000082a <dcd_rp2040_irq+0x31e>
2000057e:	4bb9      	ldr	r3, [pc, #740]	; (20000864 <dcd_rp2040_irq+0x358>)
20000580:	5ce3      	ldrb	r3, [r4, r3]
20000582:	2b02      	cmp	r3, #2
20000584:	d100      	bne.n	20000588 <dcd_rp2040_irq+0x7c>
20000586:	e189      	b.n	2000089c <dcd_rp2040_irq+0x390>
20000588:	4bb7      	ldr	r3, [pc, #732]	; (20000868 <dcd_rp2040_irq+0x35c>)
2000058a:	5ce3      	ldrb	r3, [r4, r3]
2000058c:	2b02      	cmp	r3, #2
2000058e:	d100      	bne.n	20000592 <dcd_rp2040_irq+0x86>
20000590:	e198      	b.n	200008c4 <dcd_rp2040_irq+0x3b8>
20000592:	4bb6      	ldr	r3, [pc, #728]	; (2000086c <dcd_rp2040_irq+0x360>)
20000594:	5ce3      	ldrb	r3, [r4, r3]
20000596:	2b02      	cmp	r3, #2
20000598:	d100      	bne.n	2000059c <dcd_rp2040_irq+0x90>
2000059a:	e1a7      	b.n	200008ec <dcd_rp2040_irq+0x3e0>
2000059c:	4bb4      	ldr	r3, [pc, #720]	; (20000870 <dcd_rp2040_irq+0x364>)
2000059e:	5ce3      	ldrb	r3, [r4, r3]
200005a0:	2b02      	cmp	r3, #2
200005a2:	d100      	bne.n	200005a6 <dcd_rp2040_irq+0x9a>
200005a4:	e1ca      	b.n	2000093c <dcd_rp2040_irq+0x430>
200005a6:	4bb3      	ldr	r3, [pc, #716]	; (20000874 <dcd_rp2040_irq+0x368>)
200005a8:	5ce3      	ldrb	r3, [r4, r3]
200005aa:	2b02      	cmp	r3, #2
200005ac:	d100      	bne.n	200005b0 <dcd_rp2040_irq+0xa4>
200005ae:	e1d9      	b.n	20000964 <dcd_rp2040_irq+0x458>
200005b0:	4bb1      	ldr	r3, [pc, #708]	; (20000878 <dcd_rp2040_irq+0x36c>)
200005b2:	5ce3      	ldrb	r3, [r4, r3]
200005b4:	2b02      	cmp	r3, #2
200005b6:	d100      	bne.n	200005ba <dcd_rp2040_irq+0xae>
200005b8:	e1ac      	b.n	20000914 <dcd_rp2040_irq+0x408>
200005ba:	4bb0      	ldr	r3, [pc, #704]	; (2000087c <dcd_rp2040_irq+0x370>)
200005bc:	5ce3      	ldrb	r3, [r4, r3]
200005be:	2b02      	cmp	r3, #2
200005c0:	d100      	bne.n	200005c4 <dcd_rp2040_irq+0xb8>
200005c2:	e096      	b.n	200006f2 <dcd_rp2040_irq+0x1e6>
200005c4:	4bae      	ldr	r3, [pc, #696]	; (20000880 <dcd_rp2040_irq+0x374>)
200005c6:	5ce3      	ldrb	r3, [r4, r3]
200005c8:	2b02      	cmp	r3, #2
200005ca:	d100      	bne.n	200005ce <dcd_rp2040_irq+0xc2>
200005cc:	e1de      	b.n	2000098c <dcd_rp2040_irq+0x480>
200005ce:	2e00      	cmp	r6, #0
200005d0:	d108      	bne.n	200005e4 <dcd_rp2040_irq+0xd8>
200005d2:	4bac      	ldr	r3, [pc, #688]	; (20000884 <dcd_rp2040_irq+0x378>)
200005d4:	781b      	ldrb	r3, [r3, #0]
200005d6:	2b00      	cmp	r3, #0
200005d8:	d104      	bne.n	200005e4 <dcd_rp2040_irq+0xd8>
200005da:	2180      	movs	r1, #128	; 0x80
200005dc:	4aaa      	ldr	r2, [pc, #680]	; (20000888 <dcd_rp2040_irq+0x37c>)
200005de:	0289      	lsls	r1, r1, #10
200005e0:	3390      	adds	r3, #144	; 0x90
200005e2:	50d1      	str	r1, [r2, r3]
200005e4:	4b9b      	ldr	r3, [pc, #620]	; (20000854 <dcd_rp2040_irq+0x348>)
200005e6:	ae01      	add	r6, sp, #4
200005e8:	6c9c      	ldr	r4, [r3, #72]	; 0x48
200005ea:	220c      	movs	r2, #12
200005ec:	0564      	lsls	r4, r4, #21
200005ee:	2100      	movs	r1, #0
200005f0:	0030      	movs	r0, r6
200005f2:	0d64      	lsrs	r4, r4, #21
200005f4:	f000 fbe0 	bl	20000db8 <____wrap_memset_veneer>
200005f8:	6074      	str	r4, [r6, #4]
200005fa:	2303      	movs	r3, #3
200005fc:	2480      	movs	r4, #128	; 0x80
200005fe:	0030      	movs	r0, r6
20000600:	2101      	movs	r1, #1
20000602:	7073      	strb	r3, [r6, #1]
20000604:	02a4      	lsls	r4, r4, #10
20000606:	f000 fb1f 	bl	20000c48 <dcd_event_handler>
2000060a:	4ea0      	ldr	r6, [pc, #640]	; (2000088c <dcd_rp2040_irq+0x380>)
2000060c:	06eb      	lsls	r3, r5, #27
2000060e:	d507      	bpl.n	20000620 <dcd_rp2040_irq+0x114>
20000610:	f7ff ff20 	bl	20000454 <hw_handle_buff_status>
20000614:	0034      	movs	r4, r6
20000616:	e003      	b.n	20000620 <dcd_rp2040_irq+0x114>
20000618:	2610      	movs	r6, #16
2000061a:	2400      	movs	r4, #0
2000061c:	06eb      	lsls	r3, r5, #27
2000061e:	d4f7      	bmi.n	20000610 <dcd_rp2040_irq+0x104>
20000620:	2380      	movs	r3, #128	; 0x80
20000622:	025b      	lsls	r3, r3, #9
20000624:	421d      	tst	r5, r3
20000626:	d019      	beq.n	2000065c <dcd_rp2040_irq+0x150>
20000628:	2201      	movs	r2, #1
2000062a:	2123      	movs	r1, #35	; 0x23
2000062c:	431c      	orrs	r4, r3
2000062e:	4b8b      	ldr	r3, [pc, #556]	; (2000085c <dcd_rp2040_irq+0x350>)
20000630:	ae01      	add	r6, sp, #4
20000632:	545a      	strb	r2, [r3, r1]
20000634:	70da      	strb	r2, [r3, #3]
20000636:	2100      	movs	r1, #0
20000638:	320b      	adds	r2, #11
2000063a:	0030      	movs	r0, r6
2000063c:	f000 fbbc 	bl	20000db8 <____wrap_memset_veneer>
20000640:	2306      	movs	r3, #6
20000642:	4a93      	ldr	r2, [pc, #588]	; (20000890 <dcd_rp2040_irq+0x384>)
20000644:	7073      	strb	r3, [r6, #1]
20000646:	ab02      	add	r3, sp, #8
20000648:	ca03      	ldmia	r2!, {r0, r1}
2000064a:	c303      	stmia	r3!, {r0, r1}
2000064c:	2101      	movs	r1, #1
2000064e:	0030      	movs	r0, r6
20000650:	f000 fafa 	bl	20000c48 <dcd_event_handler>
20000654:	2280      	movs	r2, #128	; 0x80
20000656:	4b8c      	ldr	r3, [pc, #560]	; (20000888 <dcd_rp2040_irq+0x37c>)
20000658:	0292      	lsls	r2, r2, #10
2000065a:	651a      	str	r2, [r3, #80]	; 0x50
2000065c:	2380      	movs	r3, #128	; 0x80
2000065e:	015b      	lsls	r3, r3, #5
20000660:	421d      	tst	r5, r3
20000662:	d12f      	bne.n	200006c4 <dcd_rp2040_irq+0x1b8>
20000664:	2380      	movs	r3, #128	; 0x80
20000666:	01db      	lsls	r3, r3, #7
20000668:	421d      	tst	r5, r3
2000066a:	d11a      	bne.n	200006a2 <dcd_rp2040_irq+0x196>
2000066c:	2380      	movs	r3, #128	; 0x80
2000066e:	021b      	lsls	r3, r3, #8
20000670:	421d      	tst	r5, r3
20000672:	d104      	bne.n	2000067e <dcd_rp2040_irq+0x172>
20000674:	42ac      	cmp	r4, r5
20000676:	d000      	beq.n	2000067a <dcd_rp2040_irq+0x16e>
20000678:	e1a1      	b.n	200009be <dcd_rp2040_irq+0x4b2>
2000067a:	b004      	add	sp, #16
2000067c:	bd70      	pop	{r4, r5, r6, pc}
2000067e:	ae01      	add	r6, sp, #4
20000680:	220c      	movs	r2, #12
20000682:	2100      	movs	r1, #0
20000684:	0030      	movs	r0, r6
20000686:	431c      	orrs	r4, r3
20000688:	f000 fb96 	bl	20000db8 <____wrap_memset_veneer>
2000068c:	2305      	movs	r3, #5
2000068e:	2101      	movs	r1, #1
20000690:	0030      	movs	r0, r6
20000692:	7073      	strb	r3, [r6, #1]
20000694:	f000 fad8 	bl	20000c48 <dcd_event_handler>
20000698:	2280      	movs	r2, #128	; 0x80
2000069a:	4b7b      	ldr	r3, [pc, #492]	; (20000888 <dcd_rp2040_irq+0x37c>)
2000069c:	0112      	lsls	r2, r2, #4
2000069e:	651a      	str	r2, [r3, #80]	; 0x50
200006a0:	e7e8      	b.n	20000674 <dcd_rp2040_irq+0x168>
200006a2:	ae01      	add	r6, sp, #4
200006a4:	220c      	movs	r2, #12
200006a6:	2100      	movs	r1, #0
200006a8:	0030      	movs	r0, r6
200006aa:	431c      	orrs	r4, r3
200006ac:	f000 fb84 	bl	20000db8 <____wrap_memset_veneer>
200006b0:	2304      	movs	r3, #4
200006b2:	2101      	movs	r1, #1
200006b4:	0030      	movs	r0, r6
200006b6:	7073      	strb	r3, [r6, #1]
200006b8:	f000 fac6 	bl	20000c48 <dcd_event_handler>
200006bc:	2210      	movs	r2, #16
200006be:	4b72      	ldr	r3, [pc, #456]	; (20000888 <dcd_rp2040_irq+0x37c>)
200006c0:	651a      	str	r2, [r3, #80]	; 0x50
200006c2:	e7d3      	b.n	2000066c <dcd_rp2040_irq+0x160>
200006c4:	2200      	movs	r2, #0
200006c6:	431c      	orrs	r4, r3
200006c8:	4b62      	ldr	r3, [pc, #392]	; (20000854 <dcd_rp2040_irq+0x348>)
200006ca:	ae01      	add	r6, sp, #4
200006cc:	601a      	str	r2, [r3, #0]
200006ce:	f7ff fe63 	bl	20000398 <reset_non_control_endpoints>
200006d2:	220c      	movs	r2, #12
200006d4:	2100      	movs	r1, #0
200006d6:	0030      	movs	r0, r6
200006d8:	f000 fb6e 	bl	20000db8 <____wrap_memset_veneer>
200006dc:	2301      	movs	r3, #1
200006de:	2101      	movs	r1, #1
200006e0:	0030      	movs	r0, r6
200006e2:	7073      	strb	r3, [r6, #1]
200006e4:	f000 fab0 	bl	20000c48 <dcd_event_handler>
200006e8:	2280      	movs	r2, #128	; 0x80
200006ea:	4b67      	ldr	r3, [pc, #412]	; (20000888 <dcd_rp2040_irq+0x37c>)
200006ec:	0312      	lsls	r2, r2, #12
200006ee:	651a      	str	r2, [r3, #80]	; 0x50
200006f0:	e7b8      	b.n	20000664 <dcd_rp2040_irq+0x158>
200006f2:	4b68      	ldr	r3, [pc, #416]	; (20000894 <dcd_rp2040_irq+0x388>)
200006f4:	5ce3      	ldrb	r3, [r4, r3]
200006f6:	2b00      	cmp	r3, #0
200006f8:	d100      	bne.n	200006fc <dcd_rp2040_irq+0x1f0>
200006fa:	e763      	b.n	200005c4 <dcd_rp2040_irq+0xb8>
200006fc:	23ef      	movs	r3, #239	; 0xef
200006fe:	009b      	lsls	r3, r3, #2
20000700:	5ce2      	ldrb	r2, [r4, r3]
20000702:	2a00      	cmp	r2, #0
20000704:	d000      	beq.n	20000708 <dcd_rp2040_irq+0x1fc>
20000706:	e153      	b.n	200009b0 <dcd_rp2040_irq+0x4a4>
20000708:	4b5d      	ldr	r3, [pc, #372]	; (20000880 <dcd_rp2040_irq+0x374>)
2000070a:	5ce3      	ldrb	r3, [r4, r3]
2000070c:	2b02      	cmp	r3, #2
2000070e:	d000      	beq.n	20000712 <dcd_rp2040_irq+0x206>
20000710:	e768      	b.n	200005e4 <dcd_rp2040_irq+0xd8>
20000712:	4b61      	ldr	r3, [pc, #388]	; (20000898 <dcd_rp2040_irq+0x38c>)
20000714:	5ce3      	ldrb	r3, [r4, r3]
20000716:	2b00      	cmp	r3, #0
20000718:	d000      	beq.n	2000071c <dcd_rp2040_irq+0x210>
2000071a:	e13c      	b.n	20000996 <dcd_rp2040_irq+0x48a>
2000071c:	e762      	b.n	200005e4 <dcd_rp2040_irq+0xd8>
2000071e:	3338      	adds	r3, #56	; 0x38
20000720:	5ce6      	ldrb	r6, [r4, r3]
20000722:	2e00      	cmp	r6, #0
20000724:	d100      	bne.n	20000728 <dcd_rp2040_irq+0x21c>
20000726:	e703      	b.n	20000530 <dcd_rp2040_irq+0x24>
20000728:	3302      	adds	r3, #2
2000072a:	5ce2      	ldrb	r2, [r4, r3]
2000072c:	2a00      	cmp	r2, #0
2000072e:	d100      	bne.n	20000732 <dcd_rp2040_irq+0x226>
20000730:	e6fe      	b.n	20000530 <dcd_rp2040_irq+0x24>
20000732:	2200      	movs	r2, #0
20000734:	0020      	movs	r0, r4
20000736:	54e2      	strb	r2, [r4, r3]
20000738:	3020      	adds	r0, #32
2000073a:	f000 fa27 	bl	20000b8c <hw_endpoint_start_next_buffer>
2000073e:	e6f7      	b.n	20000530 <dcd_rp2040_irq+0x24>
20000740:	3378      	adds	r3, #120	; 0x78
20000742:	5ce3      	ldrb	r3, [r4, r3]
20000744:	2b00      	cmp	r3, #0
20000746:	d100      	bne.n	2000074a <dcd_rp2040_irq+0x23e>
20000748:	e6f7      	b.n	2000053a <dcd_rp2040_irq+0x2e>
2000074a:	227c      	movs	r2, #124	; 0x7c
2000074c:	5ca1      	ldrb	r1, [r4, r2]
2000074e:	001e      	movs	r6, r3
20000750:	2900      	cmp	r1, #0
20000752:	d100      	bne.n	20000756 <dcd_rp2040_irq+0x24a>
20000754:	e6f1      	b.n	2000053a <dcd_rp2040_irq+0x2e>
20000756:	2300      	movs	r3, #0
20000758:	0020      	movs	r0, r4
2000075a:	54a3      	strb	r3, [r4, r2]
2000075c:	3060      	adds	r0, #96	; 0x60
2000075e:	f000 fa15 	bl	20000b8c <hw_endpoint_start_next_buffer>
20000762:	e6ea      	b.n	2000053a <dcd_rp2040_irq+0x2e>
20000764:	33b8      	adds	r3, #184	; 0xb8
20000766:	5ce3      	ldrb	r3, [r4, r3]
20000768:	2b00      	cmp	r3, #0
2000076a:	d100      	bne.n	2000076e <dcd_rp2040_irq+0x262>
2000076c:	e6ea      	b.n	20000544 <dcd_rp2040_irq+0x38>
2000076e:	22bc      	movs	r2, #188	; 0xbc
20000770:	5ca1      	ldrb	r1, [r4, r2]
20000772:	001e      	movs	r6, r3
20000774:	2900      	cmp	r1, #0
20000776:	d100      	bne.n	2000077a <dcd_rp2040_irq+0x26e>
20000778:	e6e4      	b.n	20000544 <dcd_rp2040_irq+0x38>
2000077a:	2300      	movs	r3, #0
2000077c:	0020      	movs	r0, r4
2000077e:	54a3      	strb	r3, [r4, r2]
20000780:	30a0      	adds	r0, #160	; 0xa0
20000782:	f000 fa03 	bl	20000b8c <hw_endpoint_start_next_buffer>
20000786:	e6dd      	b.n	20000544 <dcd_rp2040_irq+0x38>
20000788:	33f8      	adds	r3, #248	; 0xf8
2000078a:	5ce3      	ldrb	r3, [r4, r3]
2000078c:	2b00      	cmp	r3, #0
2000078e:	d100      	bne.n	20000792 <dcd_rp2040_irq+0x286>
20000790:	e6dd      	b.n	2000054e <dcd_rp2040_irq+0x42>
20000792:	22fc      	movs	r2, #252	; 0xfc
20000794:	5ca1      	ldrb	r1, [r4, r2]
20000796:	001e      	movs	r6, r3
20000798:	2900      	cmp	r1, #0
2000079a:	d100      	bne.n	2000079e <dcd_rp2040_irq+0x292>
2000079c:	e6d7      	b.n	2000054e <dcd_rp2040_irq+0x42>
2000079e:	2300      	movs	r3, #0
200007a0:	0020      	movs	r0, r4
200007a2:	54a3      	strb	r3, [r4, r2]
200007a4:	30e0      	adds	r0, #224	; 0xe0
200007a6:	f000 f9f1 	bl	20000b8c <hw_endpoint_start_next_buffer>
200007aa:	e6d0      	b.n	2000054e <dcd_rp2040_irq+0x42>
200007ac:	3339      	adds	r3, #57	; 0x39
200007ae:	33ff      	adds	r3, #255	; 0xff
200007b0:	5ce3      	ldrb	r3, [r4, r3]
200007b2:	2b00      	cmp	r3, #0
200007b4:	d100      	bne.n	200007b8 <dcd_rp2040_irq+0x2ac>
200007b6:	e6d0      	b.n	2000055a <dcd_rp2040_irq+0x4e>
200007b8:	229e      	movs	r2, #158	; 0x9e
200007ba:	0052      	lsls	r2, r2, #1
200007bc:	5ca1      	ldrb	r1, [r4, r2]
200007be:	001e      	movs	r6, r3
200007c0:	2900      	cmp	r1, #0
200007c2:	d100      	bne.n	200007c6 <dcd_rp2040_irq+0x2ba>
200007c4:	e6c9      	b.n	2000055a <dcd_rp2040_irq+0x4e>
200007c6:	0020      	movs	r0, r4
200007c8:	2300      	movs	r3, #0
200007ca:	3021      	adds	r0, #33	; 0x21
200007cc:	54a3      	strb	r3, [r4, r2]
200007ce:	30ff      	adds	r0, #255	; 0xff
200007d0:	f000 f9dc 	bl	20000b8c <hw_endpoint_start_next_buffer>
200007d4:	e6c1      	b.n	2000055a <dcd_rp2040_irq+0x4e>
200007d6:	3379      	adds	r3, #121	; 0x79
200007d8:	33ff      	adds	r3, #255	; 0xff
200007da:	5ce3      	ldrb	r3, [r4, r3]
200007dc:	2b00      	cmp	r3, #0
200007de:	d100      	bne.n	200007e2 <dcd_rp2040_irq+0x2d6>
200007e0:	e6c1      	b.n	20000566 <dcd_rp2040_irq+0x5a>
200007e2:	22be      	movs	r2, #190	; 0xbe
200007e4:	0052      	lsls	r2, r2, #1
200007e6:	5ca1      	ldrb	r1, [r4, r2]
200007e8:	001e      	movs	r6, r3
200007ea:	2900      	cmp	r1, #0
200007ec:	d100      	bne.n	200007f0 <dcd_rp2040_irq+0x2e4>
200007ee:	e6ba      	b.n	20000566 <dcd_rp2040_irq+0x5a>
200007f0:	0020      	movs	r0, r4
200007f2:	2300      	movs	r3, #0
200007f4:	3061      	adds	r0, #97	; 0x61
200007f6:	54a3      	strb	r3, [r4, r2]
200007f8:	30ff      	adds	r0, #255	; 0xff
200007fa:	f000 f9c7 	bl	20000b8c <hw_endpoint_start_next_buffer>
200007fe:	e6b2      	b.n	20000566 <dcd_rp2040_irq+0x5a>
20000800:	33b9      	adds	r3, #185	; 0xb9
20000802:	33ff      	adds	r3, #255	; 0xff
20000804:	5ce3      	ldrb	r3, [r4, r3]
20000806:	2b00      	cmp	r3, #0
20000808:	d100      	bne.n	2000080c <dcd_rp2040_irq+0x300>
2000080a:	e6b2      	b.n	20000572 <dcd_rp2040_irq+0x66>
2000080c:	22de      	movs	r2, #222	; 0xde
2000080e:	0052      	lsls	r2, r2, #1
20000810:	5ca1      	ldrb	r1, [r4, r2]
20000812:	001e      	movs	r6, r3
20000814:	2900      	cmp	r1, #0
20000816:	d100      	bne.n	2000081a <dcd_rp2040_irq+0x30e>
20000818:	e6ab      	b.n	20000572 <dcd_rp2040_irq+0x66>
2000081a:	0020      	movs	r0, r4
2000081c:	2300      	movs	r3, #0
2000081e:	30a1      	adds	r0, #161	; 0xa1
20000820:	54a3      	strb	r3, [r4, r2]
20000822:	30ff      	adds	r0, #255	; 0xff
20000824:	f000 f9b2 	bl	20000b8c <hw_endpoint_start_next_buffer>
20000828:	e6a3      	b.n	20000572 <dcd_rp2040_irq+0x66>
2000082a:	33f9      	adds	r3, #249	; 0xf9
2000082c:	33ff      	adds	r3, #255	; 0xff
2000082e:	5ce3      	ldrb	r3, [r4, r3]
20000830:	2b00      	cmp	r3, #0
20000832:	d100      	bne.n	20000836 <dcd_rp2040_irq+0x32a>
20000834:	e6a3      	b.n	2000057e <dcd_rp2040_irq+0x72>
20000836:	22fe      	movs	r2, #254	; 0xfe
20000838:	0052      	lsls	r2, r2, #1
2000083a:	5ca1      	ldrb	r1, [r4, r2]
2000083c:	001e      	movs	r6, r3
2000083e:	2900      	cmp	r1, #0
20000840:	d100      	bne.n	20000844 <dcd_rp2040_irq+0x338>
20000842:	e69c      	b.n	2000057e <dcd_rp2040_irq+0x72>
20000844:	0020      	movs	r0, r4
20000846:	2300      	movs	r3, #0
20000848:	30e1      	adds	r0, #225	; 0xe1
2000084a:	54a3      	strb	r3, [r4, r2]
2000084c:	30ff      	adds	r0, #255	; 0xff
2000084e:	f000 f99d 	bl	20000b8c <hw_endpoint_start_next_buffer>
20000852:	e694      	b.n	2000057e <dcd_rp2040_irq+0x72>
20000854:	50110000 	.word	0x50110000
20000858:	40054000 	.word	0x40054000
2000085c:	20001df8 	.word	0x20001df8
20000860:	20001dec 	.word	0x20001dec
20000864:	0000023b 	.word	0x0000023b
20000868:	0000027b 	.word	0x0000027b
2000086c:	000002bb 	.word	0x000002bb
20000870:	000002fb 	.word	0x000002fb
20000874:	0000033b 	.word	0x0000033b
20000878:	0000037b 	.word	0x0000037b
2000087c:	000003bb 	.word	0x000003bb
20000880:	000003fb 	.word	0x000003fb
20000884:	20002256 	.word	0x20002256
20000888:	50113000 	.word	0x50113000
2000088c:	00020010 	.word	0x00020010
20000890:	50100000 	.word	0x50100000
20000894:	000003ba 	.word	0x000003ba
20000898:	000003fa 	.word	0x000003fa
2000089c:	4b4a      	ldr	r3, [pc, #296]	; (200009c8 <dcd_rp2040_irq+0x4bc>)
2000089e:	5ce3      	ldrb	r3, [r4, r3]
200008a0:	2b00      	cmp	r3, #0
200008a2:	d100      	bne.n	200008a6 <dcd_rp2040_irq+0x39a>
200008a4:	e670      	b.n	20000588 <dcd_rp2040_irq+0x7c>
200008a6:	228f      	movs	r2, #143	; 0x8f
200008a8:	0092      	lsls	r2, r2, #2
200008aa:	5ca1      	ldrb	r1, [r4, r2]
200008ac:	001e      	movs	r6, r3
200008ae:	2900      	cmp	r1, #0
200008b0:	d100      	bne.n	200008b4 <dcd_rp2040_irq+0x3a8>
200008b2:	e669      	b.n	20000588 <dcd_rp2040_irq+0x7c>
200008b4:	2300      	movs	r3, #0
200008b6:	54a3      	strb	r3, [r4, r2]
200008b8:	2388      	movs	r3, #136	; 0x88
200008ba:	009b      	lsls	r3, r3, #2
200008bc:	18e0      	adds	r0, r4, r3
200008be:	f000 f965 	bl	20000b8c <hw_endpoint_start_next_buffer>
200008c2:	e661      	b.n	20000588 <dcd_rp2040_irq+0x7c>
200008c4:	4b41      	ldr	r3, [pc, #260]	; (200009cc <dcd_rp2040_irq+0x4c0>)
200008c6:	5ce3      	ldrb	r3, [r4, r3]
200008c8:	2b00      	cmp	r3, #0
200008ca:	d100      	bne.n	200008ce <dcd_rp2040_irq+0x3c2>
200008cc:	e661      	b.n	20000592 <dcd_rp2040_irq+0x86>
200008ce:	229f      	movs	r2, #159	; 0x9f
200008d0:	0092      	lsls	r2, r2, #2
200008d2:	5ca1      	ldrb	r1, [r4, r2]
200008d4:	001e      	movs	r6, r3
200008d6:	2900      	cmp	r1, #0
200008d8:	d100      	bne.n	200008dc <dcd_rp2040_irq+0x3d0>
200008da:	e65a      	b.n	20000592 <dcd_rp2040_irq+0x86>
200008dc:	2300      	movs	r3, #0
200008de:	54a3      	strb	r3, [r4, r2]
200008e0:	2398      	movs	r3, #152	; 0x98
200008e2:	009b      	lsls	r3, r3, #2
200008e4:	18e0      	adds	r0, r4, r3
200008e6:	f000 f951 	bl	20000b8c <hw_endpoint_start_next_buffer>
200008ea:	e652      	b.n	20000592 <dcd_rp2040_irq+0x86>
200008ec:	4b38      	ldr	r3, [pc, #224]	; (200009d0 <dcd_rp2040_irq+0x4c4>)
200008ee:	5ce3      	ldrb	r3, [r4, r3]
200008f0:	2b00      	cmp	r3, #0
200008f2:	d100      	bne.n	200008f6 <dcd_rp2040_irq+0x3ea>
200008f4:	e652      	b.n	2000059c <dcd_rp2040_irq+0x90>
200008f6:	22af      	movs	r2, #175	; 0xaf
200008f8:	0092      	lsls	r2, r2, #2
200008fa:	5ca1      	ldrb	r1, [r4, r2]
200008fc:	001e      	movs	r6, r3
200008fe:	2900      	cmp	r1, #0
20000900:	d100      	bne.n	20000904 <dcd_rp2040_irq+0x3f8>
20000902:	e64b      	b.n	2000059c <dcd_rp2040_irq+0x90>
20000904:	2300      	movs	r3, #0
20000906:	54a3      	strb	r3, [r4, r2]
20000908:	23a8      	movs	r3, #168	; 0xa8
2000090a:	009b      	lsls	r3, r3, #2
2000090c:	18e0      	adds	r0, r4, r3
2000090e:	f000 f93d 	bl	20000b8c <hw_endpoint_start_next_buffer>
20000912:	e643      	b.n	2000059c <dcd_rp2040_irq+0x90>
20000914:	4b2f      	ldr	r3, [pc, #188]	; (200009d4 <dcd_rp2040_irq+0x4c8>)
20000916:	5ce3      	ldrb	r3, [r4, r3]
20000918:	2b00      	cmp	r3, #0
2000091a:	d100      	bne.n	2000091e <dcd_rp2040_irq+0x412>
2000091c:	e64d      	b.n	200005ba <dcd_rp2040_irq+0xae>
2000091e:	22df      	movs	r2, #223	; 0xdf
20000920:	0092      	lsls	r2, r2, #2
20000922:	5ca1      	ldrb	r1, [r4, r2]
20000924:	001e      	movs	r6, r3
20000926:	2900      	cmp	r1, #0
20000928:	d100      	bne.n	2000092c <dcd_rp2040_irq+0x420>
2000092a:	e646      	b.n	200005ba <dcd_rp2040_irq+0xae>
2000092c:	2300      	movs	r3, #0
2000092e:	54a3      	strb	r3, [r4, r2]
20000930:	23d8      	movs	r3, #216	; 0xd8
20000932:	009b      	lsls	r3, r3, #2
20000934:	18e0      	adds	r0, r4, r3
20000936:	f000 f929 	bl	20000b8c <hw_endpoint_start_next_buffer>
2000093a:	e63e      	b.n	200005ba <dcd_rp2040_irq+0xae>
2000093c:	4b26      	ldr	r3, [pc, #152]	; (200009d8 <dcd_rp2040_irq+0x4cc>)
2000093e:	5ce3      	ldrb	r3, [r4, r3]
20000940:	2b00      	cmp	r3, #0
20000942:	d100      	bne.n	20000946 <dcd_rp2040_irq+0x43a>
20000944:	e62f      	b.n	200005a6 <dcd_rp2040_irq+0x9a>
20000946:	22bf      	movs	r2, #191	; 0xbf
20000948:	0092      	lsls	r2, r2, #2
2000094a:	5ca1      	ldrb	r1, [r4, r2]
2000094c:	001e      	movs	r6, r3
2000094e:	2900      	cmp	r1, #0
20000950:	d100      	bne.n	20000954 <dcd_rp2040_irq+0x448>
20000952:	e628      	b.n	200005a6 <dcd_rp2040_irq+0x9a>
20000954:	2300      	movs	r3, #0
20000956:	54a3      	strb	r3, [r4, r2]
20000958:	23b8      	movs	r3, #184	; 0xb8
2000095a:	009b      	lsls	r3, r3, #2
2000095c:	18e0      	adds	r0, r4, r3
2000095e:	f000 f915 	bl	20000b8c <hw_endpoint_start_next_buffer>
20000962:	e620      	b.n	200005a6 <dcd_rp2040_irq+0x9a>
20000964:	4b1d      	ldr	r3, [pc, #116]	; (200009dc <dcd_rp2040_irq+0x4d0>)
20000966:	5ce3      	ldrb	r3, [r4, r3]
20000968:	2b00      	cmp	r3, #0
2000096a:	d100      	bne.n	2000096e <dcd_rp2040_irq+0x462>
2000096c:	e620      	b.n	200005b0 <dcd_rp2040_irq+0xa4>
2000096e:	22cf      	movs	r2, #207	; 0xcf
20000970:	0092      	lsls	r2, r2, #2
20000972:	5ca1      	ldrb	r1, [r4, r2]
20000974:	001e      	movs	r6, r3
20000976:	2900      	cmp	r1, #0
20000978:	d100      	bne.n	2000097c <dcd_rp2040_irq+0x470>
2000097a:	e619      	b.n	200005b0 <dcd_rp2040_irq+0xa4>
2000097c:	2300      	movs	r3, #0
2000097e:	54a3      	strb	r3, [r4, r2]
20000980:	23c8      	movs	r3, #200	; 0xc8
20000982:	009b      	lsls	r3, r3, #2
20000984:	18e0      	adds	r0, r4, r3
20000986:	f000 f901 	bl	20000b8c <hw_endpoint_start_next_buffer>
2000098a:	e611      	b.n	200005b0 <dcd_rp2040_irq+0xa4>
2000098c:	4b14      	ldr	r3, [pc, #80]	; (200009e0 <dcd_rp2040_irq+0x4d4>)
2000098e:	5ce3      	ldrb	r3, [r4, r3]
20000990:	2b00      	cmp	r3, #0
20000992:	d100      	bne.n	20000996 <dcd_rp2040_irq+0x48a>
20000994:	e61b      	b.n	200005ce <dcd_rp2040_irq+0xc2>
20000996:	23ff      	movs	r3, #255	; 0xff
20000998:	009b      	lsls	r3, r3, #2
2000099a:	5ce2      	ldrb	r2, [r4, r3]
2000099c:	2a00      	cmp	r2, #0
2000099e:	d100      	bne.n	200009a2 <dcd_rp2040_irq+0x496>
200009a0:	e620      	b.n	200005e4 <dcd_rp2040_irq+0xd8>
200009a2:	2200      	movs	r2, #0
200009a4:	54e2      	strb	r2, [r4, r3]
200009a6:	3b1c      	subs	r3, #28
200009a8:	18e0      	adds	r0, r4, r3
200009aa:	f000 f8ef 	bl	20000b8c <hw_endpoint_start_next_buffer>
200009ae:	e619      	b.n	200005e4 <dcd_rp2040_irq+0xd8>
200009b0:	2200      	movs	r2, #0
200009b2:	54e2      	strb	r2, [r4, r3]
200009b4:	3b1c      	subs	r3, #28
200009b6:	18e0      	adds	r0, r4, r3
200009b8:	f000 f8e8 	bl	20000b8c <hw_endpoint_start_next_buffer>
200009bc:	e6a4      	b.n	20000708 <dcd_rp2040_irq+0x1fc>
200009be:	0021      	movs	r1, r4
200009c0:	4808      	ldr	r0, [pc, #32]	; (200009e4 <dcd_rp2040_irq+0x4d8>)
200009c2:	4069      	eors	r1, r5
200009c4:	f000 fa18 	bl	20000df8 <__panic_veneer>
200009c8:	0000023a 	.word	0x0000023a
200009cc:	0000027a 	.word	0x0000027a
200009d0:	000002ba 	.word	0x000002ba
200009d4:	0000037a 	.word	0x0000037a
200009d8:	000002fa 	.word	0x000002fa
200009dc:	0000033a 	.word	0x0000033a
200009e0:	000003fa 	.word	0x000003fa
200009e4:	100061ac 	.word	0x100061ac

200009e8 <prepare_ep_buffer>:
200009e8:	b5f8      	push	{r3, r4, r5, r6, r7, lr}
200009ea:	8b02      	ldrh	r2, [r0, #24]
200009ec:	8a83      	ldrh	r3, [r0, #20]
200009ee:	0005      	movs	r5, r0
200009f0:	000f      	movs	r7, r1
200009f2:	1c16      	adds	r6, r2, #0
200009f4:	429a      	cmp	r2, r3
200009f6:	d900      	bls.n	200009fa <prepare_ep_buffer+0x12>
200009f8:	1c1e      	adds	r6, r3, #0
200009fa:	78ea      	ldrb	r2, [r5, #3]
200009fc:	2180      	movs	r1, #128	; 0x80
200009fe:	0014      	movs	r4, r2
20000a00:	1e60      	subs	r0, r4, #1
20000a02:	4184      	sbcs	r4, r0
20000a04:	b2b6      	uxth	r6, r6
20000a06:	00c9      	lsls	r1, r1, #3
20000a08:	4331      	orrs	r1, r6
20000a0a:	0364      	lsls	r4, r4, #13
20000a0c:	430c      	orrs	r4, r1
20000a0e:	2101      	movs	r1, #1
20000a10:	404a      	eors	r2, r1
20000a12:	1b9b      	subs	r3, r3, r6
20000a14:	70ea      	strb	r2, [r5, #3]
20000a16:	786a      	ldrb	r2, [r5, #1]
20000a18:	b29b      	uxth	r3, r3
20000a1a:	82ab      	strh	r3, [r5, #20]
20000a1c:	2a00      	cmp	r2, #0
20000a1e:	d009      	beq.n	20000a34 <prepare_ep_buffer+0x4c>
20000a20:	2b00      	cmp	r3, #0
20000a22:	d102      	bne.n	20000a2a <prepare_ep_buffer+0x42>
20000a24:	2380      	movs	r3, #128	; 0x80
20000a26:	01db      	lsls	r3, r3, #7
20000a28:	431c      	orrs	r4, r3
20000a2a:	2f00      	cmp	r7, #0
20000a2c:	d000      	beq.n	20000a30 <prepare_ep_buffer+0x48>
20000a2e:	0424      	lsls	r4, r4, #16
20000a30:	0020      	movs	r0, r4
20000a32:	bdf8      	pop	{r3, r4, r5, r6, r7, pc}
20000a34:	68eb      	ldr	r3, [r5, #12]
20000a36:	01b8      	lsls	r0, r7, #6
20000a38:	469c      	mov	ip, r3
20000a3a:	0032      	movs	r2, r6
20000a3c:	4460      	add	r0, ip
20000a3e:	6929      	ldr	r1, [r5, #16]
20000a40:	f000 f9d2 	bl	20000de8 <____wrap_memcpy_veneer>
20000a44:	692b      	ldr	r3, [r5, #16]
20000a46:	469c      	mov	ip, r3
20000a48:	2380      	movs	r3, #128	; 0x80
20000a4a:	4466      	add	r6, ip
20000a4c:	021b      	lsls	r3, r3, #8
20000a4e:	431c      	orrs	r4, r3
20000a50:	612e      	str	r6, [r5, #16]
20000a52:	8aab      	ldrh	r3, [r5, #20]
20000a54:	e7e4      	b.n	20000a20 <prepare_ep_buffer+0x38>
20000a56:	46c0      	nop			; (mov r8, r8)

20000a58 <sync_ep_buffer>:
20000a58:	6883      	ldr	r3, [r0, #8]
20000a5a:	b570      	push	{r4, r5, r6, lr}
20000a5c:	0005      	movs	r5, r0
20000a5e:	681c      	ldr	r4, [r3, #0]
20000a60:	2900      	cmp	r1, #0
20000a62:	d000      	beq.n	20000a66 <sync_ep_buffer+0xe>
20000a64:	0c24      	lsrs	r4, r4, #16
20000a66:	786b      	ldrb	r3, [r5, #1]
20000a68:	05a4      	lsls	r4, r4, #22
20000a6a:	0da4      	lsrs	r4, r4, #22
20000a6c:	2b00      	cmp	r3, #0
20000a6e:	d109      	bne.n	20000a84 <sync_ep_buffer+0x2c>
20000a70:	8aeb      	ldrh	r3, [r5, #22]
20000a72:	18e3      	adds	r3, r4, r3
20000a74:	82eb      	strh	r3, [r5, #22]
20000a76:	8b2b      	ldrh	r3, [r5, #24]
20000a78:	42a3      	cmp	r3, r4
20000a7a:	d901      	bls.n	20000a80 <sync_ep_buffer+0x28>
20000a7c:	2300      	movs	r3, #0
20000a7e:	82ab      	strh	r3, [r5, #20]
20000a80:	0020      	movs	r0, r4
20000a82:	bd70      	pop	{r4, r5, r6, pc}
20000a84:	68eb      	ldr	r3, [r5, #12]
20000a86:	0189      	lsls	r1, r1, #6
20000a88:	469c      	mov	ip, r3
20000a8a:	0022      	movs	r2, r4
20000a8c:	4461      	add	r1, ip
20000a8e:	6928      	ldr	r0, [r5, #16]
20000a90:	f000 f9aa 	bl	20000de8 <____wrap_memcpy_veneer>
20000a94:	8aeb      	ldrh	r3, [r5, #22]
20000a96:	18e3      	adds	r3, r4, r3
20000a98:	82eb      	strh	r3, [r5, #22]
20000a9a:	692b      	ldr	r3, [r5, #16]
20000a9c:	191b      	adds	r3, r3, r4
20000a9e:	612b      	str	r3, [r5, #16]
20000aa0:	e7e9      	b.n	20000a76 <sync_ep_buffer+0x1e>
20000aa2:	46c0      	nop			; (mov r8, r8)

20000aa4 <_hw_endpoint_xfer_sync>:
20000aa4:	b510      	push	{r4, lr}
20000aa6:	0004      	movs	r4, r0
20000aa8:	6883      	ldr	r3, [r0, #8]
20000aaa:	2100      	movs	r1, #0
20000aac:	681b      	ldr	r3, [r3, #0]
20000aae:	f7ff ffd3 	bl	20000a58 <sync_ep_buffer>
20000ab2:	6863      	ldr	r3, [r4, #4]
20000ab4:	681b      	ldr	r3, [r3, #0]
20000ab6:	005b      	lsls	r3, r3, #1
20000ab8:	d502      	bpl.n	20000ac0 <_hw_endpoint_xfer_sync+0x1c>
20000aba:	8b23      	ldrh	r3, [r4, #24]
20000abc:	4283      	cmp	r3, r0
20000abe:	d000      	beq.n	20000ac2 <_hw_endpoint_xfer_sync+0x1e>
20000ac0:	bd10      	pop	{r4, pc}
20000ac2:	2101      	movs	r1, #1
20000ac4:	0020      	movs	r0, r4
20000ac6:	f7ff ffc7 	bl	20000a58 <sync_ep_buffer>
20000aca:	e7f9      	b.n	20000ac0 <_hw_endpoint_xfer_sync+0x1c>

20000acc <e15_is_bulkin_ep.isra.0>:
20000acc:	4b07      	ldr	r3, [pc, #28]	; (20000aec <e15_is_bulkin_ep.isra.0+0x20>)
20000ace:	6c1a      	ldr	r2, [r3, #64]	; 0x40
20000ad0:	2300      	movs	r3, #0
20000ad2:	0792      	lsls	r2, r2, #30
20000ad4:	d402      	bmi.n	20000adc <e15_is_bulkin_ep.isra.0+0x10>
20000ad6:	7802      	ldrb	r2, [r0, #0]
20000ad8:	2a7f      	cmp	r2, #127	; 0x7f
20000ada:	d801      	bhi.n	20000ae0 <e15_is_bulkin_ep.isra.0+0x14>
20000adc:	0018      	movs	r0, r3
20000ade:	4770      	bx	lr
20000ae0:	780b      	ldrb	r3, [r1, #0]
20000ae2:	3b02      	subs	r3, #2
20000ae4:	4258      	negs	r0, r3
20000ae6:	4143      	adcs	r3, r0
20000ae8:	b2db      	uxtb	r3, r3
20000aea:	e7f7      	b.n	20000adc <e15_is_bulkin_ep.isra.0+0x10>
20000aec:	50110000 	.word	0x50110000

20000af0 <e15_is_critical_frame_period>:
20000af0:	0001      	movs	r1, r0
20000af2:	b510      	push	{r4, lr}
20000af4:	311b      	adds	r1, #27
20000af6:	3002      	adds	r0, #2
20000af8:	f7ff ffe8 	bl	20000acc <e15_is_bulkin_ep.isra.0>
20000afc:	2800      	cmp	r0, #0
20000afe:	d00c      	beq.n	20000b1a <e15_is_critical_frame_period+0x2a>
20000b00:	4906      	ldr	r1, [pc, #24]	; (20000b1c <e15_is_critical_frame_period+0x2c>)
20000b02:	4b07      	ldr	r3, [pc, #28]	; (20000b20 <e15_is_critical_frame_period+0x30>)
20000b04:	468c      	mov	ip, r1
20000b06:	4a07      	ldr	r2, [pc, #28]	; (20000b24 <e15_is_critical_frame_period+0x34>)
20000b08:	6a9b      	ldr	r3, [r3, #40]	; 0x28
20000b0a:	6812      	ldr	r2, [r2, #0]
20000b0c:	4463      	add	r3, ip
20000b0e:	1a9b      	subs	r3, r3, r2
20000b10:	2000      	movs	r0, #0
20000b12:	22c6      	movs	r2, #198	; 0xc6
20000b14:	429a      	cmp	r2, r3
20000b16:	4140      	adcs	r0, r0
20000b18:	b2c0      	uxtb	r0, r0
20000b1a:	bd10      	pop	{r4, pc}
20000b1c:	fffffce0 	.word	0xfffffce0
20000b20:	40054000 	.word	0x40054000
20000b24:	20001dec 	.word	0x20001dec

20000b28 <hw_endpoint_reset_transfer>:
20000b28:	2300      	movs	r3, #0
20000b2a:	7683      	strb	r3, [r0, #26]
20000b2c:	6143      	str	r3, [r0, #20]
20000b2e:	6103      	str	r3, [r0, #16]
20000b30:	4770      	bx	lr
20000b32:	46c0      	nop			; (mov r8, r8)

20000b34 <_hw_endpoint_buffer_control_update32>:
20000b34:	b510      	push	{r4, lr}
20000b36:	6883      	ldr	r3, [r0, #8]
20000b38:	2900      	cmp	r1, #0
20000b3a:	d001      	beq.n	20000b40 <_hw_endpoint_buffer_control_update32+0xc>
20000b3c:	681c      	ldr	r4, [r3, #0]
20000b3e:	4021      	ands	r1, r4
20000b40:	2a00      	cmp	r2, #0
20000b42:	d011      	beq.n	20000b68 <_hw_endpoint_buffer_control_update32+0x34>
20000b44:	2480      	movs	r4, #128	; 0x80
20000b46:	00e4      	lsls	r4, r4, #3
20000b48:	4311      	orrs	r1, r2
20000b4a:	4222      	tst	r2, r4
20000b4c:	d00c      	beq.n	20000b68 <_hw_endpoint_buffer_control_update32+0x34>
20000b4e:	681a      	ldr	r2, [r3, #0]
20000b50:	4222      	tst	r2, r4
20000b52:	d10b      	bne.n	20000b6c <_hw_endpoint_buffer_control_update32+0x38>
20000b54:	4a0a      	ldr	r2, [pc, #40]	; (20000b80 <_hw_endpoint_buffer_control_update32+0x4c>)
20000b56:	400a      	ands	r2, r1
20000b58:	601a      	str	r2, [r3, #0]
20000b5a:	e7ff      	b.n	20000b5c <_hw_endpoint_buffer_control_update32+0x28>
20000b5c:	e7ff      	b.n	20000b5e <_hw_endpoint_buffer_control_update32+0x2a>
20000b5e:	e7ff      	b.n	20000b60 <_hw_endpoint_buffer_control_update32+0x2c>
20000b60:	e7ff      	b.n	20000b62 <_hw_endpoint_buffer_control_update32+0x2e>
20000b62:	e7ff      	b.n	20000b64 <_hw_endpoint_buffer_control_update32+0x30>
20000b64:	e7ff      	b.n	20000b66 <_hw_endpoint_buffer_control_update32+0x32>
20000b66:	6883      	ldr	r3, [r0, #8]
20000b68:	6019      	str	r1, [r3, #0]
20000b6a:	bd10      	pop	{r4, pc}
20000b6c:	227f      	movs	r2, #127	; 0x7f
20000b6e:	7881      	ldrb	r1, [r0, #2]
20000b70:	4804      	ldr	r0, [pc, #16]	; (20000b84 <_hw_endpoint_buffer_control_update32+0x50>)
20000b72:	09cb      	lsrs	r3, r1, #7
20000b74:	4011      	ands	r1, r2
20000b76:	4a04      	ldr	r2, [pc, #16]	; (20000b88 <_hw_endpoint_buffer_control_update32+0x54>)
20000b78:	009b      	lsls	r3, r3, #2
20000b7a:	589a      	ldr	r2, [r3, r2]
20000b7c:	f000 f93c 	bl	20000df8 <__panic_veneer>
20000b80:	fffffbff 	.word	0xfffffbff
20000b84:	100061c0 	.word	0x100061c0
20000b88:	20000ed8 	.word	0x20000ed8

20000b8c <hw_endpoint_start_next_buffer>:
20000b8c:	6843      	ldr	r3, [r0, #4]
20000b8e:	b570      	push	{r4, r5, r6, lr}
20000b90:	2100      	movs	r1, #0
20000b92:	2580      	movs	r5, #128	; 0x80
20000b94:	681e      	ldr	r6, [r3, #0]
20000b96:	0004      	movs	r4, r0
20000b98:	f7ff ff26 	bl	200009e8 <prepare_ep_buffer>
20000b9c:	4b13      	ldr	r3, [pc, #76]	; (20000bec <hw_endpoint_start_next_buffer+0x60>)
20000b9e:	016d      	lsls	r5, r5, #5
20000ba0:	6c1b      	ldr	r3, [r3, #64]	; 0x40
20000ba2:	4305      	orrs	r5, r0
20000ba4:	079b      	lsls	r3, r3, #30
20000ba6:	d50f      	bpl.n	20000bc8 <hw_endpoint_start_next_buffer+0x3c>
20000ba8:	78a3      	ldrb	r3, [r4, #2]
20000baa:	065b      	lsls	r3, r3, #25
20000bac:	d00f      	beq.n	20000bce <hw_endpoint_start_next_buffer+0x42>
20000bae:	4b10      	ldr	r3, [pc, #64]	; (20000bf0 <hw_endpoint_start_next_buffer+0x64>)
20000bb0:	401e      	ands	r6, r3
20000bb2:	2380      	movs	r3, #128	; 0x80
20000bb4:	059b      	lsls	r3, r3, #22
20000bb6:	4333      	orrs	r3, r6
20000bb8:	6862      	ldr	r2, [r4, #4]
20000bba:	2100      	movs	r1, #0
20000bbc:	6013      	str	r3, [r2, #0]
20000bbe:	0020      	movs	r0, r4
20000bc0:	002a      	movs	r2, r5
20000bc2:	f7ff ffb7 	bl	20000b34 <_hw_endpoint_buffer_control_update32>
20000bc6:	bd70      	pop	{r4, r5, r6, pc}
20000bc8:	78a3      	ldrb	r3, [r4, #2]
20000bca:	2b7f      	cmp	r3, #127	; 0x7f
20000bcc:	d9ef      	bls.n	20000bae <hw_endpoint_start_next_buffer+0x22>
20000bce:	8aa3      	ldrh	r3, [r4, #20]
20000bd0:	2b00      	cmp	r3, #0
20000bd2:	d0ec      	beq.n	20000bae <hw_endpoint_start_next_buffer+0x22>
20000bd4:	2101      	movs	r1, #1
20000bd6:	0020      	movs	r0, r4
20000bd8:	f7ff ff06 	bl	200009e8 <prepare_ep_buffer>
20000bdc:	4b05      	ldr	r3, [pc, #20]	; (20000bf4 <hw_endpoint_start_next_buffer+0x68>)
20000bde:	4305      	orrs	r5, r0
20000be0:	401e      	ands	r6, r3
20000be2:	23a0      	movs	r3, #160	; 0xa0
20000be4:	05db      	lsls	r3, r3, #23
20000be6:	4333      	orrs	r3, r6
20000be8:	e7e6      	b.n	20000bb8 <hw_endpoint_start_next_buffer+0x2c>
20000bea:	46c0      	nop			; (mov r8, r8)
20000bec:	50110000 	.word	0x50110000
20000bf0:	afffffff 	.word	0xafffffff
20000bf4:	dfffffff 	.word	0xdfffffff

20000bf8 <hw_endpoint_xfer_continue>:
20000bf8:	b570      	push	{r4, r5, r6, lr}
20000bfa:	7e85      	ldrb	r5, [r0, #26]
20000bfc:	0004      	movs	r4, r0
20000bfe:	2d00      	cmp	r5, #0
20000c00:	d013      	beq.n	20000c2a <hw_endpoint_xfer_continue+0x32>
20000c02:	f7ff ff4f 	bl	20000aa4 <_hw_endpoint_xfer_sync>
20000c06:	8aa3      	ldrh	r3, [r4, #20]
20000c08:	2b00      	cmp	r3, #0
20000c0a:	d101      	bne.n	20000c10 <hw_endpoint_xfer_continue+0x18>
20000c0c:	0028      	movs	r0, r5
20000c0e:	bd70      	pop	{r4, r5, r6, pc}
20000c10:	0020      	movs	r0, r4
20000c12:	f7ff ff6d 	bl	20000af0 <e15_is_critical_frame_period>
20000c16:	1e05      	subs	r5, r0, #0
20000c18:	d003      	beq.n	20000c22 <hw_endpoint_xfer_continue+0x2a>
20000c1a:	2301      	movs	r3, #1
20000c1c:	2500      	movs	r5, #0
20000c1e:	7723      	strb	r3, [r4, #28]
20000c20:	e7f4      	b.n	20000c0c <hw_endpoint_xfer_continue+0x14>
20000c22:	0020      	movs	r0, r4
20000c24:	f7ff ffb2 	bl	20000b8c <hw_endpoint_start_next_buffer>
20000c28:	e7f0      	b.n	20000c0c <hw_endpoint_xfer_continue+0x14>
20000c2a:	227f      	movs	r2, #127	; 0x7f
20000c2c:	7881      	ldrb	r1, [r0, #2]
20000c2e:	4804      	ldr	r0, [pc, #16]	; (20000c40 <hw_endpoint_xfer_continue+0x48>)
20000c30:	09cb      	lsrs	r3, r1, #7
20000c32:	4011      	ands	r1, r2
20000c34:	4a03      	ldr	r2, [pc, #12]	; (20000c44 <hw_endpoint_xfer_continue+0x4c>)
20000c36:	009b      	lsls	r3, r3, #2
20000c38:	589a      	ldr	r2, [r3, r2]
20000c3a:	f000 f8dd 	bl	20000df8 <__panic_veneer>
20000c3e:	46c0      	nop			; (mov r8, r8)
20000c40:	100061e0 	.word	0x100061e0
20000c44:	20000ed8 	.word	0x20000ed8

20000c48 <dcd_event_handler>:
20000c48:	b5f0      	push	{r4, r5, r6, r7, lr}
20000c4a:	7843      	ldrb	r3, [r0, #1]
20000c4c:	b085      	sub	sp, #20
20000c4e:	0005      	movs	r5, r0
20000c50:	2b03      	cmp	r3, #3
20000c52:	d100      	bne.n	20000c56 <dcd_event_handler+0xe>
20000c54:	e05c      	b.n	20000d10 <dcd_event_handler+0xc8>
20000c56:	d927      	bls.n	20000ca8 <dcd_event_handler+0x60>
20000c58:	2b04      	cmp	r3, #4
20000c5a:	d013      	beq.n	20000c84 <dcd_event_handler+0x3c>
20000c5c:	2b05      	cmp	r3, #5
20000c5e:	d14d      	bne.n	20000cfc <dcd_event_handler+0xb4>
20000c60:	4b4e      	ldr	r3, [pc, #312]	; (20000d9c <dcd_event_handler+0x154>)
20000c62:	781a      	ldrb	r2, [r3, #0]
20000c64:	07d2      	lsls	r2, r2, #31
20000c66:	d547      	bpl.n	20000cf8 <dcd_event_handler+0xb0>
20000c68:	2104      	movs	r1, #4
20000c6a:	781a      	ldrb	r2, [r3, #0]
20000c6c:	438a      	bics	r2, r1
20000c6e:	701a      	strb	r2, [r3, #0]
20000c70:	4b4b      	ldr	r3, [pc, #300]	; (20000da0 <dcd_event_handler+0x158>)
20000c72:	681c      	ldr	r4, [r3, #0]
20000c74:	6962      	ldr	r2, [r4, #20]
20000c76:	f3ef 8110 	mrs	r1, PRIMASK
20000c7a:	b672      	cpsid	i
20000c7c:	6813      	ldr	r3, [r2, #0]
20000c7e:	2b00      	cmp	r3, #0
20000c80:	d12b      	bne.n	20000cda <dcd_event_handler+0x92>
20000c82:	e7fb      	b.n	20000c7c <dcd_event_handler+0x34>
20000c84:	4b45      	ldr	r3, [pc, #276]	; (20000d9c <dcd_event_handler+0x154>)
20000c86:	781a      	ldrb	r2, [r3, #0]
20000c88:	07d2      	lsls	r2, r2, #31
20000c8a:	d535      	bpl.n	20000cf8 <dcd_event_handler+0xb0>
20000c8c:	2104      	movs	r1, #4
20000c8e:	781a      	ldrb	r2, [r3, #0]
20000c90:	430a      	orrs	r2, r1
20000c92:	701a      	strb	r2, [r3, #0]
20000c94:	4b42      	ldr	r3, [pc, #264]	; (20000da0 <dcd_event_handler+0x158>)
20000c96:	681c      	ldr	r4, [r3, #0]
20000c98:	6962      	ldr	r2, [r4, #20]
20000c9a:	f3ef 8110 	mrs	r1, PRIMASK
20000c9e:	b672      	cpsid	i
20000ca0:	6813      	ldr	r3, [r2, #0]
20000ca2:	2b00      	cmp	r3, #0
20000ca4:	d119      	bne.n	20000cda <dcd_event_handler+0x92>
20000ca6:	e7fb      	b.n	20000ca0 <dcd_event_handler+0x58>
20000ca8:	2b02      	cmp	r3, #2
20000caa:	d127      	bne.n	20000cfc <dcd_event_handler+0xb4>
20000cac:	2001      	movs	r0, #1
20000cae:	4a3b      	ldr	r2, [pc, #236]	; (20000d9c <dcd_event_handler+0x154>)
20000cb0:	7811      	ldrb	r1, [r2, #0]
20000cb2:	4381      	bics	r1, r0
20000cb4:	7011      	strb	r1, [r2, #0]
20000cb6:	7811      	ldrb	r1, [r2, #0]
20000cb8:	4399      	bics	r1, r3
20000cba:	2300      	movs	r3, #0
20000cbc:	7011      	strb	r1, [r2, #0]
20000cbe:	2104      	movs	r1, #4
20000cc0:	7053      	strb	r3, [r2, #1]
20000cc2:	7813      	ldrb	r3, [r2, #0]
20000cc4:	438b      	bics	r3, r1
20000cc6:	7013      	strb	r3, [r2, #0]
20000cc8:	4b35      	ldr	r3, [pc, #212]	; (20000da0 <dcd_event_handler+0x158>)
20000cca:	681c      	ldr	r4, [r3, #0]
20000ccc:	6962      	ldr	r2, [r4, #20]
20000cce:	f3ef 8110 	mrs	r1, PRIMASK
20000cd2:	b672      	cpsid	i
20000cd4:	6813      	ldr	r3, [r2, #0]
20000cd6:	2b00      	cmp	r3, #0
20000cd8:	d0fc      	beq.n	20000cd4 <dcd_event_handler+0x8c>
20000cda:	f3bf 8f5f 	dmb	sy
20000cde:	61a1      	str	r1, [r4, #24]
20000ce0:	0029      	movs	r1, r5
20000ce2:	0020      	movs	r0, r4
20000ce4:	f000 f878 	bl	20000dd8 <__tu_fifo_write_veneer>
20000ce8:	6962      	ldr	r2, [r4, #20]
20000cea:	69a3      	ldr	r3, [r4, #24]
20000cec:	f3bf 8f5f 	dmb	sy
20000cf0:	2100      	movs	r1, #0
20000cf2:	6011      	str	r1, [r2, #0]
20000cf4:	f383 8810 	msr	PRIMASK, r3
20000cf8:	b005      	add	sp, #20
20000cfa:	bdf0      	pop	{r4, r5, r6, r7, pc}
20000cfc:	4b28      	ldr	r3, [pc, #160]	; (20000da0 <dcd_event_handler+0x158>)
20000cfe:	681c      	ldr	r4, [r3, #0]
20000d00:	6962      	ldr	r2, [r4, #20]
20000d02:	f3ef 8110 	mrs	r1, PRIMASK
20000d06:	b672      	cpsid	i
20000d08:	6813      	ldr	r3, [r2, #0]
20000d0a:	2b00      	cmp	r3, #0
20000d0c:	d1e5      	bne.n	20000cda <dcd_event_handler+0x92>
20000d0e:	e7fb      	b.n	20000d08 <dcd_event_handler+0xc0>
20000d10:	4e24      	ldr	r6, [pc, #144]	; (20000da4 <dcd_event_handler+0x15c>)
20000d12:	4a25      	ldr	r2, [pc, #148]	; (20000da8 <dcd_event_handler+0x160>)
20000d14:	7833      	ldrb	r3, [r6, #0]
20000d16:	2400      	movs	r4, #0
20000d18:	2a00      	cmp	r2, #0
20000d1a:	d035      	beq.n	20000d88 <dcd_event_handler+0x140>
20000d1c:	4f23      	ldr	r7, [pc, #140]	; (20000dac <dcd_event_handler+0x164>)
20000d1e:	429c      	cmp	r4, r3
20000d20:	d20e      	bcs.n	20000d40 <dcd_event_handler+0xf8>
20000d22:	6839      	ldr	r1, [r7, #0]
20000d24:	0062      	lsls	r2, r4, #1
20000d26:	468c      	mov	ip, r1
20000d28:	1912      	adds	r2, r2, r4
20000d2a:	00d2      	lsls	r2, r2, #3
20000d2c:	4462      	add	r2, ip
20000d2e:	2a00      	cmp	r2, #0
20000d30:	d006      	beq.n	20000d40 <dcd_event_handler+0xf8>
20000d32:	6952      	ldr	r2, [r2, #20]
20000d34:	2a00      	cmp	r2, #0
20000d36:	d003      	beq.n	20000d40 <dcd_event_handler+0xf8>
20000d38:	7828      	ldrb	r0, [r5, #0]
20000d3a:	6869      	ldr	r1, [r5, #4]
20000d3c:	4790      	blx	r2
20000d3e:	7833      	ldrb	r3, [r6, #0]
20000d40:	3401      	adds	r4, #1
20000d42:	b2e4      	uxtb	r4, r4
20000d44:	42a3      	cmp	r3, r4
20000d46:	daea      	bge.n	20000d1e <dcd_event_handler+0xd6>
20000d48:	4b14      	ldr	r3, [pc, #80]	; (20000d9c <dcd_event_handler+0x154>)
20000d4a:	781a      	ldrb	r2, [r3, #0]
20000d4c:	0752      	lsls	r2, r2, #29
20000d4e:	d5d3      	bpl.n	20000cf8 <dcd_event_handler+0xb0>
20000d50:	2104      	movs	r1, #4
20000d52:	781a      	ldrb	r2, [r3, #0]
20000d54:	ae01      	add	r6, sp, #4
20000d56:	438a      	bics	r2, r1
20000d58:	701a      	strb	r2, [r3, #0]
20000d5a:	2100      	movs	r1, #0
20000d5c:	220c      	movs	r2, #12
20000d5e:	0030      	movs	r0, r6
20000d60:	f000 f82a 	bl	20000db8 <____wrap_memset_veneer>
20000d64:	782b      	ldrb	r3, [r5, #0]
20000d66:	7033      	strb	r3, [r6, #0]
20000d68:	2305      	movs	r3, #5
20000d6a:	7073      	strb	r3, [r6, #1]
20000d6c:	4b0c      	ldr	r3, [pc, #48]	; (20000da0 <dcd_event_handler+0x158>)
20000d6e:	681c      	ldr	r4, [r3, #0]
20000d70:	6962      	ldr	r2, [r4, #20]
20000d72:	f3ef 8110 	mrs	r1, PRIMASK
20000d76:	b672      	cpsid	i
20000d78:	6813      	ldr	r3, [r2, #0]
20000d7a:	2b00      	cmp	r3, #0
20000d7c:	d0fc      	beq.n	20000d78 <dcd_event_handler+0x130>
20000d7e:	f3bf 8f5f 	dmb	sy
20000d82:	61a1      	str	r1, [r4, #24]
20000d84:	0031      	movs	r1, r6
20000d86:	e7ac      	b.n	20000ce2 <dcd_event_handler+0x9a>
20000d88:	3201      	adds	r2, #1
20000d8a:	b2d2      	uxtb	r2, r2
20000d8c:	429a      	cmp	r2, r3
20000d8e:	dcdb      	bgt.n	20000d48 <dcd_event_handler+0x100>
20000d90:	3201      	adds	r2, #1
20000d92:	b2d2      	uxtb	r2, r2
20000d94:	429a      	cmp	r2, r3
20000d96:	ddf7      	ble.n	20000d88 <dcd_event_handler+0x140>
20000d98:	e7d6      	b.n	20000d48 <dcd_event_handler+0x100>
20000d9a:	46c0      	nop			; (mov r8, r8)
20000d9c:	20001be0 	.word	0x20001be0
20000da0:	20001c38 	.word	0x20001c38
20000da4:	20002255 	.word	0x20002255
20000da8:	10002a1d 	.word	0x10002a1d
20000dac:	200018b8 	.word	0x200018b8

20000db0 <__aeabi_idiv0>:
20000db0:	4770      	bx	lr
20000db2:	46c0      	nop			; (mov r8, r8)
20000db4:	0000      	movs	r0, r0
	...

20000db8 <____wrap_memset_veneer>:
20000db8:	b401      	push	{r0}
20000dba:	4802      	ldr	r0, [pc, #8]	; (20000dc4 <____wrap_memset_veneer+0xc>)
20000dbc:	4684      	mov	ip, r0
20000dbe:	bc01      	pop	{r0}
20000dc0:	4760      	bx	ip
20000dc2:	bf00      	nop
20000dc4:	100025d5 	.word	0x100025d5

20000dc8 <__time_us_64_veneer>:
20000dc8:	b401      	push	{r0}
20000dca:	4802      	ldr	r0, [pc, #8]	; (20000dd4 <__time_us_64_veneer+0xc>)
20000dcc:	4684      	mov	ip, r0
20000dce:	bc01      	pop	{r0}
20000dd0:	4760      	bx	ip
20000dd2:	bf00      	nop
20000dd4:	10001531 	.word	0x10001531

20000dd8 <__tu_fifo_write_veneer>:
20000dd8:	b401      	push	{r0}
20000dda:	4802      	ldr	r0, [pc, #8]	; (20000de4 <__tu_fifo_write_veneer+0xc>)
20000ddc:	4684      	mov	ip, r0
20000dde:	bc01      	pop	{r0}
20000de0:	4760      	bx	ip
20000de2:	bf00      	nop
20000de4:	10004b5d 	.word	0x10004b5d

20000de8 <____wrap_memcpy_veneer>:
20000de8:	b401      	push	{r0}
20000dea:	4802      	ldr	r0, [pc, #8]	; (20000df4 <____wrap_memcpy_veneer+0xc>)
20000dec:	4684      	mov	ip, r0
20000dee:	bc01      	pop	{r0}
20000df0:	4760      	bx	ip
20000df2:	bf00      	nop
20000df4:	100025e1 	.word	0x100025e1

20000df8 <__panic_veneer>:
20000df8:	b401      	push	{r0}
20000dfa:	4802      	ldr	r0, [pc, #8]	; (20000e04 <__panic_veneer+0xc>)
20000dfc:	4684      	mov	ip, r0
20000dfe:	bc01      	pop	{r0}
20000e00:	4760      	bx	ip
20000e02:	bf00      	nop
20000e04:	10002309 	.word	0x10002309

20000e08 <____wrap___aeabi_lmul_veneer>:
20000e08:	b401      	push	{r0}
20000e0a:	4802      	ldr	r0, [pc, #8]	; (20000e14 <____wrap___aeabi_lmul_veneer+0xc>)
20000e0c:	4684      	mov	ip, r0
20000e0e:	bc01      	pop	{r0}
20000e10:	4760      	bx	ip
20000e12:	bf00      	nop
20000e14:	100024fd 	.word	0x100024fd

20000e18 <__best_effort_wfe_or_timeout_veneer>:
20000e18:	b401      	push	{r0}
20000e1a:	4802      	ldr	r0, [pc, #8]	; (20000e24 <__best_effort_wfe_or_timeout_veneer+0xc>)
20000e1c:	4684      	mov	ip, r0
20000e1e:	bc01      	pop	{r0}
20000e20:	4760      	bx	ip
20000e22:	bf00      	nop
20000e24:	1000127d 	.word	0x1000127d

20000e28 <striped_spin_lock_num>:
20000e28:	00000010                                ....

20000e2c <irq_handler_chain_slots>:
20000e2c:	00000000 	.word	0x00000000
20000e30:	00010000 	.word	0x00010000
	...
20000e3c:	00020000 	.word	0x00020000
	...
20000e48:	00030000 	.word	0x00030000
	...
20000e54:	00ff0000 	.word	0x00ff0000
20000e58:	00000000 	.word	0x00000000

20000e5c <irq_handler_chain_first_slot>:
20000e5c:	b501      	push	{r0, lr}
20000e5e:	6848      	ldr	r0, [r1, #4]
20000e60:	3101      	adds	r1, #1
20000e62:	468e      	mov	lr, r1
20000e64:	4700      	bx	r0

20000e66 <irq_handler_chain_remove_tail>:
20000e66:	4670      	mov	r0, lr
20000e68:	3809      	subs	r0, #9
20000e6a:	4901      	ldr	r1, [pc, #4]	; (20000e70 <irq_handler_chain_remove_tail+0xa>)
20000e6c:	4788      	blx	r1
20000e6e:	bd01      	pop	{r0, pc}
20000e70:	10000969 	.word	0x10000969

20000e74 <default_alarm_pool>:
20000e74:	20000e8c 00000000 20001760 20001d80     ... ....`.. ... 
	...

20000e8c <default_alarm_pool_heap>:
20000e8c:	20001d90 00000000 00000000 00000010     ... ............
20000e9c:	00000000                                ....

20000ea0 <aeabi_bits_funcs>:
20000ea0:	00003350 	.word	0x00003350
20000ea4:	0000334c 	.word	0x0000334c
20000ea8:	00003354 	.word	0x00003354
20000eac:	00003352 	.word	0x00003352

20000eb0 <aeabi_bits_funcs_end>:
20000eb0:	0000534d 	.word	0x0000534d
20000eb4:	0000434d 	.word	0x0000434d
20000eb8:	00003453 	.word	0x00003453
20000ebc:	00003443 	.word	0x00003443

20000ec0 <aeabi_mem_funcs_end>:
20000ec0:	10002b61 	.word	0x10002b61
20000ec4:	00000000 	.word	0x00000000
20000ec8:	10002ad5 	.word	0x10002ad5
20000ecc:	10002a5d 	.word	0x10002a5d
20000ed0:	00000000 	.word	0x00000000
20000ed4:	00000100 	.word	0x00000100

20000ed8 <ep_dir_string>:
20000ed8:	1000620c 10006210                       .b...b..

20000ee0 <_usbd_qdef>:
20000ee0:	20002460 000c0010 00000000 00000000     `$. ............
	...

20000efc <_usbd_rhport>:
20000efc:	000000ff                                ....

20000f00 <_impure_ptr>:
20000f00:	20000f08 00000000                       ... ....

20000f08 <impure_data>:
20000f08:	00000000 200011f4 2000125c 200012c4     ....... \.. ... 
	...
20000f3c:	10006120 00000000 00000000 00000000      a..............
	...
20000fb0:	00000001 00000000 abcd330e e66d1234     .........3..4.m.
20000fc0:	0005deec 0000000b 00000000 00000000     ................
	...

20001330 <__malloc_av_>:
	...
20001338:	20001330 20001330 20001338 20001338     0.. 0.. 8.. 8.. 
20001348:	20001340 20001340 20001348 20001348     @.. @.. H.. H.. 
20001358:	20001350 20001350 20001358 20001358     P.. P.. X.. X.. 
20001368:	20001360 20001360 20001368 20001368     `.. `.. h.. h.. 
20001378:	20001370 20001370 20001378 20001378     p.. p.. x.. x.. 
20001388:	20001380 20001380 20001388 20001388     ... ... ... ... 
20001398:	20001390 20001390 20001398 20001398     ... ... ... ... 
200013a8:	200013a0 200013a0 200013a8 200013a8     ... ... ... ... 
200013b8:	200013b0 200013b0 200013b8 200013b8     ... ... ... ... 
200013c8:	200013c0 200013c0 200013c8 200013c8     ... ... ... ... 
200013d8:	200013d0 200013d0 200013d8 200013d8     ... ... ... ... 
200013e8:	200013e0 200013e0 200013e8 200013e8     ... ... ... ... 
200013f8:	200013f0 200013f0 200013f8 200013f8     ... ... ... ... 
20001408:	20001400 20001400 20001408 20001408     ... ... ... ... 
20001418:	20001410 20001410 20001418 20001418     ... ... ... ... 
20001428:	20001420 20001420 20001428 20001428      ..  .. (.. (.. 
20001438:	20001430 20001430 20001438 20001438     0.. 0.. 8.. 8.. 
20001448:	20001440 20001440 20001448 20001448     @.. @.. H.. H.. 
20001458:	20001450 20001450 20001458 20001458     P.. P.. X.. X.. 
20001468:	20001460 20001460 20001468 20001468     `.. `.. h.. h.. 
20001478:	20001470 20001470 20001478 20001478     p.. p.. x.. x.. 
20001488:	20001480 20001480 20001488 20001488     ... ... ... ... 
20001498:	20001490 20001490 20001498 20001498     ... ... ... ... 
200014a8:	200014a0 200014a0 200014a8 200014a8     ... ... ... ... 
200014b8:	200014b0 200014b0 200014b8 200014b8     ... ... ... ... 
200014c8:	200014c0 200014c0 200014c8 200014c8     ... ... ... ... 
200014d8:	200014d0 200014d0 200014d8 200014d8     ... ... ... ... 
200014e8:	200014e0 200014e0 200014e8 200014e8     ... ... ... ... 
200014f8:	200014f0 200014f0 200014f8 200014f8     ... ... ... ... 
20001508:	20001500 20001500 20001508 20001508     ... ... ... ... 
20001518:	20001510 20001510 20001518 20001518     ... ... ... ... 
20001528:	20001520 20001520 20001528 20001528      ..  .. (.. (.. 
20001538:	20001530 20001530 20001538 20001538     0.. 0.. 8.. 8.. 
20001548:	20001540 20001540 20001548 20001548     @.. @.. H.. H.. 
20001558:	20001550 20001550 20001558 20001558     P.. P.. X.. X.. 
20001568:	20001560 20001560 20001568 20001568     `.. `.. h.. h.. 
20001578:	20001570 20001570 20001578 20001578     p.. p.. x.. x.. 
20001588:	20001580 20001580 20001588 20001588     ... ... ... ... 
20001598:	20001590 20001590 20001598 20001598     ... ... ... ... 
200015a8:	200015a0 200015a0 200015a8 200015a8     ... ... ... ... 
200015b8:	200015b0 200015b0 200015b8 200015b8     ... ... ... ... 
200015c8:	200015c0 200015c0 200015c8 200015c8     ... ... ... ... 
200015d8:	200015d0 200015d0 200015d8 200015d8     ... ... ... ... 
200015e8:	200015e0 200015e0 200015e8 200015e8     ... ... ... ... 
200015f8:	200015f0 200015f0 200015f8 200015f8     ... ... ... ... 
20001608:	20001600 20001600 20001608 20001608     ... ... ... ... 
20001618:	20001610 20001610 20001618 20001618     ... ... ... ... 
20001628:	20001620 20001620 20001628 20001628      ..  .. (.. (.. 
20001638:	20001630 20001630 20001638 20001638     0.. 0.. 8.. 8.. 
20001648:	20001640 20001640 20001648 20001648     @.. @.. H.. H.. 
20001658:	20001650 20001650 20001658 20001658     P.. P.. X.. X.. 
20001668:	20001660 20001660 20001668 20001668     `.. `.. h.. h.. 
20001678:	20001670 20001670 20001678 20001678     p.. p.. x.. x.. 
20001688:	20001680 20001680 20001688 20001688     ... ... ... ... 
20001698:	20001690 20001690 20001698 20001698     ... ... ... ... 
200016a8:	200016a0 200016a0 200016a8 200016a8     ... ... ... ... 
200016b8:	200016b0 200016b0 200016b8 200016b8     ... ... ... ... 
200016c8:	200016c0 200016c0 200016c8 200016c8     ... ... ... ... 
200016d8:	200016d0 200016d0 200016d8 200016d8     ... ... ... ... 
200016e8:	200016e0 200016e0 200016e8 200016e8     ... ... ... ... 
200016f8:	200016f0 200016f0 200016f8 200016f8     ... ... ... ... 
20001708:	20001700 20001700 20001708 20001708     ... ... ... ... 
20001718:	20001710 20001710 20001718 20001718     ... ... ... ... 
20001728:	20001720 20001720 20001728 20001728      ..  .. (.. (.. 

20001738 <__malloc_sbrk_base>:
20001738:	ffffffff                                ....

2000173c <__malloc_trim_threshold>:
2000173c:	00020000                                ....

20001740 <__mutex_array_start>:
	...

20001748 <__mutex_array_end>:
20001748:	100025c5 	.word	0x100025c5
2000174c:	100023b1 	.word	0x100023b1
20001750:	10002471 	.word	0x10002471
20001754:	10002531 	.word	0x10002531

20001758 <__frame_dummy_init_array_entry>:
20001758:	10000335 10002e79                       5...y...
